; generated by Component: ARM Compiler 5.06 update 6 (build 750) Tool: ArmCC [4d3637]
; commandline ArmCC [--list --split_sections --debug -c --asm --interleave -o..\output\c_dc.o --asm_dir=..\Listing\ --list_dir=..\Listing\ --depend=..\output\c_dc.d --cpu=Cortex-M4.fp --apcs=interwork -O1 --diag_suppress=9931,870 -I..\APP -I..\drive -I..\Include -I..\Libraries\CMSIS\inc -I..\Libraries\CMSIS\src -I..\Libraries\FWlib\inc -I..\Libraries\FWlib\src -I..\Listing -I..\Output -I..\Project -I..\STemWinLibrary522\Config -I..\STemWinLibrary522\emWinTask -I..\STemWinLibrary522\GUILib -I..\STemWinLibrary522\inc -I..\User -I..\USB\STM32_USB_HOST_Library\Class\HID\inc -I..\USB\STM32_USB_HOST_Library\Class\MSC\src -I..\USB\STM32_USB_HOST_Library\Core\src -I..\USB\USB_APP -I..\USB\STM32_USB_HOST_Library\Class\HID\src -I..\USB\STM32_USB_HOST_Library\Class\MSC\inc -I..\USB\STM32_USB_HOST_Library\Core\inc -I..\USB\STM32_USB_OTG_Driver\inc -I..\FATFS\exfuns -I..\FATFS\src\option -I..\FATFS\src -I..\MALLOC -I..\FATFS -I..\IAP -ID:\Keil_v5\ARM\RV31\INC -ID:\Keil_v5\ARM\CMSIS\Include -ID:\Keil_v5\ARM\INC\ST\STM32F4xx -D__UVISION_VERSION=525 -DUSE_STDPERIPH_DRIVER -DSTM32F40XX -DUSE_USB_OTG_FS -DUSE_EMBEDDED_PHY -DUSE_USB_OTG_HS -DSTM32F40XX --omf_browse=..\output\c_dc.crf --no_multibyte_chars ..\APP\c_dc.c]
                          THUMB

                          AREA ||i.CDC_OP_DOWN||, CODE, READONLY, ALIGN=2

                  CDC_OP_DOWN PROC
;;;1135   
;;;1136   void CDC_OP_DOWN(void)
000000  e92d5ff0          PUSH     {r4-r12,lr}
;;;1137   {
;;;1138       switch(set_sw)
000004  4c7b              LDR      r4,|L1.500|
000006  7821              LDRB     r1,[r4,#0]  ; set_sw
;;;1139       {
;;;1140           case set_26:
;;;1141           {
;;;1142               WM_HWIN hItem;
;;;1143   //            WM_InvalidateWindow(hWincdc);
;;;1144               hItem = WM_GetDialogItem(hWincdc, ID_TEXT_50);
000008  487b              LDR      r0,|L1.504|
00000a  f640056f          MOV      r5,#0x86f
00000e  3919              SUBS     r1,r1,#0x19           ;1138
;;;1145               TEXT_SetBkColor(hItem,GUI_INVALID_COLOR);//选项背景色设为透明
;;;1146               TEXT_SetTextColor(hItem, GUI_WHITE);
;;;1147                  
;;;1148               hItem = WM_GetDialogItem(hWincdc, ID_TEXT_51);
000010  1c6f              ADDS     r7,r5,#1
000012  6982              LDR      r2,[r0,#0x18]         ;1138
000014  f06f4670          MVN      r6,#0xf0000000        ;1145
;;;1149               TEXT_SetBkColor(hItem,0x00BFFFFF);//选项背景色设为米色
;;;1150               TEXT_SetTextColor(hItem, GUI_BLACK);
;;;1151               
;;;1152               
;;;1153               set_sw = set_27;
;;;1154               break;
;;;1155           }
;;;1156           case set_27:
;;;1157           {
;;;1158               WM_HWIN hItem;
;;;1159   //            WM_InvalidateWindow(hWincdc);
;;;1160               hItem = WM_GetDialogItem(hWincdc, ID_TEXT_51);
;;;1161               TEXT_SetBkColor(hItem,GUI_INVALID_COLOR);//选项背景色设为透明
;;;1162               TEXT_SetTextColor(hItem, GUI_WHITE);
;;;1163                  
;;;1164               hItem = WM_GetDialogItem(hWincdc, ID_TEXT_58);
000018  f6400877          MOV      r8,#0x877
;;;1165               TEXT_SetBkColor(hItem,0x00BFFFFF);//选项背景色设为米色
;;;1166               TEXT_SetTextColor(hItem, GUI_BLACK);
;;;1167   
;;;1168               set_sw = set_28;
;;;1169               break;
;;;1170           }
;;;1171           case set_28:
;;;1172           {
;;;1173               WM_HWIN hItem;
;;;1174   //            WM_InvalidateWindow(hWincdc);
;;;1175               hItem = WM_GetDialogItem(hWincdc, ID_TEXT_58);
;;;1176               TEXT_SetBkColor(hItem,GUI_INVALID_COLOR);//选项背景色设为透明
;;;1177               TEXT_SetTextColor(hItem, GUI_WHITE);
;;;1178                  
;;;1179               hItem = WM_GetDialogItem(hWincdc, ID_TEXT_59);
00001c  f6400978          MOV      r9,#0x878
;;;1180               TEXT_SetBkColor(hItem,0x00BFFFFF);//选项背景色设为米色
;;;1181               TEXT_SetTextColor(hItem, GUI_BLACK);
;;;1182   
;;;1183               set_sw = set_29;
;;;1184               break;
;;;1185           }
;;;1186           case set_29:
;;;1187           {
;;;1188               WM_HWIN hItem;
;;;1189   //            WM_InvalidateWindow(hWincdc);
;;;1190               hItem = WM_GetDialogItem(hWincdc, ID_TEXT_59);
;;;1191               TEXT_SetBkColor(hItem,GUI_INVALID_COLOR);//选项背景色设为透明
;;;1192               TEXT_SetTextColor(hItem, GUI_WHITE);
;;;1193                  
;;;1194               hItem = WM_GetDialogItem(hWincdc, ID_TEXT_52);
000020  f6400a71          MOV      r10,#0x871
;;;1195               TEXT_SetBkColor(hItem,0x00BFFFFF);//选项背景色设为米色
;;;1196               TEXT_SetTextColor(hItem, GUI_BLACK);
;;;1197   
;;;1198               set_sw = set_34;
;;;1199               break;
;;;1200           }
;;;1201           case set_34:
;;;1202           {
;;;1203               WM_HWIN hItem;
;;;1204   //            WM_InvalidateWindow(hWincdc);
;;;1205               hItem = WM_GetDialogItem(hWincdc, ID_TEXT_52);
;;;1206               TEXT_SetBkColor(hItem,GUI_INVALID_COLOR);//选项背景色设为透明
;;;1207               TEXT_SetTextColor(hItem, GUI_WHITE);
;;;1208                  
;;;1209               hItem = WM_GetDialogItem(hWincdc, ID_TEXT_60);
000024  f6400b79          MOV      r11,#0x879
000028  290c              CMP      r1,#0xc               ;1138
00002a  d225              BCS      |L1.120|
00002c  e8dff001          TBB      [pc,r1]               ;1138
000030  06264564          DCB      0x06,0x26,0x45,0x64
000034  24242424          DCB      0x24,0x24,0x24,0x24
000038  83a224c2          DCB      0x83,0xa2,0x24,0xc2
00003c  4629              MOV      r1,r5                 ;1144
00003e  4605              MOV      r5,r0                 ;1144
000040  4610              MOV      r0,r2                 ;1144
000042  f7fffffe          BL       WM_GetDialogItem
000046  4680              MOV      r8,r0                 ;1144
000048  4631              MOV      r1,r6                 ;1145
00004a  4640              MOV      r0,r8                 ;1145
00004c  f7fffffe          BL       TEXT_SetBkColor
000050  f06f417f          MVN      r1,#0xff000000        ;1146
000054  4640              MOV      r0,r8                 ;1146
000056  f7fffffe          BL       TEXT_SetTextColor
00005a  4639              MOV      r1,r7                 ;1148
00005c  69a8              LDR      r0,[r5,#0x18]         ;1148  ; hWincdc
00005e  f7fffffe          BL       WM_GetDialogItem
000062  4605              MOV      r5,r0                 ;1148
000064  4965              LDR      r1,|L1.508|
000066  4628              MOV      r0,r5                 ;1149
000068  f7fffffe          BL       TEXT_SetBkColor
00006c  2100              MOVS     r1,#0                 ;1150
00006e  4628              MOV      r0,r5                 ;1150
000070  f7fffffe          BL       TEXT_SetTextColor
000074  201a              MOVS     r0,#0x1a              ;1153
000076  7020              STRB     r0,[r4,#0]            ;1153
                  |L1.120|
;;;1210               TEXT_SetBkColor(hItem,0x00BFFFFF);//选项背景色设为米色
;;;1211               TEXT_SetTextColor(hItem, GUI_BLACK);
;;;1212   
;;;1213               set_sw = set_35;
;;;1214               break;
;;;1215           }
;;;1216           case set_35:
;;;1217           {
;;;1218               WM_HWIN hItem;
;;;1219   //            WM_InvalidateWindow(hWincdc);
;;;1220               hItem = WM_GetDialogItem(hWincdc, ID_TEXT_60);
;;;1221               TEXT_SetBkColor(hItem,GUI_INVALID_COLOR);//选项背景色设为透明
;;;1222               TEXT_SetTextColor(hItem, GUI_WHITE);
;;;1223                  
;;;1224               hItem = WM_GetDialogItem(hWincdc, ID_TEXT_53);
;;;1225               TEXT_SetBkColor(hItem,0x00BFFFFF);//选项背景色设为米色
;;;1226               TEXT_SetTextColor(hItem, GUI_BLACK);
;;;1227   
;;;1228               set_sw = set_37;
;;;1229               break;
;;;1230           }
;;;1231   //         case set_36:
;;;1232   //         {
;;;1233   //             WM_HWIN hItem;
;;;1234   //             WM_InvalidateWindow(hWincdc);
;;;1235   //             hItem = WM_GetDialogItem(hWincdc, ID_TEXT_61);
;;;1236   //             TEXT_SetBkColor(hItem,GUI_INVALID_COLOR);//选项背景色设为透明
;;;1237   //                
;;;1238   //             hItem = WM_GetDialogItem(hWincdc, ID_TEXT_53);
;;;1239   //             TEXT_SetBkColor(hItem,0x00BFFFFF);//选项背景色设为米色
;;;1240   
;;;1241   //             set_sw = set_37;
;;;1242   //             break;
;;;1243   //         }
;;;1244           case set_37:
;;;1245           {
;;;1246               WM_HWIN hItem;
;;;1247   //            WM_InvalidateWindow(hWincdc);
;;;1248               hItem = WM_GetDialogItem(hWincdc, ID_TEXT_53);
;;;1249               TEXT_SetBkColor(hItem,GUI_INVALID_COLOR);//选项背景色设为透明
;;;1250               TEXT_SetTextColor(hItem, GUI_WHITE);
;;;1251                  
;;;1252               hItem = WM_GetDialogItem(hWincdc, ID_TEXT_50);
;;;1253               TEXT_SetBkColor(hItem,0x00BFFFFF);//选项背景色设为米色
;;;1254               TEXT_SetTextColor(hItem, GUI_BLACK);
;;;1255   
;;;1256               set_sw = set_26;
;;;1257               break;
;;;1258           }
;;;1259           default: break;
;;;1260       }
;;;1261   }
000078  e8bd9ff0          POP      {r4-r12,pc}
00007c  4605              MOV      r5,r0                 ;1160
00007e  4639              MOV      r1,r7                 ;1160
000080  4610              MOV      r0,r2                 ;1160
000082  f7fffffe          BL       WM_GetDialogItem
000086  4607              MOV      r7,r0                 ;1160
000088  4631              MOV      r1,r6                 ;1161
00008a  4638              MOV      r0,r7                 ;1161
00008c  f7fffffe          BL       TEXT_SetBkColor
000090  f06f417f          MVN      r1,#0xff000000        ;1162
000094  4638              MOV      r0,r7                 ;1162
000096  f7fffffe          BL       TEXT_SetTextColor
00009a  4641              MOV      r1,r8                 ;1164
00009c  69a8              LDR      r0,[r5,#0x18]         ;1164  ; hWincdc
00009e  f7fffffe          BL       WM_GetDialogItem
0000a2  4605              MOV      r5,r0                 ;1164
0000a4  4955              LDR      r1,|L1.508|
0000a6  4628              MOV      r0,r5                 ;1165
0000a8  f7fffffe          BL       TEXT_SetBkColor
0000ac  2100              MOVS     r1,#0                 ;1166
0000ae  4628              MOV      r0,r5                 ;1166
0000b0  f7fffffe          BL       TEXT_SetTextColor
0000b4  201b              MOVS     r0,#0x1b              ;1168
0000b6  7020              STRB     r0,[r4,#0]            ;1168
0000b8  e7de              B        |L1.120|
0000ba  4605              MOV      r5,r0                 ;1175
0000bc  4641              MOV      r1,r8                 ;1175
0000be  4610              MOV      r0,r2                 ;1175
0000c0  f7fffffe          BL       WM_GetDialogItem
0000c4  4607              MOV      r7,r0                 ;1175
0000c6  4631              MOV      r1,r6                 ;1176
0000c8  4638              MOV      r0,r7                 ;1176
0000ca  f7fffffe          BL       TEXT_SetBkColor
0000ce  f06f417f          MVN      r1,#0xff000000        ;1177
0000d2  4638              MOV      r0,r7                 ;1177
0000d4  f7fffffe          BL       TEXT_SetTextColor
0000d8  4649              MOV      r1,r9                 ;1179
0000da  69a8              LDR      r0,[r5,#0x18]         ;1179  ; hWincdc
0000dc  f7fffffe          BL       WM_GetDialogItem
0000e0  4605              MOV      r5,r0                 ;1179
0000e2  4946              LDR      r1,|L1.508|
0000e4  4628              MOV      r0,r5                 ;1180
0000e6  f7fffffe          BL       TEXT_SetBkColor
0000ea  2100              MOVS     r1,#0                 ;1181
0000ec  4628              MOV      r0,r5                 ;1181
0000ee  f7fffffe          BL       TEXT_SetTextColor
0000f2  201c              MOVS     r0,#0x1c              ;1183
0000f4  7020              STRB     r0,[r4,#0]            ;1183
0000f6  e7bf              B        |L1.120|
0000f8  4605              MOV      r5,r0                 ;1190
0000fa  4649              MOV      r1,r9                 ;1190
0000fc  4610              MOV      r0,r2                 ;1190
0000fe  f7fffffe          BL       WM_GetDialogItem
000102  4607              MOV      r7,r0                 ;1190
000104  4631              MOV      r1,r6                 ;1191
000106  4638              MOV      r0,r7                 ;1191
000108  f7fffffe          BL       TEXT_SetBkColor
00010c  f06f417f          MVN      r1,#0xff000000        ;1192
000110  4638              MOV      r0,r7                 ;1192
000112  f7fffffe          BL       TEXT_SetTextColor
000116  4651              MOV      r1,r10                ;1194
000118  69a8              LDR      r0,[r5,#0x18]         ;1194  ; hWincdc
00011a  f7fffffe          BL       WM_GetDialogItem
00011e  4605              MOV      r5,r0                 ;1194
000120  4936              LDR      r1,|L1.508|
000122  4628              MOV      r0,r5                 ;1195
000124  f7fffffe          BL       TEXT_SetBkColor
000128  2100              MOVS     r1,#0                 ;1196
00012a  4628              MOV      r0,r5                 ;1196
00012c  f7fffffe          BL       TEXT_SetTextColor
000130  2021              MOVS     r0,#0x21              ;1198
000132  7020              STRB     r0,[r4,#0]            ;1198
000134  e7a0              B        |L1.120|
000136  4605              MOV      r5,r0                 ;1205
000138  4651              MOV      r1,r10                ;1205
00013a  4610              MOV      r0,r2                 ;1205
00013c  f7fffffe          BL       WM_GetDialogItem
000140  4607              MOV      r7,r0                 ;1205
000142  4631              MOV      r1,r6                 ;1206
000144  4638              MOV      r0,r7                 ;1206
000146  f7fffffe          BL       TEXT_SetBkColor
00014a  f06f417f          MVN      r1,#0xff000000        ;1207
00014e  4638              MOV      r0,r7                 ;1207
000150  f7fffffe          BL       TEXT_SetTextColor
000154  4659              MOV      r1,r11                ;1209
000156  69a8              LDR      r0,[r5,#0x18]         ;1209  ; hWincdc
000158  f7fffffe          BL       WM_GetDialogItem
00015c  4605              MOV      r5,r0                 ;1209
00015e  4927              LDR      r1,|L1.508|
000160  4628              MOV      r0,r5                 ;1210
000162  f7fffffe          BL       TEXT_SetBkColor
000166  2100              MOVS     r1,#0                 ;1211
000168  4628              MOV      r0,r5                 ;1211
00016a  f7fffffe          BL       TEXT_SetTextColor
00016e  2022              MOVS     r0,#0x22              ;1213
000170  7020              STRB     r0,[r4,#0]            ;1213
000172  e781              B        |L1.120|
000174  4605              MOV      r5,r0                 ;1220
000176  4659              MOV      r1,r11                ;1220
000178  4610              MOV      r0,r2                 ;1220
00017a  f7fffffe          BL       WM_GetDialogItem
00017e  4607              MOV      r7,r0                 ;1220
000180  4631              MOV      r1,r6                 ;1221
000182  4638              MOV      r0,r7                 ;1221
000184  f7fffffe          BL       TEXT_SetBkColor
000188  f06f417f          MVN      r1,#0xff000000        ;1222
00018c  4638              MOV      r0,r7                 ;1222
00018e  f7fffffe          BL       TEXT_SetTextColor
000192  f6400172          MOV      r1,#0x872             ;1224
000196  69a8              LDR      r0,[r5,#0x18]         ;1224  ; hWincdc
000198  f7fffffe          BL       WM_GetDialogItem
00019c  4605              MOV      r5,r0                 ;1224
00019e  4917              LDR      r1,|L1.508|
0001a0  4628              MOV      r0,r5                 ;1225
0001a2  f7fffffe          BL       TEXT_SetBkColor
0001a6  2100              MOVS     r1,#0                 ;1226
0001a8  4628              MOV      r0,r5                 ;1226
0001aa  f7fffffe          BL       TEXT_SetTextColor
0001ae  2024              MOVS     r0,#0x24              ;1228
0001b0  7020              STRB     r0,[r4,#0]            ;1228
0001b2  e761              B        |L1.120|
0001b4  4607              MOV      r7,r0                 ;1248
0001b6  f6400172          MOV      r1,#0x872             ;1248
0001ba  4610              MOV      r0,r2                 ;1248
0001bc  f7fffffe          BL       WM_GetDialogItem
0001c0  4680              MOV      r8,r0                 ;1248
0001c2  4631              MOV      r1,r6                 ;1249
0001c4  4640              MOV      r0,r8                 ;1249
0001c6  f7fffffe          BL       TEXT_SetBkColor
0001ca  f06f417f          MVN      r1,#0xff000000        ;1250
0001ce  4640              MOV      r0,r8                 ;1250
0001d0  f7fffffe          BL       TEXT_SetTextColor
0001d4  4629              MOV      r1,r5                 ;1252
0001d6  69b8              LDR      r0,[r7,#0x18]         ;1252  ; hWincdc
0001d8  f7fffffe          BL       WM_GetDialogItem
0001dc  4605              MOV      r5,r0                 ;1252
0001de  4907              LDR      r1,|L1.508|
0001e0  4628              MOV      r0,r5                 ;1253
0001e2  f7fffffe          BL       TEXT_SetBkColor
0001e6  2100              MOVS     r1,#0                 ;1254
0001e8  4628              MOV      r0,r5                 ;1254
0001ea  f7fffffe          BL       TEXT_SetTextColor
0001ee  2019              MOVS     r0,#0x19              ;1256
0001f0  7020              STRB     r0,[r4,#0]            ;1256
0001f2  e741              B        |L1.120|
;;;1262   
                          ENDP

                  |L1.500|
                          DCD      set_sw
                  |L1.504|
                          DCD      ||.data||
                  |L1.508|
                          DCD      0x00bfffff

                          AREA ||i.CDC_OP_LEFT||, CODE, READONLY, ALIGN=2

                          REQUIRE _printf_percent
                          REQUIRE _printf_widthprec
                          REQUIRE _printf_f
                          REQUIRE _printf_fp_dec
                  CDC_OP_LEFT PROC
;;;1390   
;;;1391   void CDC_OP_LEFT(void)
000000  b5f0              PUSH     {r4-r7,lr}
;;;1392   {
000002  ed2d8b02          VPUSH    {d8}
000006  b083              SUB      sp,sp,#0xc
;;;1393       float buffer;
;;;1394       char buf[5];
;;;1395       WM_HWIN hItem;
;;;1396       switch(set_sw)
000008  48b0              LDR      r0,|L2.716|
00000a  7801              LDRB     r1,[r0,#0]  ; set_sw
;;;1397       {
;;;1398           case set_26:
;;;1399           {
;;;1400               
;;;1401               if(pow_step == step2)
;;;1402               {
;;;1403                   buffer = (float)opv1/100;
00000c  4ab0              LDR      r2,|L2.720|
00000e  2600              MOVS     r6,#0                 ;1396
000010  ed9f0ab0          VLDR     s0,|L2.724|
000014  4cb0              LDR      r4,|L2.728|
;;;1404                   hItem = WM_GetDialogItem(hWincdc, ID_TEXT_50);
;;;1405                   TEXT_SetText(hItem,"输出电压1");
;;;1406                   hItem = WM_GetDialogItem(hWincdc, ID_TEXT_54);
;;;1407                   sprintf(buf,"%.2f",buffer);
;;;1408                   TEXT_SetText(hItem,buf);
;;;1409                   pow_step = step1;
;;;1410               }else if(pow_step == step3){
;;;1411                   buffer = (float)opv2/100;
;;;1412                   hItem = WM_GetDialogItem(hWincdc, ID_TEXT_50);
;;;1413                   TEXT_SetText(hItem,"输出电压2");
;;;1414                   hItem = WM_GetDialogItem(hWincdc, ID_TEXT_54);
;;;1415                   sprintf(buf,"%.2f",buffer);
;;;1416                   TEXT_SetText(hItem,buf);
;;;1417                   pow_step = step2;
000016  2501              MOVS     r5,#1
000018  2919              CMP      r1,#0x19              ;1396
00001a  69a0              LDR      r0,[r4,#0x18]         ;1396
00001c  d038              BEQ      |L2.144|
;;;1418               }
;;;1419           }break;
;;;1420           case set_27:
;;;1421           {
;;;1422               if(cur_step == step3)
;;;1423               {
;;;1424                   buffer = (float)opc2/1000;
00001e  eddf0aaf          VLDR     s1,|L2.732|
000022  291a              CMP      r1,#0x1a              ;1396
000024  d07e              BEQ      |L2.292|
;;;1425                   hItem = WM_GetDialogItem(hWincdc, ID_TEXT_51);
;;;1426                   TEXT_SetText(hItem,"限制电流2");
;;;1427                   hItem = WM_GetDialogItem(hWincdc, ID_TEXT_55);
;;;1428                   sprintf(buf,"%.3f",buffer);
;;;1429                   TEXT_SetText(hItem,buf);
;;;1430                   
;;;1431                   cur_step = step2;
;;;1432               }else if(cur_step == step2){
;;;1433                   buffer = (float)opc1/1000;
;;;1434                   hItem = WM_GetDialogItem(hWincdc, ID_TEXT_51);
;;;1435                   TEXT_SetText(hItem,"限制电流1");
;;;1436                   hItem = WM_GetDialogItem(hWincdc, ID_TEXT_55);
;;;1437                   sprintf(buf,"%.3f",buffer);
;;;1438                   TEXT_SetText(hItem,buf);
;;;1439                   cur_step = step1;
;;;1440               }
;;;1441           }break;
;;;1442           case set_28:
;;;1443           {
;;;1444               
;;;1445               if(coffv_step == step3)
;;;1446               {
;;;1447                   buffer = (float)cov2/100;
000026  4aae              LDR      r2,|L2.736|
000028  291b              CMP      r1,#0x1b              ;1396
00002a  d07c              BEQ      |L2.294|
00002c  291c              CMP      r1,#0x1c              ;1396
00002e  d12b              BNE      |L2.136|
;;;1448                   hItem = WM_GetDialogItem(hWincdc, ID_TEXT_58);
;;;1449                   TEXT_SetText(hItem,"截止电压2");
;;;1450                   hItem = WM_GetDialogItem(hWincdc, ID_TEXT_62);
;;;1451                   sprintf(buf,"%.2f",buffer);
;;;1452                   TEXT_SetText(hItem,buf);
;;;1453                   coffv_step = step2;
;;;1454               }else if(coffv_step == step2){
;;;1455                   buffer = (float)cov1/100;
;;;1456                   hItem = WM_GetDialogItem(hWincdc, ID_TEXT_58);
;;;1457                   TEXT_SetText(hItem,"截止电压1");
;;;1458                   hItem = WM_GetDialogItem(hWincdc, ID_TEXT_62);
;;;1459                   sprintf(buf,"%.2f",buffer);
;;;1460                   TEXT_SetText(hItem,buf);
;;;1461                   coffv_step = step1;
;;;1462               }
;;;1463           }break;
;;;1464           case set_29:
;;;1465           {
;;;1466               
;;;1467               if(coffc_step == step3)
000030  7c21              LDRB     r1,[r4,#0x10]  ; coffc_step
;;;1468               {
;;;1469                   buffer = (float)coc2/1000;
;;;1470                   hItem = WM_GetDialogItem(hWincdc, ID_TEXT_59);
000032  f6400378          MOV      r3,#0x878
;;;1471                   TEXT_SetText(hItem,"截止电流2");
;;;1472                   hItem = WM_GetDialogItem(hWincdc, ID_TEXT_63);
000036  1d1f              ADDS     r7,r3,#4
000038  2902              CMP      r1,#2                 ;1467
00003a  d075              BEQ      |L2.296|
;;;1473                   sprintf(buf,"%.3f",buffer);
;;;1474                   TEXT_SetText(hItem,buf);
;;;1475                   coffc_step = step2;
;;;1476               }else if(coffc_step == step2){
00003c  7c21              LDRB     r1,[r4,#0x10]  ; coffc_step
00003e  2901              CMP      r1,#1
000040  d122              BNE      |L2.136|
;;;1477                   buffer = (float)coc1/1000;
000042  88d1              LDRH     r1,[r2,#6]  ; coff
000044  ee001a10          VMOV     s0,r1
000048  eeb80a40          VCVT.F32.U32 s0,s0
00004c  ee808a20          VDIV.F32 s16,s0,s1
;;;1478                   hItem = WM_GetDialogItem(hWincdc, ID_TEXT_59);
000050  4619              MOV      r1,r3
000052  f7fffffe          BL       WM_GetDialogItem
;;;1479                   TEXT_SetText(hItem,"截止电流1");
000056  a1a3              ADR      r1,|L2.740|
000058  f7fffffe          BL       TEXT_SetText
;;;1480                   hItem = WM_GetDialogItem(hWincdc, ID_TEXT_63);
00005c  4639              MOV      r1,r7
00005e  69a0              LDR      r0,[r4,#0x18]  ; hWincdc
000060  f7fffffe          BL       WM_GetDialogItem
000064  4605              MOV      r5,r0
;;;1481                   sprintf(buf,"%.3f",buffer);
000066  ee180a10          VMOV     r0,s16
00006a  f7fffffe          BL       __aeabi_f2d
00006e  ec410b10          VMOV     d0,r0,r1
000072  a1a0              ADR      r1,|L2.756|
000074  ec532b10          VMOV     r2,r3,d0
000078  a801              ADD      r0,sp,#4
00007a  f7fffffe          BL       __2sprintf
;;;1482                   TEXT_SetText(hItem,buf);
00007e  a901              ADD      r1,sp,#4
000080  4628              MOV      r0,r5
000082  f7fffffe          BL       TEXT_SetText
;;;1483                   coffc_step = step1;
000086  7426              STRB     r6,[r4,#0x10]
                  |L2.136|
;;;1484               }
;;;1485           }break;
;;;1486       }
;;;1487   }
000088  b003              ADD      sp,sp,#0xc
00008a  ecbd8b02          VPOP     {d8}
00008e  bdf0              POP      {r4-r7,pc}
                  |L2.144|
000090  7b61              LDRB     r1,[r4,#0xd]          ;1401  ; pow_step
000092  f640036f          MOV      r3,#0x86f             ;1404
000096  1d1f              ADDS     r7,r3,#4              ;1406
000098  2901              CMP      r1,#1                 ;1401
00009a  d027              BEQ      |L2.236|
00009c  7b61              LDRB     r1,[r4,#0xd]          ;1410  ; pow_step
00009e  2902              CMP      r1,#2                 ;1410
0000a0  d1f2              BNE      |L2.136|
0000a2  f8d21080          LDR      r1,[r2,#0x80]         ;1411  ; Run_Control
0000a6  ee001a90          VMOV     s1,r1                 ;1411
0000aa  eef80a60          VCVT.F32.U32 s1,s1                 ;1411
0000ae  ee808a80          VDIV.F32 s16,s1,s0             ;1411
0000b2  4619              MOV      r1,r3                 ;1412
0000b4  f7fffffe          BL       WM_GetDialogItem
0000b8  a190              ADR      r1,|L2.764|
0000ba  f7fffffe          BL       TEXT_SetText
0000be  4639              MOV      r1,r7                 ;1414
0000c0  69a0              LDR      r0,[r4,#0x18]         ;1414  ; hWincdc
0000c2  f7fffffe          BL       WM_GetDialogItem
0000c6  4606              MOV      r6,r0                 ;1414
0000c8  ee180a10          VMOV     r0,s16                ;1415
0000cc  f7fffffe          BL       __aeabi_f2d
0000d0  ec410b10          VMOV     d0,r0,r1              ;1415
0000d4  a18d              ADR      r1,|L2.780|
0000d6  ec532b10          VMOV     r2,r3,d0              ;1415
0000da  a801              ADD      r0,sp,#4              ;1415
0000dc  f7fffffe          BL       __2sprintf
0000e0  a901              ADD      r1,sp,#4              ;1416
0000e2  4630              MOV      r0,r6                 ;1416
0000e4  f7fffffe          BL       TEXT_SetText
0000e8  7365              STRB     r5,[r4,#0xd]          ;1417
0000ea  e7cd              B        |L2.136|
                  |L2.236|
0000ec  6fd1              LDR      r1,[r2,#0x7c]         ;1403  ; Run_Control
0000ee  ee001a90          VMOV     s1,r1                 ;1403
0000f2  eef80a60          VCVT.F32.U32 s1,s1                 ;1403
0000f6  ee808a80          VDIV.F32 s16,s1,s0             ;1403
0000fa  4619              MOV      r1,r3                 ;1404
0000fc  f7fffffe          BL       WM_GetDialogItem
000100  a184              ADR      r1,|L2.788|
000102  f7fffffe          BL       TEXT_SetText
000106  4639              MOV      r1,r7                 ;1406
000108  69a0              LDR      r0,[r4,#0x18]         ;1406  ; hWincdc
00010a  f7fffffe          BL       WM_GetDialogItem
00010e  4605              MOV      r5,r0                 ;1406
000110  ee180a10          VMOV     r0,s16                ;1407
000114  f7fffffe          BL       __aeabi_f2d
000118  ec410b10          VMOV     d0,r0,r1              ;1407
00011c  a17b              ADR      r1,|L2.780|
00011e  ec532b10          VMOV     r2,r3,d0              ;1407
000122  e002              B        |L2.298|
                  |L2.292|
000124  e00a              B        |L2.316|
                  |L2.294|
000126  e05c              B        |L2.482|
                  |L2.296|
000128  e0ac              B        |L2.644|
                  |L2.298|
00012a  a801              ADD      r0,sp,#4              ;1407
00012c  f7fffffe          BL       __2sprintf
000130  a901              ADD      r1,sp,#4              ;1408
000132  4628              MOV      r0,r5                 ;1408
000134  f7fffffe          BL       TEXT_SetText
000138  7366              STRB     r6,[r4,#0xd]          ;1409
                  |L2.314|
00013a  e7a5              B        |L2.136|
                  |L2.316|
00013c  7ba1              LDRB     r1,[r4,#0xe]          ;1422  ; cur_step
00013e  f44f6307          MOV      r3,#0x870             ;1425
000142  1d1f              ADDS     r7,r3,#4              ;1427
000144  2902              CMP      r1,#2                 ;1422
000146  d027              BEQ      |L2.408|
000148  7ba1              LDRB     r1,[r4,#0xe]          ;1432  ; cur_step
00014a  2901              CMP      r1,#1                 ;1432
00014c  d19c              BNE      |L2.136|
00014e  f8d21088          LDR      r1,[r2,#0x88]         ;1433  ; Run_Control
000152  ee001a10          VMOV     s0,r1                 ;1433
000156  eeb80a40          VCVT.F32.U32 s0,s0                 ;1433
00015a  ee808a20          VDIV.F32 s16,s0,s1             ;1433
00015e  4619              MOV      r1,r3                 ;1434
000160  f7fffffe          BL       WM_GetDialogItem
000164  a16f              ADR      r1,|L2.804|
000166  f7fffffe          BL       TEXT_SetText
00016a  4639              MOV      r1,r7                 ;1436
00016c  69a0              LDR      r0,[r4,#0x18]         ;1436  ; hWincdc
00016e  f7fffffe          BL       WM_GetDialogItem
000172  4605              MOV      r5,r0                 ;1436
000174  ee180a10          VMOV     r0,s16                ;1437
000178  f7fffffe          BL       __aeabi_f2d
00017c  ec410b10          VMOV     d0,r0,r1              ;1437
000180  a15c              ADR      r1,|L2.756|
000182  ec532b10          VMOV     r2,r3,d0              ;1437
000186  a801              ADD      r0,sp,#4              ;1437
000188  f7fffffe          BL       __2sprintf
00018c  a901              ADD      r1,sp,#4              ;1438
00018e  4628              MOV      r0,r5                 ;1438
000190  f7fffffe          BL       TEXT_SetText
000194  73a6              STRB     r6,[r4,#0xe]          ;1439
000196  e777              B        |L2.136|
                  |L2.408|
000198  f8d2108c          LDR      r1,[r2,#0x8c]         ;1424  ; Run_Control
00019c  ee001a10          VMOV     s0,r1                 ;1424
0001a0  eeb80a40          VCVT.F32.U32 s0,s0                 ;1424
0001a4  ee808a20          VDIV.F32 s16,s0,s1             ;1424
0001a8  4619              MOV      r1,r3                 ;1425
0001aa  f7fffffe          BL       WM_GetDialogItem
0001ae  a161              ADR      r1,|L2.820|
0001b0  f7fffffe          BL       TEXT_SetText
0001b4  4639              MOV      r1,r7                 ;1427
0001b6  69a0              LDR      r0,[r4,#0x18]         ;1427  ; hWincdc
0001b8  f7fffffe          BL       WM_GetDialogItem
0001bc  4606              MOV      r6,r0                 ;1427
0001be  ee180a10          VMOV     r0,s16                ;1428
0001c2  f7fffffe          BL       __aeabi_f2d
0001c6  ec410b10          VMOV     d0,r0,r1              ;1428
0001ca  a14a              ADR      r1,|L2.756|
0001cc  ec532b10          VMOV     r2,r3,d0              ;1428
0001d0  a801              ADD      r0,sp,#4              ;1428
0001d2  f7fffffe          BL       __2sprintf
0001d6  a901              ADD      r1,sp,#4              ;1429
0001d8  4630              MOV      r0,r6                 ;1429
0001da  f7fffffe          BL       TEXT_SetText
0001de  73a5              STRB     r5,[r4,#0xe]          ;1431
0001e0  e752              B        |L2.136|
                  |L2.482|
0001e2  7be1              LDRB     r1,[r4,#0xf]          ;1445  ; coffv_step
0001e4  f6400377          MOV      r3,#0x877             ;1448
0001e8  1d1f              ADDS     r7,r3,#4              ;1450
0001ea  2902              CMP      r1,#2                 ;1445
0001ec  d026              BEQ      |L2.572|
0001ee  7be1              LDRB     r1,[r4,#0xf]          ;1454  ; coffv_step
0001f0  2901              CMP      r1,#1                 ;1454
0001f2  d1a2              BNE      |L2.314|
0001f4  8811              LDRH     r1,[r2,#0]            ;1455  ; coff
0001f6  ee001a90          VMOV     s1,r1                 ;1455
0001fa  eef80a60          VCVT.F32.U32 s1,s1                 ;1455
0001fe  ee808a80          VDIV.F32 s16,s1,s0             ;1455
000202  4619              MOV      r1,r3                 ;1456
000204  f7fffffe          BL       WM_GetDialogItem
000208  a14e              ADR      r1,|L2.836|
00020a  f7fffffe          BL       TEXT_SetText
00020e  4639              MOV      r1,r7                 ;1458
000210  69a0              LDR      r0,[r4,#0x18]         ;1458  ; hWincdc
000212  f7fffffe          BL       WM_GetDialogItem
000216  4605              MOV      r5,r0                 ;1458
000218  ee180a10          VMOV     r0,s16                ;1459
00021c  f7fffffe          BL       __aeabi_f2d
000220  ec410b10          VMOV     d0,r0,r1              ;1459
000224  a139              ADR      r1,|L2.780|
000226  ec532b10          VMOV     r2,r3,d0              ;1459
00022a  a801              ADD      r0,sp,#4              ;1459
00022c  f7fffffe          BL       __2sprintf
000230  a901              ADD      r1,sp,#4              ;1460
000232  4628              MOV      r0,r5                 ;1460
000234  f7fffffe          BL       TEXT_SetText
000238  73e6              STRB     r6,[r4,#0xf]          ;1461
00023a  e725              B        |L2.136|
                  |L2.572|
00023c  8851              LDRH     r1,[r2,#2]            ;1447  ; coff
00023e  ee001a90          VMOV     s1,r1                 ;1447
000242  eef80a60          VCVT.F32.U32 s1,s1                 ;1447
000246  ee808a80          VDIV.F32 s16,s1,s0             ;1447
00024a  4619              MOV      r1,r3                 ;1448
00024c  f7fffffe          BL       WM_GetDialogItem
000250  a140              ADR      r1,|L2.852|
000252  f7fffffe          BL       TEXT_SetText
000256  4639              MOV      r1,r7                 ;1450
000258  69a0              LDR      r0,[r4,#0x18]         ;1450  ; hWincdc
00025a  f7fffffe          BL       WM_GetDialogItem
00025e  4606              MOV      r6,r0                 ;1450
000260  ee180a10          VMOV     r0,s16                ;1451
000264  f7fffffe          BL       __aeabi_f2d
000268  ec410b10          VMOV     d0,r0,r1              ;1451
00026c  a127              ADR      r1,|L2.780|
00026e  ec532b10          VMOV     r2,r3,d0              ;1451
000272  a801              ADD      r0,sp,#4              ;1451
000274  f7fffffe          BL       __2sprintf
000278  a901              ADD      r1,sp,#4              ;1452
00027a  4630              MOV      r0,r6                 ;1452
00027c  f7fffffe          BL       TEXT_SetText
000280  73e5              STRB     r5,[r4,#0xf]          ;1453
000282  e701              B        |L2.136|
                  |L2.644|
000284  8911              LDRH     r1,[r2,#8]            ;1469  ; coff
000286  ee001a10          VMOV     s0,r1                 ;1469
00028a  eeb80a40          VCVT.F32.U32 s0,s0                 ;1469
00028e  ee808a20          VDIV.F32 s16,s0,s1             ;1469
000292  4619              MOV      r1,r3                 ;1470
000294  f7fffffe          BL       WM_GetDialogItem
000298  a132              ADR      r1,|L2.868|
00029a  f7fffffe          BL       TEXT_SetText
00029e  4639              MOV      r1,r7                 ;1472
0002a0  69a0              LDR      r0,[r4,#0x18]         ;1472  ; hWincdc
0002a2  f7fffffe          BL       WM_GetDialogItem
0002a6  4606              MOV      r6,r0                 ;1472
0002a8  ee180a10          VMOV     r0,s16                ;1473
0002ac  f7fffffe          BL       __aeabi_f2d
0002b0  ec410b10          VMOV     d0,r0,r1              ;1473
0002b4  a10f              ADR      r1,|L2.756|
0002b6  ec532b10          VMOV     r2,r3,d0              ;1473
0002ba  a801              ADD      r0,sp,#4              ;1473
0002bc  f7fffffe          BL       __2sprintf
0002c0  a901              ADD      r1,sp,#4              ;1474
0002c2  4630              MOV      r0,r6                 ;1474
0002c4  f7fffffe          BL       TEXT_SetText
0002c8  7425              STRB     r5,[r4,#0x10]         ;1475
0002ca  e6dd              B        |L2.136|
;;;1488   
                          ENDP

                  |L2.716|
                          DCD      set_sw
                  |L2.720|
                          DCD      Run_Control
                  |L2.724|
0002d4  42c80000          DCFS     0x42c80000 ; 100
                  |L2.728|
                          DCD      ||.data||
                  |L2.732|
0002dc  447a0000          DCFS     0x447a0000 ; 1000
                  |L2.736|
                          DCD      ||.bss||
                  |L2.740|
0002e4  e688aae6          DCB      230,136,170,230,173,162,231,148,181,230,181,129,"1",0
0002e8  ada2e794
0002ec  b5e6b581
0002f0  3100    
0002f2  00                DCB      0
0002f3  00                DCB      0
                  |L2.756|
0002f4  252e3366          DCB      "%.3f",0
0002f8  00      
0002f9  00                DCB      0
0002fa  00                DCB      0
0002fb  00                DCB      0
                  |L2.764|
0002fc  e8be93e5          DCB      232,190,147,229,135,186,231,148,181,229,142,139,"2",0
000300  87bae794
000304  b5e58e8b
000308  3200    
00030a  00                DCB      0
00030b  00                DCB      0
                  |L2.780|
00030c  252e3266          DCB      "%.2f",0
000310  00      
000311  00                DCB      0
000312  00                DCB      0
000313  00                DCB      0
                  |L2.788|
000314  e8be93e5          DCB      232,190,147,229,135,186,231,148,181,229,142,139,"1",0
000318  87bae794
00031c  b5e58e8b
000320  3100    
000322  00                DCB      0
000323  00                DCB      0
                  |L2.804|
000324  e99990e5          DCB      233,153,144,229,136,182,231,148,181,230,181,129,"1",0
000328  88b6e794
00032c  b5e6b581
000330  3100    
000332  00                DCB      0
000333  00                DCB      0
                  |L2.820|
000334  e99990e5          DCB      233,153,144,229,136,182,231,148,181,230,181,129,"2",0
000338  88b6e794
00033c  b5e6b581
000340  3200    
000342  00                DCB      0
000343  00                DCB      0
                  |L2.836|
000344  e688aae6          DCB      230,136,170,230,173,162,231,148,181,229,142,139,"1",0
000348  ada2e794
00034c  b5e58e8b
000350  3100    
000352  00                DCB      0
000353  00                DCB      0
                  |L2.852|
000354  e688aae6          DCB      230,136,170,230,173,162,231,148,181,229,142,139,"2",0
000358  ada2e794
00035c  b5e58e8b
000360  3200    
000362  00                DCB      0
000363  00                DCB      0
                  |L2.868|
000364  e688aae6          DCB      230,136,170,230,173,162,231,148,181,230,181,129,"2",0
000368  ada2e794
00036c  b5e6b581
000370  3200    
000372  00                DCB      0
000373  00                DCB      0

                          AREA ||i.CDC_OP_RIGHT||, CODE, READONLY, ALIGN=2

                          REQUIRE _printf_percent
                          REQUIRE _printf_widthprec
                          REQUIRE _printf_f
                          REQUIRE _printf_fp_dec
                  CDC_OP_RIGHT PROC
;;;1489   
;;;1490   void CDC_OP_RIGHT(void)
000000  b5f0              PUSH     {r4-r7,lr}
;;;1491   {
000002  ed2d8b02          VPUSH    {d8}
000006  b083              SUB      sp,sp,#0xc
;;;1492       float buffer;
;;;1493       char buf[5];
;;;1494       WM_HWIN hItem;
;;;1495       switch(set_sw)
000008  48af              LDR      r0,|L3.712|
00000a  7801              LDRB     r1,[r0,#0]  ; set_sw
;;;1496       {
;;;1497           case set_26:
;;;1498           {
;;;1499               
;;;1500               if(pow_step == step1)
;;;1501               {
;;;1502                   buffer = (float)opv2/100;
00000c  4aaf              LDR      r2,|L3.716|
00000e  ed9f0ab0          VLDR     s0,|L3.720|
000012  4cb0              LDR      r4,|L3.724|
;;;1503                   hItem = WM_GetDialogItem(hWincdc, ID_TEXT_50);
;;;1504                   TEXT_SetText(hItem,"输出电压2");
;;;1505                   hItem = WM_GetDialogItem(hWincdc, ID_TEXT_54);
;;;1506                   sprintf(buf,"%.2f",buffer);
;;;1507                   TEXT_SetText(hItem,buf);
;;;1508                   pow_step = step2;
000014  2501              MOVS     r5,#1
;;;1509               }else if(pow_step == step2){
;;;1510                   buffer = (float)opv3/100;
;;;1511                   hItem = WM_GetDialogItem(hWincdc, ID_TEXT_50);
;;;1512                   TEXT_SetText(hItem,"输出电压3");
;;;1513                   hItem = WM_GetDialogItem(hWincdc, ID_TEXT_54);
;;;1514                   sprintf(buf,"%.2f",buffer);
;;;1515                   TEXT_SetText(hItem,buf);
;;;1516                   pow_step = step3;
000016  2602              MOVS     r6,#2
000018  69a0              LDR      r0,[r4,#0x18]         ;1495
00001a  2919              CMP      r1,#0x19              ;1495
00001c  d038              BEQ      |L3.144|
;;;1517               }
;;;1518           }break;
;;;1519           case set_27:
;;;1520           {
;;;1521               
;;;1522               if(cur_step == step1)
;;;1523               {
;;;1524                   buffer = (float)opc2/1000;
00001e  eddf0aae          VLDR     s1,|L3.728|
000022  291a              CMP      r1,#0x1a              ;1495
000024  d07e              BEQ      |L3.292|
;;;1525                   hItem = WM_GetDialogItem(hWincdc, ID_TEXT_51);
;;;1526                   TEXT_SetText(hItem,"限制电流2");
;;;1527                   hItem = WM_GetDialogItem(hWincdc, ID_TEXT_55);
;;;1528                   sprintf(buf,"%.3f",buffer);
;;;1529                   TEXT_SetText(hItem,buf);
;;;1530                   cur_step = step2;
;;;1531               }else if(cur_step == step2){
;;;1532                   buffer = (float)opc3/1000;
;;;1533                   hItem = WM_GetDialogItem(hWincdc, ID_TEXT_51);
;;;1534                   TEXT_SetText(hItem,"限制电流3");
;;;1535                   hItem = WM_GetDialogItem(hWincdc, ID_TEXT_55);
;;;1536                   sprintf(buf,"%.3f",buffer);
;;;1537                   TEXT_SetText(hItem,buf);
;;;1538                   cur_step = step3;
;;;1539               }
;;;1540           }break;
;;;1541           case set_28:
;;;1542           {
;;;1543               
;;;1544               if(coffv_step == step1)
;;;1545               {
;;;1546                   buffer = (float)cov2/100;
000026  4aad              LDR      r2,|L3.732|
000028  291b              CMP      r1,#0x1b              ;1495
00002a  d07c              BEQ      |L3.294|
00002c  291c              CMP      r1,#0x1c              ;1495
00002e  d12b              BNE      |L3.136|
;;;1547                   hItem = WM_GetDialogItem(hWincdc, ID_TEXT_58);
;;;1548                   TEXT_SetText(hItem,"截止电压2");
;;;1549                   hItem = WM_GetDialogItem(hWincdc, ID_TEXT_62);
;;;1550                   sprintf(buf,"%.2f",buffer);
;;;1551                   TEXT_SetText(hItem,buf);
;;;1552                   coffv_step = step2;
;;;1553               }else if(coffv_step == step2){
;;;1554                   buffer = (float)cov3/100;
;;;1555                   hItem = WM_GetDialogItem(hWincdc, ID_TEXT_58);
;;;1556                   TEXT_SetText(hItem,"截止电压3");
;;;1557                   hItem = WM_GetDialogItem(hWincdc, ID_TEXT_62);
;;;1558                   sprintf(buf,"%.2f",buffer);
;;;1559                   TEXT_SetText(hItem,buf);
;;;1560                   coffv_step = step3;
;;;1561               }
;;;1562           }break;
;;;1563           case set_29:
;;;1564           {
;;;1565               
;;;1566               if(coffc_step == step1)
000030  7c21              LDRB     r1,[r4,#0x10]  ; coffc_step
;;;1567               {
;;;1568                   buffer = (float)coc2/1000;
;;;1569                   hItem = WM_GetDialogItem(hWincdc, ID_TEXT_59);
000032  f6400378          MOV      r3,#0x878
;;;1570                   TEXT_SetText(hItem,"截止电流2");
;;;1571                   hItem = WM_GetDialogItem(hWincdc, ID_TEXT_63);
000036  1d1f              ADDS     r7,r3,#4
000038  2900              CMP      r1,#0                 ;1566
00003a  d075              BEQ      |L3.296|
;;;1572                   sprintf(buf,"%.3f",buffer);
;;;1573                   TEXT_SetText(hItem,buf);
;;;1574                   coffc_step = step2;
;;;1575               }else if(coffc_step == step2){
00003c  7c21              LDRB     r1,[r4,#0x10]  ; coffc_step
00003e  2901              CMP      r1,#1
000040  d122              BNE      |L3.136|
;;;1576                   buffer = (float)coc3/1000;
000042  8951              LDRH     r1,[r2,#0xa]  ; coff
000044  ee001a10          VMOV     s0,r1
000048  eeb80a40          VCVT.F32.U32 s0,s0
00004c  ee808a20          VDIV.F32 s16,s0,s1
;;;1577                   hItem = WM_GetDialogItem(hWincdc, ID_TEXT_59);
000050  4619              MOV      r1,r3
000052  f7fffffe          BL       WM_GetDialogItem
;;;1578                   TEXT_SetText(hItem,"截止电流3");
000056  a1a2              ADR      r1,|L3.736|
000058  f7fffffe          BL       TEXT_SetText
;;;1579                   hItem = WM_GetDialogItem(hWincdc, ID_TEXT_63);
00005c  4639              MOV      r1,r7
00005e  69a0              LDR      r0,[r4,#0x18]  ; hWincdc
000060  f7fffffe          BL       WM_GetDialogItem
000064  4605              MOV      r5,r0
;;;1580                   sprintf(buf,"%.3f",buffer);
000066  ee180a10          VMOV     r0,s16
00006a  f7fffffe          BL       __aeabi_f2d
00006e  ec410b10          VMOV     d0,r0,r1
000072  a19f              ADR      r1,|L3.752|
000074  ec532b10          VMOV     r2,r3,d0
000078  a801              ADD      r0,sp,#4
00007a  f7fffffe          BL       __2sprintf
;;;1581                   TEXT_SetText(hItem,buf);
00007e  a901              ADD      r1,sp,#4
000080  4628              MOV      r0,r5
000082  f7fffffe          BL       TEXT_SetText
;;;1582                   coffc_step = step3;
000086  7426              STRB     r6,[r4,#0x10]
                  |L3.136|
;;;1583               }
;;;1584           }break;
;;;1585       }
;;;1586   }
000088  b003              ADD      sp,sp,#0xc
00008a  ecbd8b02          VPOP     {d8}
00008e  bdf0              POP      {r4-r7,pc}
                  |L3.144|
000090  7b61              LDRB     r1,[r4,#0xd]          ;1500  ; pow_step
000092  f640036f          MOV      r3,#0x86f             ;1503
000096  1d1f              ADDS     r7,r3,#4              ;1505
000098  b339              CBZ      r1,|L3.234|
00009a  7b61              LDRB     r1,[r4,#0xd]          ;1509  ; pow_step
00009c  2901              CMP      r1,#1                 ;1509
00009e  d1f3              BNE      |L3.136|
0000a0  f8d21084          LDR      r1,[r2,#0x84]         ;1510  ; Run_Control
0000a4  ee001a90          VMOV     s1,r1                 ;1510
0000a8  eef80a60          VCVT.F32.U32 s1,s1                 ;1510
0000ac  ee808a80          VDIV.F32 s16,s1,s0             ;1510
0000b0  4619              MOV      r1,r3                 ;1511
0000b2  f7fffffe          BL       WM_GetDialogItem
0000b6  a190              ADR      r1,|L3.760|
0000b8  f7fffffe          BL       TEXT_SetText
0000bc  4639              MOV      r1,r7                 ;1513
0000be  69a0              LDR      r0,[r4,#0x18]         ;1513  ; hWincdc
0000c0  f7fffffe          BL       WM_GetDialogItem
0000c4  4605              MOV      r5,r0                 ;1513
0000c6  ee180a10          VMOV     r0,s16                ;1514
0000ca  f7fffffe          BL       __aeabi_f2d
0000ce  ec410b10          VMOV     d0,r0,r1              ;1514
0000d2  a18d              ADR      r1,|L3.776|
0000d4  ec532b10          VMOV     r2,r3,d0              ;1514
0000d8  a801              ADD      r0,sp,#4              ;1514
0000da  f7fffffe          BL       __2sprintf
0000de  a901              ADD      r1,sp,#4              ;1515
0000e0  4628              MOV      r0,r5                 ;1515
0000e2  f7fffffe          BL       TEXT_SetText
0000e6  7366              STRB     r6,[r4,#0xd]          ;1516
0000e8  e7ce              B        |L3.136|
                  |L3.234|
0000ea  f8d21080          LDR      r1,[r2,#0x80]         ;1502  ; Run_Control
0000ee  ee001a90          VMOV     s1,r1                 ;1502
0000f2  eef80a60          VCVT.F32.U32 s1,s1                 ;1502
0000f6  ee808a80          VDIV.F32 s16,s1,s0             ;1502
0000fa  4619              MOV      r1,r3                 ;1503
0000fc  f7fffffe          BL       WM_GetDialogItem
000100  a183              ADR      r1,|L3.784|
000102  f7fffffe          BL       TEXT_SetText
000106  4639              MOV      r1,r7                 ;1505
000108  69a0              LDR      r0,[r4,#0x18]         ;1505  ; hWincdc
00010a  f7fffffe          BL       WM_GetDialogItem
00010e  4606              MOV      r6,r0                 ;1505
000110  ee180a10          VMOV     r0,s16                ;1506
000114  f7fffffe          BL       __aeabi_f2d
000118  ec410b10          VMOV     d0,r0,r1              ;1506
00011c  a17a              ADR      r1,|L3.776|
00011e  ec532b10          VMOV     r2,r3,d0              ;1506
000122  e002              B        |L3.298|
                  |L3.292|
000124  e00a              B        |L3.316|
                  |L3.294|
000126  e05b              B        |L3.480|
                  |L3.296|
000128  e0aa              B        |L3.640|
                  |L3.298|
00012a  a801              ADD      r0,sp,#4              ;1506
00012c  f7fffffe          BL       __2sprintf
000130  a901              ADD      r1,sp,#4              ;1507
000132  4630              MOV      r0,r6                 ;1507
000134  f7fffffe          BL       TEXT_SetText
000138  7365              STRB     r5,[r4,#0xd]          ;1508
                  |L3.314|
00013a  e7a5              B        |L3.136|
                  |L3.316|
00013c  7ba1              LDRB     r1,[r4,#0xe]          ;1522  ; cur_step
00013e  f44f6307          MOV      r3,#0x870             ;1525
000142  1d1f              ADDS     r7,r3,#4              ;1527
000144  b339              CBZ      r1,|L3.406|
000146  7ba1              LDRB     r1,[r4,#0xe]          ;1531  ; cur_step
000148  2901              CMP      r1,#1                 ;1531
00014a  d19d              BNE      |L3.136|
00014c  f8d21090          LDR      r1,[r2,#0x90]         ;1532  ; Run_Control
000150  ee001a10          VMOV     s0,r1                 ;1532
000154  eeb80a40          VCVT.F32.U32 s0,s0                 ;1532
000158  ee808a20          VDIV.F32 s16,s0,s1             ;1532
00015c  4619              MOV      r1,r3                 ;1533
00015e  f7fffffe          BL       WM_GetDialogItem
000162  a16f              ADR      r1,|L3.800|
000164  f7fffffe          BL       TEXT_SetText
000168  4639              MOV      r1,r7                 ;1535
00016a  69a0              LDR      r0,[r4,#0x18]         ;1535  ; hWincdc
00016c  f7fffffe          BL       WM_GetDialogItem
000170  4605              MOV      r5,r0                 ;1535
000172  ee180a10          VMOV     r0,s16                ;1536
000176  f7fffffe          BL       __aeabi_f2d
00017a  ec410b10          VMOV     d0,r0,r1              ;1536
00017e  a15c              ADR      r1,|L3.752|
000180  ec532b10          VMOV     r2,r3,d0              ;1536
000184  a801              ADD      r0,sp,#4              ;1536
000186  f7fffffe          BL       __2sprintf
00018a  a901              ADD      r1,sp,#4              ;1537
00018c  4628              MOV      r0,r5                 ;1537
00018e  f7fffffe          BL       TEXT_SetText
000192  73a6              STRB     r6,[r4,#0xe]          ;1538
000194  e778              B        |L3.136|
                  |L3.406|
000196  f8d2108c          LDR      r1,[r2,#0x8c]         ;1524  ; Run_Control
00019a  ee001a10          VMOV     s0,r1                 ;1524
00019e  eeb80a40          VCVT.F32.U32 s0,s0                 ;1524
0001a2  ee808a20          VDIV.F32 s16,s0,s1             ;1524
0001a6  4619              MOV      r1,r3                 ;1525
0001a8  f7fffffe          BL       WM_GetDialogItem
0001ac  a160              ADR      r1,|L3.816|
0001ae  f7fffffe          BL       TEXT_SetText
0001b2  4639              MOV      r1,r7                 ;1527
0001b4  69a0              LDR      r0,[r4,#0x18]         ;1527  ; hWincdc
0001b6  f7fffffe          BL       WM_GetDialogItem
0001ba  4606              MOV      r6,r0                 ;1527
0001bc  ee180a10          VMOV     r0,s16                ;1528
0001c0  f7fffffe          BL       __aeabi_f2d
0001c4  ec410b10          VMOV     d0,r0,r1              ;1528
0001c8  a149              ADR      r1,|L3.752|
0001ca  ec532b10          VMOV     r2,r3,d0              ;1528
0001ce  a801              ADD      r0,sp,#4              ;1528
0001d0  f7fffffe          BL       __2sprintf
0001d4  a901              ADD      r1,sp,#4              ;1529
0001d6  4630              MOV      r0,r6                 ;1529
0001d8  f7fffffe          BL       TEXT_SetText
0001dc  73a5              STRB     r5,[r4,#0xe]          ;1530
0001de  e753              B        |L3.136|
                  |L3.480|
0001e0  7be1              LDRB     r1,[r4,#0xf]          ;1544  ; coffv_step
0001e2  f6400377          MOV      r3,#0x877             ;1547
0001e6  1d1f              ADDS     r7,r3,#4              ;1549
0001e8  b331              CBZ      r1,|L3.568|
0001ea  7be1              LDRB     r1,[r4,#0xf]          ;1553  ; coffv_step
0001ec  2901              CMP      r1,#1                 ;1553
0001ee  d1a4              BNE      |L3.314|
0001f0  8891              LDRH     r1,[r2,#4]            ;1554  ; coff
0001f2  ee001a90          VMOV     s1,r1                 ;1554
0001f6  eef80a60          VCVT.F32.U32 s1,s1                 ;1554
0001fa  ee808a80          VDIV.F32 s16,s1,s0             ;1554
0001fe  4619              MOV      r1,r3                 ;1555
000200  f7fffffe          BL       WM_GetDialogItem
000204  a14e              ADR      r1,|L3.832|
000206  f7fffffe          BL       TEXT_SetText
00020a  4639              MOV      r1,r7                 ;1557
00020c  69a0              LDR      r0,[r4,#0x18]         ;1557  ; hWincdc
00020e  f7fffffe          BL       WM_GetDialogItem
000212  4605              MOV      r5,r0                 ;1557
000214  ee180a10          VMOV     r0,s16                ;1558
000218  f7fffffe          BL       __aeabi_f2d
00021c  ec410b10          VMOV     d0,r0,r1              ;1558
000220  a139              ADR      r1,|L3.776|
000222  ec532b10          VMOV     r2,r3,d0              ;1558
000226  a801              ADD      r0,sp,#4              ;1558
000228  f7fffffe          BL       __2sprintf
00022c  a901              ADD      r1,sp,#4              ;1559
00022e  4628              MOV      r0,r5                 ;1559
000230  f7fffffe          BL       TEXT_SetText
000234  73e6              STRB     r6,[r4,#0xf]          ;1560
000236  e727              B        |L3.136|
                  |L3.568|
000238  8851              LDRH     r1,[r2,#2]            ;1546  ; coff
00023a  ee001a90          VMOV     s1,r1                 ;1546
00023e  eef80a60          VCVT.F32.U32 s1,s1                 ;1546
000242  ee808a80          VDIV.F32 s16,s1,s0             ;1546
000246  4619              MOV      r1,r3                 ;1547
000248  f7fffffe          BL       WM_GetDialogItem
00024c  a140              ADR      r1,|L3.848|
00024e  f7fffffe          BL       TEXT_SetText
000252  4639              MOV      r1,r7                 ;1549
000254  69a0              LDR      r0,[r4,#0x18]         ;1549  ; hWincdc
000256  f7fffffe          BL       WM_GetDialogItem
00025a  4606              MOV      r6,r0                 ;1549
00025c  ee180a10          VMOV     r0,s16                ;1550
000260  f7fffffe          BL       __aeabi_f2d
000264  ec410b10          VMOV     d0,r0,r1              ;1550
000268  a127              ADR      r1,|L3.776|
00026a  ec532b10          VMOV     r2,r3,d0              ;1550
00026e  a801              ADD      r0,sp,#4              ;1550
000270  f7fffffe          BL       __2sprintf
000274  a901              ADD      r1,sp,#4              ;1551
000276  4630              MOV      r0,r6                 ;1551
000278  f7fffffe          BL       TEXT_SetText
00027c  73e5              STRB     r5,[r4,#0xf]          ;1552
00027e  e703              B        |L3.136|
                  |L3.640|
000280  8911              LDRH     r1,[r2,#8]            ;1568  ; coff
000282  ee001a10          VMOV     s0,r1                 ;1568
000286  eeb80a40          VCVT.F32.U32 s0,s0                 ;1568
00028a  ee808a20          VDIV.F32 s16,s0,s1             ;1568
00028e  4619              MOV      r1,r3                 ;1569
000290  f7fffffe          BL       WM_GetDialogItem
000294  a132              ADR      r1,|L3.864|
000296  f7fffffe          BL       TEXT_SetText
00029a  4639              MOV      r1,r7                 ;1571
00029c  69a0              LDR      r0,[r4,#0x18]         ;1571  ; hWincdc
00029e  f7fffffe          BL       WM_GetDialogItem
0002a2  4606              MOV      r6,r0                 ;1571
0002a4  ee180a10          VMOV     r0,s16                ;1572
0002a8  f7fffffe          BL       __aeabi_f2d
0002ac  ec410b10          VMOV     d0,r0,r1              ;1572
0002b0  a10f              ADR      r1,|L3.752|
0002b2  ec532b10          VMOV     r2,r3,d0              ;1572
0002b6  a801              ADD      r0,sp,#4              ;1572
0002b8  f7fffffe          BL       __2sprintf
0002bc  a901              ADD      r1,sp,#4              ;1573
0002be  4630              MOV      r0,r6                 ;1573
0002c0  f7fffffe          BL       TEXT_SetText
0002c4  7425              STRB     r5,[r4,#0x10]         ;1574
0002c6  e6df              B        |L3.136|
;;;1587   
                          ENDP

                  |L3.712|
                          DCD      set_sw
                  |L3.716|
                          DCD      Run_Control
                  |L3.720|
0002d0  42c80000          DCFS     0x42c80000 ; 100
                  |L3.724|
                          DCD      ||.data||
                  |L3.728|
0002d8  447a0000          DCFS     0x447a0000 ; 1000
                  |L3.732|
                          DCD      ||.bss||
                  |L3.736|
0002e0  e688aae6          DCB      230,136,170,230,173,162,231,148,181,230,181,129,"3",0
0002e4  ada2e794
0002e8  b5e6b581
0002ec  3300    
0002ee  00                DCB      0
0002ef  00                DCB      0
                  |L3.752|
0002f0  252e3366          DCB      "%.3f",0
0002f4  00      
0002f5  00                DCB      0
0002f6  00                DCB      0
0002f7  00                DCB      0
                  |L3.760|
0002f8  e8be93e5          DCB      232,190,147,229,135,186,231,148,181,229,142,139,"3",0
0002fc  87bae794
000300  b5e58e8b
000304  3300    
000306  00                DCB      0
000307  00                DCB      0
                  |L3.776|
000308  252e3266          DCB      "%.2f",0
00030c  00      
00030d  00                DCB      0
00030e  00                DCB      0
00030f  00                DCB      0
                  |L3.784|
000310  e8be93e5          DCB      232,190,147,229,135,186,231,148,181,229,142,139,"2",0
000314  87bae794
000318  b5e58e8b
00031c  3200    
00031e  00                DCB      0
00031f  00                DCB      0
                  |L3.800|
000320  e99990e5          DCB      233,153,144,229,136,182,231,148,181,230,181,129,"3",0
000324  88b6e794
000328  b5e6b581
00032c  3300    
00032e  00                DCB      0
00032f  00                DCB      0
                  |L3.816|
000330  e99990e5          DCB      233,153,144,229,136,182,231,148,181,230,181,129,"2",0
000334  88b6e794
000338  b5e6b581
00033c  3200    
00033e  00                DCB      0
00033f  00                DCB      0
                  |L3.832|
000340  e688aae6          DCB      230,136,170,230,173,162,231,148,181,229,142,139,"3",0
000344  ada2e794
000348  b5e58e8b
00034c  3300    
00034e  00                DCB      0
00034f  00                DCB      0
                  |L3.848|
000350  e688aae6          DCB      230,136,170,230,173,162,231,148,181,229,142,139,"2",0
000354  ada2e794
000358  b5e58e8b
00035c  3200    
00035e  00                DCB      0
00035f  00                DCB      0
                  |L3.864|
000360  e688aae6          DCB      230,136,170,230,173,162,231,148,181,230,181,129,"2",0
000364  ada2e794
000368  b5e6b581
00036c  3200    
00036e  00                DCB      0
00036f  00                DCB      0

                          AREA ||i.CDC_OP_UP||, CODE, READONLY, ALIGN=2

                  CDC_OP_UP PROC
;;;1263   
;;;1264   void CDC_OP_UP(void)
000000  e92d5ff0          PUSH     {r4-r12,lr}
;;;1265   {
;;;1266       switch(set_sw)
000004  4c7b              LDR      r4,|L4.500|
000006  7821              LDRB     r1,[r4,#0]  ; set_sw
;;;1267       {
;;;1268           case set_26:
;;;1269           {
;;;1270               WM_HWIN hItem;
;;;1271   //            WM_InvalidateWindow(hWincdc);
;;;1272               hItem = WM_GetDialogItem(hWincdc, ID_TEXT_50);
000008  487b              LDR      r0,|L4.504|
00000a  f640056f          MOV      r5,#0x86f
;;;1273               TEXT_SetBkColor(hItem,GUI_INVALID_COLOR);//选项背景色设为透明
;;;1274               TEXT_SetTextColor(hItem, GUI_WHITE);
;;;1275                  
;;;1276               hItem = WM_GetDialogItem(hWincdc, ID_TEXT_53);
;;;1277               TEXT_SetBkColor(hItem,0x00BFFFFF);//选项背景色设为米色
;;;1278               TEXT_SetTextColor(hItem, GUI_BLACK);
;;;1279   
;;;1280               set_sw = set_37;
;;;1281               break;
;;;1282           }
;;;1283           case set_27:
;;;1284           {
;;;1285               WM_HWIN hItem;
;;;1286   //            WM_InvalidateWindow(hWincdc);
;;;1287               hItem = WM_GetDialogItem(hWincdc, ID_TEXT_51);
00000e  1c6e              ADDS     r6,r5,#1
000010  3919              SUBS     r1,r1,#0x19           ;1266
;;;1288               TEXT_SetBkColor(hItem,GUI_INVALID_COLOR);//选项背景色设为透明
;;;1289               TEXT_SetTextColor(hItem, GUI_WHITE);
;;;1290                  
;;;1291               hItem = WM_GetDialogItem(hWincdc, ID_TEXT_50);
;;;1292               TEXT_SetBkColor(hItem,0x00BFFFFF);//选项背景色设为米色
;;;1293               TEXT_SetTextColor(hItem, GUI_BLACK);
;;;1294   
;;;1295               set_sw = set_26;
;;;1296               break;
;;;1297           }
;;;1298           case set_28:
;;;1299           {
;;;1300               WM_HWIN hItem;
;;;1301   //            WM_InvalidateWindow(hWincdc);
;;;1302               hItem = WM_GetDialogItem(hWincdc, ID_TEXT_58);
000012  1df7              ADDS     r7,r6,#7
000014  6982              LDR      r2,[r0,#0x18]         ;1266
000016  f06f4b70          MVN      r11,#0xf0000000       ;1273
;;;1303               TEXT_SetBkColor(hItem,GUI_INVALID_COLOR);//选项背景色设为透明
;;;1304               TEXT_SetTextColor(hItem, GUI_WHITE);
;;;1305                  
;;;1306               hItem = WM_GetDialogItem(hWincdc, ID_TEXT_51);
;;;1307               TEXT_SetBkColor(hItem,0x00BFFFFF);//选项背景色设为米色
;;;1308               TEXT_SetTextColor(hItem, GUI_BLACK);
;;;1309   
;;;1310               set_sw = set_27;
;;;1311               break;
;;;1312           }
;;;1313           case set_29:
;;;1314           {
;;;1315               WM_HWIN hItem;
;;;1316   //            WM_InvalidateWindow(hWincdc);
;;;1317               hItem = WM_GetDialogItem(hWincdc, ID_TEXT_59);
00001a  f6400878          MOV      r8,#0x878
;;;1318               TEXT_SetBkColor(hItem,GUI_INVALID_COLOR);//选项背景色设为透明
;;;1319               TEXT_SetTextColor(hItem, GUI_WHITE);
;;;1320                  
;;;1321               hItem = WM_GetDialogItem(hWincdc, ID_TEXT_58);
;;;1322               TEXT_SetBkColor(hItem,0x00BFFFFF);//选项背景色设为米色
;;;1323               TEXT_SetTextColor(hItem, GUI_BLACK);
;;;1324   
;;;1325               set_sw = set_28;
;;;1326               break;
;;;1327           }
;;;1328           case set_34:
;;;1329           {
;;;1330               WM_HWIN hItem;
;;;1331   //            WM_InvalidateWindow(hWincdc);
;;;1332               hItem = WM_GetDialogItem(hWincdc, ID_TEXT_52);
00001e  f6400971          MOV      r9,#0x871
;;;1333               TEXT_SetBkColor(hItem,GUI_INVALID_COLOR);//选项背景色设为透明
;;;1334               TEXT_SetTextColor(hItem, GUI_WHITE);
;;;1335                  
;;;1336               hItem = WM_GetDialogItem(hWincdc, ID_TEXT_59);
;;;1337               TEXT_SetBkColor(hItem,0x00BFFFFF);//选项背景色设为米色
;;;1338               TEXT_SetTextColor(hItem, GUI_BLACK);
;;;1339   
;;;1340               set_sw = set_29;
;;;1341               break;
;;;1342           }
;;;1343           case set_35:
;;;1344           {
;;;1345               WM_HWIN hItem;
;;;1346   //            WM_InvalidateWindow(hWincdc);
;;;1347               hItem = WM_GetDialogItem(hWincdc, ID_TEXT_60);
000022  f6400a79          MOV      r10,#0x879
000026  290c              CMP      r1,#0xc               ;1266
000028  d226              BCS      |L4.120|
00002a  e8dff001          TBB      [pc,r1]               ;1266
00002e  0627              DCB      0x06,0x27
000030  46652525          DCB      0x46,0x65,0x25,0x25
000034  252584a3          DCB      0x25,0x25,0x84,0xa3
000038  25c2              DCB      0x25,0xc2
00003a  4629              MOV      r1,r5                 ;1272
00003c  4605              MOV      r5,r0                 ;1272
00003e  4610              MOV      r0,r2                 ;1272
000040  f7fffffe          BL       WM_GetDialogItem
000044  4606              MOV      r6,r0                 ;1272
000046  4659              MOV      r1,r11                ;1273
000048  4630              MOV      r0,r6                 ;1273
00004a  f7fffffe          BL       TEXT_SetBkColor
00004e  f06f417f          MVN      r1,#0xff000000        ;1274
000052  4630              MOV      r0,r6                 ;1274
000054  f7fffffe          BL       TEXT_SetTextColor
000058  f6400172          MOV      r1,#0x872             ;1276
00005c  69a8              LDR      r0,[r5,#0x18]         ;1276  ; hWincdc
00005e  f7fffffe          BL       WM_GetDialogItem
000062  4605              MOV      r5,r0                 ;1276
000064  4965              LDR      r1,|L4.508|
000066  4628              MOV      r0,r5                 ;1277
000068  f7fffffe          BL       TEXT_SetBkColor
00006c  2100              MOVS     r1,#0                 ;1278
00006e  4628              MOV      r0,r5                 ;1278
000070  f7fffffe          BL       TEXT_SetTextColor
000074  2024              MOVS     r0,#0x24              ;1280
000076  7020              STRB     r0,[r4,#0]            ;1280
                  |L4.120|
;;;1348               TEXT_SetBkColor(hItem,GUI_INVALID_COLOR);//选项背景色设为透明
;;;1349               TEXT_SetTextColor(hItem, GUI_WHITE);
;;;1350                  
;;;1351               hItem = WM_GetDialogItem(hWincdc, ID_TEXT_52);
;;;1352               TEXT_SetBkColor(hItem,0x00BFFFFF);//选项背景色设为米色
;;;1353               TEXT_SetTextColor(hItem, GUI_BLACK);
;;;1354   
;;;1355               set_sw = set_34;
;;;1356               break;
;;;1357           }
;;;1358   //         case set_36:
;;;1359   //         {
;;;1360   //             WM_HWIN hItem;
;;;1361   //             WM_InvalidateWindow(hWincdc);
;;;1362   //             hItem = WM_GetDialogItem(hWincdc, ID_TEXT_61);
;;;1363   //             TEXT_SetBkColor(hItem,GUI_INVALID_COLOR);//选项背景色设为透明
;;;1364   //                
;;;1365   //             hItem = WM_GetDialogItem(hWincdc, ID_TEXT_60);
;;;1366   //             TEXT_SetBkColor(hItem,0x00BFFFFF);//选项背景色设为米色
;;;1367   
;;;1368   //             set_sw = set_35;
;;;1369   //             break;
;;;1370   //         }
;;;1371           case set_37:
;;;1372           {
;;;1373               WM_HWIN hItem;
;;;1374   //            WM_InvalidateWindow(hWincdc);
;;;1375               hItem = WM_GetDialogItem(hWincdc, ID_TEXT_53);
;;;1376               TEXT_SetBkColor(hItem,GUI_INVALID_COLOR);//选项背景色设为透明
;;;1377               TEXT_SetTextColor(hItem, GUI_WHITE);
;;;1378                  
;;;1379               hItem = WM_GetDialogItem(hWincdc, ID_TEXT_60);
;;;1380               TEXT_SetBkColor(hItem,0x00BFFFFF);//选项背景色设为米色
;;;1381               TEXT_SetTextColor(hItem, GUI_BLACK);
;;;1382   
;;;1383               set_sw = set_35;
;;;1384               break;
;;;1385           }
;;;1386           default: break;
;;;1387       }
;;;1388   }
000078  e8bd9ff0          POP      {r4-r12,pc}
00007c  4631              MOV      r1,r6                 ;1287
00007e  4606              MOV      r6,r0                 ;1287
000080  4610              MOV      r0,r2                 ;1287
000082  f7fffffe          BL       WM_GetDialogItem
000086  4607              MOV      r7,r0                 ;1287
000088  4659              MOV      r1,r11                ;1288
00008a  4638              MOV      r0,r7                 ;1288
00008c  f7fffffe          BL       TEXT_SetBkColor
000090  f06f417f          MVN      r1,#0xff000000        ;1289
000094  4638              MOV      r0,r7                 ;1289
000096  f7fffffe          BL       TEXT_SetTextColor
00009a  4629              MOV      r1,r5                 ;1291
00009c  69b0              LDR      r0,[r6,#0x18]         ;1291  ; hWincdc
00009e  f7fffffe          BL       WM_GetDialogItem
0000a2  4605              MOV      r5,r0                 ;1291
0000a4  4955              LDR      r1,|L4.508|
0000a6  4628              MOV      r0,r5                 ;1292
0000a8  f7fffffe          BL       TEXT_SetBkColor
0000ac  2100              MOVS     r1,#0                 ;1293
0000ae  4628              MOV      r0,r5                 ;1293
0000b0  f7fffffe          BL       TEXT_SetTextColor
0000b4  2019              MOVS     r0,#0x19              ;1295
0000b6  7020              STRB     r0,[r4,#0]            ;1295
0000b8  e7de              B        |L4.120|
0000ba  4605              MOV      r5,r0                 ;1302
0000bc  4639              MOV      r1,r7                 ;1302
0000be  4610              MOV      r0,r2                 ;1302
0000c0  f7fffffe          BL       WM_GetDialogItem
0000c4  4607              MOV      r7,r0                 ;1302
0000c6  4659              MOV      r1,r11                ;1303
0000c8  4638              MOV      r0,r7                 ;1303
0000ca  f7fffffe          BL       TEXT_SetBkColor
0000ce  f06f417f          MVN      r1,#0xff000000        ;1304
0000d2  4638              MOV      r0,r7                 ;1304
0000d4  f7fffffe          BL       TEXT_SetTextColor
0000d8  4631              MOV      r1,r6                 ;1306
0000da  69a8              LDR      r0,[r5,#0x18]         ;1306  ; hWincdc
0000dc  f7fffffe          BL       WM_GetDialogItem
0000e0  4605              MOV      r5,r0                 ;1306
0000e2  4946              LDR      r1,|L4.508|
0000e4  4628              MOV      r0,r5                 ;1307
0000e6  f7fffffe          BL       TEXT_SetBkColor
0000ea  2100              MOVS     r1,#0                 ;1308
0000ec  4628              MOV      r0,r5                 ;1308
0000ee  f7fffffe          BL       TEXT_SetTextColor
0000f2  201a              MOVS     r0,#0x1a              ;1310
0000f4  7020              STRB     r0,[r4,#0]            ;1310
0000f6  e7bf              B        |L4.120|
0000f8  4605              MOV      r5,r0                 ;1317
0000fa  4641              MOV      r1,r8                 ;1317
0000fc  4610              MOV      r0,r2                 ;1317
0000fe  f7fffffe          BL       WM_GetDialogItem
000102  4606              MOV      r6,r0                 ;1317
000104  4659              MOV      r1,r11                ;1318
000106  4630              MOV      r0,r6                 ;1318
000108  f7fffffe          BL       TEXT_SetBkColor
00010c  f06f417f          MVN      r1,#0xff000000        ;1319
000110  4630              MOV      r0,r6                 ;1319
000112  f7fffffe          BL       TEXT_SetTextColor
000116  4639              MOV      r1,r7                 ;1321
000118  69a8              LDR      r0,[r5,#0x18]         ;1321  ; hWincdc
00011a  f7fffffe          BL       WM_GetDialogItem
00011e  4605              MOV      r5,r0                 ;1321
000120  4936              LDR      r1,|L4.508|
000122  4628              MOV      r0,r5                 ;1322
000124  f7fffffe          BL       TEXT_SetBkColor
000128  2100              MOVS     r1,#0                 ;1323
00012a  4628              MOV      r0,r5                 ;1323
00012c  f7fffffe          BL       TEXT_SetTextColor
000130  201b              MOVS     r0,#0x1b              ;1325
000132  7020              STRB     r0,[r4,#0]            ;1325
000134  e7a0              B        |L4.120|
000136  4605              MOV      r5,r0                 ;1332
000138  4649              MOV      r1,r9                 ;1332
00013a  4610              MOV      r0,r2                 ;1332
00013c  f7fffffe          BL       WM_GetDialogItem
000140  4606              MOV      r6,r0                 ;1332
000142  4659              MOV      r1,r11                ;1333
000144  4630              MOV      r0,r6                 ;1333
000146  f7fffffe          BL       TEXT_SetBkColor
00014a  f06f417f          MVN      r1,#0xff000000        ;1334
00014e  4630              MOV      r0,r6                 ;1334
000150  f7fffffe          BL       TEXT_SetTextColor
000154  4641              MOV      r1,r8                 ;1336
000156  69a8              LDR      r0,[r5,#0x18]         ;1336  ; hWincdc
000158  f7fffffe          BL       WM_GetDialogItem
00015c  4605              MOV      r5,r0                 ;1336
00015e  4927              LDR      r1,|L4.508|
000160  4628              MOV      r0,r5                 ;1337
000162  f7fffffe          BL       TEXT_SetBkColor
000166  2100              MOVS     r1,#0                 ;1338
000168  4628              MOV      r0,r5                 ;1338
00016a  f7fffffe          BL       TEXT_SetTextColor
00016e  201c              MOVS     r0,#0x1c              ;1340
000170  7020              STRB     r0,[r4,#0]            ;1340
000172  e781              B        |L4.120|
000174  4605              MOV      r5,r0                 ;1347
000176  4651              MOV      r1,r10                ;1347
000178  4610              MOV      r0,r2                 ;1347
00017a  f7fffffe          BL       WM_GetDialogItem
00017e  4606              MOV      r6,r0                 ;1347
000180  4659              MOV      r1,r11                ;1348
000182  4630              MOV      r0,r6                 ;1348
000184  f7fffffe          BL       TEXT_SetBkColor
000188  f06f417f          MVN      r1,#0xff000000        ;1349
00018c  4630              MOV      r0,r6                 ;1349
00018e  f7fffffe          BL       TEXT_SetTextColor
000192  4649              MOV      r1,r9                 ;1351
000194  69a8              LDR      r0,[r5,#0x18]         ;1351  ; hWincdc
000196  f7fffffe          BL       WM_GetDialogItem
00019a  4605              MOV      r5,r0                 ;1351
00019c  4917              LDR      r1,|L4.508|
00019e  4628              MOV      r0,r5                 ;1352
0001a0  f7fffffe          BL       TEXT_SetBkColor
0001a4  2100              MOVS     r1,#0                 ;1353
0001a6  4628              MOV      r0,r5                 ;1353
0001a8  f7fffffe          BL       TEXT_SetTextColor
0001ac  2021              MOVS     r0,#0x21              ;1355
0001ae  7020              STRB     r0,[r4,#0]            ;1355
0001b0  e762              B        |L4.120|
0001b2  4605              MOV      r5,r0                 ;1375
0001b4  f6400172          MOV      r1,#0x872             ;1375
0001b8  4610              MOV      r0,r2                 ;1375
0001ba  f7fffffe          BL       WM_GetDialogItem
0001be  4606              MOV      r6,r0                 ;1375
0001c0  4659              MOV      r1,r11                ;1376
0001c2  4630              MOV      r0,r6                 ;1376
0001c4  f7fffffe          BL       TEXT_SetBkColor
0001c8  f06f417f          MVN      r1,#0xff000000        ;1377
0001cc  4630              MOV      r0,r6                 ;1377
0001ce  f7fffffe          BL       TEXT_SetTextColor
0001d2  4651              MOV      r1,r10                ;1379
0001d4  69a8              LDR      r0,[r5,#0x18]         ;1379  ; hWincdc
0001d6  f7fffffe          BL       WM_GetDialogItem
0001da  4605              MOV      r5,r0                 ;1379
0001dc  4907              LDR      r1,|L4.508|
0001de  4628              MOV      r0,r5                 ;1380
0001e0  f7fffffe          BL       TEXT_SetBkColor
0001e4  2100              MOVS     r1,#0                 ;1381
0001e6  4628              MOV      r0,r5                 ;1381
0001e8  f7fffffe          BL       TEXT_SetTextColor
0001ec  2022              MOVS     r0,#0x22              ;1383
0001ee  7020              STRB     r0,[r4,#0]            ;1383
0001f0  e742              B        |L4.120|
;;;1389   
                          ENDP

0001f2  0000              DCW      0x0000
                  |L4.500|
                          DCD      set_sw
                  |L4.504|
                          DCD      ||.data||
                  |L4.508|
                          DCD      0x00bfffff

                          AREA ||i.CDC_SET||, CODE, READONLY, ALIGN=2

                          REQUIRE _printf_percent
                          REQUIRE _printf_widthprec
                          REQUIRE _printf_f
                          REQUIRE _printf_fp_dec
                          REQUIRE _printf_pre_padding
                          REQUIRE _printf_d
                          REQUIRE _printf_int_dec
                  CDC_SET PROC
;;;1589   
;;;1590   void CDC_SET(void)
000000  e92d4ff0          PUSH     {r4-r11,lr}
;;;1591   {
000004  ed2d8b06          VPUSH    {d8-d10}
000008  b085              SUB      sp,sp,#0x14
;;;1592       vu8 i;
;;;1593       char buf[5];
;;;1594       
;;;1595       float dis_load_c;
;;;1596       float dis_output_v;
;;;1597       float dis_output_c;
;;;1598       float dis_c_cutoff_v = (float)set_c_cutoff_v/100;
00000a  48fe              LDR      r0,|L5.1028|
00000c  6e41              LDR      r1,[r0,#0x64]  ; Run_Control
00000e  ee001a10          VMOV     s0,r1
000012  eeb80a40          VCVT.F32.U32 s0,s0
000016  eddf0afc          VLDR     s1,|L5.1032|
00001a  eec09a20          VDIV.F32 s19,s0,s1
;;;1599       float dis_c_cutoff_c = (float)set_c_cutoff_c/1000;
00001e  6e81              LDR      r1,[r0,#0x68]  ; Run_Control
000020  ee001a10          VMOV     s0,r1
000024  eeb80a40          VCVT.F32.U32 s0,s0
000028  eddf0af8          VLDR     s1,|L5.1036|
00002c  ee809a20          VDIV.F32 s18,s0,s1
;;;1600       float dis_dc_cutoff_v = (float)set_dc_cutoff_v/1000;
000030  6ec1              LDR      r1,[r0,#0x6c]  ; Run_Control
;;;1601       float dis_dc_cutoff_c = (float)set_dc_cutoff_c/100;
000032  6f00              LDR      r0,[r0,#0x70]  ; Run_Control
000034  ee000a10          VMOV     s0,r0
000038  eeb80a40          VCVT.F32.U32 s0,s0
00003c  eddf0af2          VLDR     s1,|L5.1032|
000040  ee80aa20          VDIV.F32 s20,s0,s1
;;;1602       switch(set_sw)
000044  48f2              LDR      r0,|L5.1040|
000046  7801              LDRB     r1,[r0,#0]  ; set_sw
;;;1603       {
;;;1604           case set_26:
;;;1605           {
;;;1606               
;;;1607               WM_HWIN hItem;
;;;1608   //            WM_InvalidateWindow(hWincdc);
;;;1609               hItem = WM_GetDialogItem(hWincdc, ID_TEXT_50);
;;;1610               TEXT_SetBkColor(hItem,GUI_INVALID_COLOR);//选项背景色设为透明
;;;1611               TEXT_SetTextColor(hItem, GUI_WHITE);
;;;1612                  
;;;1613               hItem = WM_GetDialogItem(hWincdc, ID_TEXT_54);
;;;1614               TEXT_SetBkColor(hItem,0x00BFFFFF);//选项背景色设为米色
;;;1615               TEXT_SetTextColor(hItem, GUI_BLACK);
;;;1616               for(i=0;i<6;i++)
;;;1617               {
;;;1618                   set_limit[i] = '\0';
;;;1619               }
;;;1620               
;;;1621               set_sw = set_30;
;;;1622               bit = 1;
000048  4ef2              LDR      r6,|L5.1044|
00004a  3919              SUBS     r1,r1,#0x19           ;1602
;;;1623               break;
;;;1624           }
;;;1625           case set_30:
;;;1626           {
;;;1627               WM_HWIN hItem;
;;;1628   //            WM_InvalidateWindow(hWincdc);
;;;1629               hItem = WM_GetDialogItem(hWincdc, ID_TEXT_54);
;;;1630               TEXT_SetBkColor(hItem,GUI_INVALID_COLOR);//选项背景色设为透明
;;;1631               TEXT_SetTextColor(hItem, GUI_WHITE);
;;;1632   //            if(pow_step == step1)
;;;1633   //            {
;;;1634   //                SET_Voltage = opv1;
;;;1635   //            }else if(pow_step == step2){
;;;1636   //                SET_Voltage = opv2;
;;;1637   //            }else if(pow_step == step3){
;;;1638   //                SET_Voltage = opv3;
;;;1639   //            }
;;;1640               if(dot_flag == 0){
;;;1641   				opv1 = atoi(set_limit)*100;					
;;;1642   			}else if(dot_flag != 0){
;;;1643   				memset(buf, '\0', sizeof(buf));
;;;1644   				strncpy(buf,set_limit,dot_flag + 2);
;;;1645   				opv1 = atof(buf)*100;
;;;1646   			}
;;;1647   			if(opv1 > 6200)
;;;1648   			{
;;;1649   				opv1 = 6200;
;;;1650   			}
;;;1651               SET_Voltage = opv1;
;;;1652               if(SET_Voltage/100 * SET_Current/1000 > 250)
00004c  f8df93c8          LDR      r9,|L5.1048|
000050  2501              MOVS     r5,#1                 ;1622
000052  f04f0864          MOV      r8,#0x64
;;;1653               {
;;;1654                   SET_Voltage = 0;
;;;1655               }
;;;1656               dis_output_v = (float)SET_Voltage/100;
;;;1657               sprintf(buf,"%.2f",dis_output_v);
;;;1658               TEXT_SetText(hItem,buf);
;;;1659   //             if(pow_step == step1)
;;;1660   //             {
;;;1661   //                 opv1 = SET_Voltage;
;;;1662   //             }else if(pow_step == step2){
;;;1663   //                 opv2 = SET_Voltage;
;;;1664   //             }else if(pow_step == step3){
;;;1665   //                 opv3 = SET_Voltage;
;;;1666   //             }
;;;1667               
;;;1668               hItem = WM_GetDialogItem(hWincdc, ID_TEXT_50);
;;;1669               TEXT_SetBkColor(hItem,0x00BFFFFF);//选项背景色设为米色
;;;1670               TEXT_SetTextColor(hItem, GUI_BLACK);
;;;1671   
;;;1672               set_sw = set_26;
;;;1673               bit = 1;
;;;1674               dot_flag = 0;
;;;1675               Write_Limits();
;;;1676               break;
;;;1677           }
;;;1678           case set_27:
;;;1679           {
;;;1680               WM_HWIN hItem;
;;;1681   //            WM_InvalidateWindow(hWincdc);
;;;1682               hItem = WM_GetDialogItem(hWincdc, ID_TEXT_51);
000056  f44f6b07          MOV      r11,#0x870
;;;1683               TEXT_SetBkColor(hItem,GUI_INVALID_COLOR);//选项背景色设为透明
;;;1684               TEXT_SetTextColor(hItem, GUI_WHITE);
;;;1685               for(i=0;i<6;i++)
;;;1686               {
;;;1687                   set_limit[i] = '\0';
;;;1688               }
;;;1689               
;;;1690               hItem = WM_GetDialogItem(hWincdc, ID_TEXT_55);
;;;1691               TEXT_SetBkColor(hItem,0x00BFFFFF);//选项背景色设为米色
;;;1692               TEXT_SetTextColor(hItem, GUI_BLACK);
;;;1693   
;;;1694               set_sw = set_31;
;;;1695               break;
;;;1696           }
;;;1697           case set_31:
;;;1698           {
;;;1699               WM_HWIN hItem;
;;;1700   //            WM_InvalidateWindow(hWincdc);
;;;1701               hItem = WM_GetDialogItem(hWincdc, ID_TEXT_55);
;;;1702               TEXT_SetBkColor(hItem,GUI_INVALID_COLOR);//选项背景色设为透明
;;;1703               TEXT_SetTextColor(hItem, GUI_WHITE);
;;;1704   //            if(cur_step == step1)
;;;1705   //            {
;;;1706   //                SET_Current = opc1;
;;;1707   //            }else if(cur_step == step2){
;;;1708   //                SET_Current = opc2;
;;;1709   //            }else if(cur_step == step3){
;;;1710   //                SET_Current = opc3;
;;;1711   //            }
;;;1712   //            SET_Current = cdc_cc;
;;;1713   			if(dot_flag == 0){
;;;1714   				opc1 = atoi(set_limit)*1000;					
;;;1715   			}else if(dot_flag != 0){
;;;1716   				memset(buf, '\0', sizeof(buf));
;;;1717   				strncpy(buf,set_limit,dot_flag + 3);
;;;1718   				opc1 = atof(buf)*1000;
00005a  ed9f8bf0          VLDR     d8,|L5.1052|
00005e  4af1              LDR      r2,|L5.1060|
000060  2400              MOVS     r4,#0                 ;1609
000062  4ff1              LDR      r7,|L5.1064|
000064  6990              LDR      r0,[r2,#0x18]         ;1602
;;;1719   			}
;;;1720                 
;;;1721               if(opc1 > 10000)
;;;1722               {
;;;1723                   opc1 = 10000;               
;;;1724               }
;;;1725   			SET_Current = opc1;
;;;1726               if(SET_Voltage/100 * SET_Current/1000 > 250)
;;;1727               {
;;;1728                   SET_Current = 0;
;;;1729               }
;;;1730   //            if(SET_Current > 5000)
;;;1731   //            {
;;;1732   //                SET_Current = 5000;               
;;;1733   //            }
;;;1734               dis_output_c = (float)SET_Current/1000;
;;;1735               sprintf(buf,"%.3f",dis_output_c);
;;;1736               TEXT_SetText(hItem,buf);
;;;1737               
;;;1738   //             if(cur_step == step1)
;;;1739   //             {
;;;1740   //                 opc1 = SET_Current;
;;;1741   //             }else if(cur_step == step2){
;;;1742   //                 opc2 = SET_Current;
;;;1743   //             }else if(cur_step == step3){
;;;1744   //                 opc3 = SET_Current;
;;;1745   //             }
;;;1746               
;;;1747               hItem = WM_GetDialogItem(hWincdc, ID_TEXT_51);
;;;1748               TEXT_SetBkColor(hItem,0x00BFFFFF);//选项背景色设为米色
;;;1749               TEXT_SetTextColor(hItem, GUI_BLACK);
;;;1750   
;;;1751               set_sw = set_27;
;;;1752               bit = 1;
;;;1753               dot_flag = 0;
;;;1754               Write_Limits();
;;;1755               break;
;;;1756           }
;;;1757           case set_28:
;;;1758           {
;;;1759               WM_HWIN hItem;
;;;1760   //            WM_InvalidateWindow(hWincdc);
;;;1761               hItem = WM_GetDialogItem(hWincdc, ID_TEXT_58);
;;;1762               TEXT_SetBkColor(hItem,GUI_INVALID_COLOR);//选项背景色设为透明
;;;1763               TEXT_SetTextColor(hItem, GUI_WHITE);
;;;1764               for(i=0;i<6;i++)
;;;1765               {
;;;1766                   set_limit[i] = '\0';
;;;1767               }
;;;1768                  
;;;1769               hItem = WM_GetDialogItem(hWincdc, ID_TEXT_62);
;;;1770               TEXT_SetBkColor(hItem,0x00BFFFFF);//选项背景色设为米色
;;;1771               TEXT_SetTextColor(hItem, GUI_BLACK);
;;;1772   
;;;1773               set_sw = set_38;
;;;1774               break;
;;;1775           }
;;;1776           case set_38:
;;;1777           {
;;;1778               WM_HWIN hItem;
;;;1779   //            WM_InvalidateWindow(hWincdc);
;;;1780               hItem = WM_GetDialogItem(hWincdc, ID_TEXT_62);
;;;1781               TEXT_SetBkColor(hItem,GUI_INVALID_COLOR);//选项背景色设为透明
;;;1782               TEXT_SetTextColor(hItem, GUI_WHITE);
;;;1783               if(dot_flag == 0){
;;;1784   				cov1 = atoi(set_limit)*100;					
000066  f64f7aff          MOV      r10,#0xffff
00006a  2910              CMP      r1,#0x10              ;1602
00006c  d239              BCS      |L5.226|
00006e  e8dff001          TBB      [pc,r1]               ;1602
000072  08b2              DCB      0x08,0xb2
000074  fefd3de1          DCB      0xfe,0xfd,0x3d,0xe1
000078  fcfbfaf9          DCB      0xfc,0xfb,0xfa,0xf9
00007c  f8f7f6f5          DCB      0xf8,0xf7,0xf6,0xf5
000080  f4f3              DCB      0xf4,0xf3
000082  f640016f          MOV      r1,#0x86f             ;1609
000086  4617              MOV      r7,r2                 ;1609
000088  f7fffffe          BL       WM_GetDialogItem
00008c  4680              MOV      r8,r0                 ;1609
00008e  f06f4170          MVN      r1,#0xf0000000        ;1610
000092  4640              MOV      r0,r8                 ;1610
000094  f7fffffe          BL       TEXT_SetBkColor
000098  f06f417f          MVN      r1,#0xff000000        ;1611
00009c  4640              MOV      r0,r8                 ;1611
00009e  f7fffffe          BL       TEXT_SetTextColor
0000a2  f6400173          MOV      r1,#0x873             ;1613
0000a6  69b8              LDR      r0,[r7,#0x18]         ;1613  ; hWincdc
0000a8  f7fffffe          BL       WM_GetDialogItem
0000ac  4607              MOV      r7,r0                 ;1613
0000ae  49df              LDR      r1,|L5.1068|
0000b0  4638              MOV      r0,r7                 ;1614
0000b2  f7fffffe          BL       TEXT_SetBkColor
0000b6  2100              MOVS     r1,#0                 ;1615
0000b8  4638              MOV      r0,r7                 ;1615
0000ba  f7fffffe          BL       TEXT_SetTextColor
0000be  9404              STR      r4,[sp,#0x10]         ;1616
0000c0  49db              LDR      r1,|L5.1072|
0000c2  e006              B        |L5.210|
                  |L5.196|
0000c4  f89d0010          LDRB     r0,[sp,#0x10]         ;1618
0000c8  540c              STRB     r4,[r1,r0]            ;1618
0000ca  f89d0010          LDRB     r0,[sp,#0x10]         ;1616
0000ce  1c40              ADDS     r0,r0,#1              ;1616
0000d0  9004              STR      r0,[sp,#0x10]         ;1616
                  |L5.210|
0000d2  f89d0010          LDRB     r0,[sp,#0x10]         ;1616
0000d6  2806              CMP      r0,#6                 ;1616
0000d8  d3f4              BCC      |L5.196|
0000da  49cd              LDR      r1,|L5.1040|
0000dc  201d              MOVS     r0,#0x1d              ;1621
0000de  7008              STRB     r0,[r1,#0]            ;1621
0000e0  7035              STRB     r5,[r6,#0]            ;1622
                  |L5.226|
;;;1785   			}else if(dot_flag != 0){
;;;1786   				memset(buf, '\0', sizeof(buf));
;;;1787   				strncpy(buf,set_limit,dot_flag + 2);
;;;1788   				cov1 = atof(buf)*100;
;;;1789   			}
;;;1790   			if(cov1 > 6200)
;;;1791   			{
;;;1792   				cov1 = 6200;
;;;1793   			}
;;;1794               if(coffv_step == step1)
;;;1795               {
;;;1796                   dis_c_cutoff_v = (float)cov1/100;
;;;1797               }else if(coffv_step == step2){
;;;1798                   dis_c_cutoff_v = (float)cov2/100;;
;;;1799               }else if(coffv_step == step3){
;;;1800                   dis_c_cutoff_v = (float)cov3/100;;
;;;1801               }
;;;1802               
;;;1803               
;;;1804               sprintf(buf,"%.2f",dis_c_cutoff_v);
;;;1805               TEXT_SetText(hItem,buf);
;;;1806   //             if(coffv_step == step1)
;;;1807   //             {
;;;1808   //                 cov1 = dis_c_cutoff_v;
;;;1809   //             }else if(coffv_step == step2){
;;;1810   //                 cov2 = dis_c_cutoff_v;
;;;1811   //             }else if(coffv_step == step3){
;;;1812   //                 cov3 = dis_c_cutoff_v;
;;;1813   //             }
;;;1814               
;;;1815               hItem = WM_GetDialogItem(hWincdc, ID_TEXT_58);
;;;1816               TEXT_SetBkColor(hItem,0x00BFFFFF);//选项背景色设为米色
;;;1817               TEXT_SetTextColor(hItem, GUI_BLACK);
;;;1818   
;;;1819               set_sw = set_28;
;;;1820               bit = 1;
;;;1821               dot_flag = 0;
;;;1822               Write_Limits();
;;;1823               break;
;;;1824           }
;;;1825           case set_29:
;;;1826           {
;;;1827               WM_HWIN hItem;
;;;1828   //            WM_InvalidateWindow(hWincdc);
;;;1829               hItem = WM_GetDialogItem(hWincdc, ID_TEXT_59);
;;;1830               TEXT_SetBkColor(hItem,GUI_INVALID_COLOR);//选项背景色设为透明
;;;1831               TEXT_SetTextColor(hItem, GUI_WHITE);
;;;1832               for(i=0;i<6;i++)
;;;1833               {
;;;1834                   set_limit[i] = '\0';
;;;1835               }
;;;1836                  
;;;1837               hItem = WM_GetDialogItem(hWincdc, ID_TEXT_63);
;;;1838               TEXT_SetBkColor(hItem,0x00BFFFFF);//选项背景色设为米色
;;;1839               TEXT_SetTextColor(hItem, GUI_BLACK);
;;;1840   
;;;1841               set_sw = set_39;
;;;1842               break;
;;;1843           }
;;;1844           case set_39:
;;;1845           {
;;;1846               WM_HWIN hItem;
;;;1847   //            WM_InvalidateWindow(hWincdc);
;;;1848               hItem = WM_GetDialogItem(hWincdc, ID_TEXT_63);
;;;1849               TEXT_SetBkColor(hItem,GUI_INVALID_COLOR);//选项背景色设为透明
;;;1850               TEXT_SetTextColor(hItem, GUI_WHITE);
;;;1851               if(dot_flag == 0){
;;;1852   				coc1 = atoi(set_limit)*1000;					
;;;1853   			}else if(dot_flag != 0){
;;;1854   				memset(buf, '\0', sizeof(buf));
;;;1855   				strncpy(buf,set_limit,dot_flag + 3);
;;;1856   				coc1 = atof(buf)*1000;
;;;1857   			}
;;;1858                 
;;;1859               if(coc1 > 10000)
;;;1860               {
;;;1861                   coc1 = 10000;               
;;;1862               }
;;;1863               if(coffc_step == step1)
;;;1864               {
;;;1865                   dis_c_cutoff_c = (float)coc1/1000;
;;;1866               }else if(coffc_step == step2){
;;;1867                   dis_c_cutoff_c = (float)coc2/1000;
;;;1868               }else if(coffc_step == step3){
;;;1869                   dis_c_cutoff_c = (float)coc3/1000;
;;;1870               } 
;;;1871               
;;;1872               sprintf(buf,"%.3f",dis_c_cutoff_c);
;;;1873               TEXT_SetText(hItem,buf);
;;;1874   //             if(coffc_step == step1)
;;;1875   //             {
;;;1876   //                 coc1 = dis_c_cutoff_c;
;;;1877   //             }else if(coffc_step == step2){
;;;1878   //                 coc2 = dis_c_cutoff_c;
;;;1879   //             }else if(coffc_step == step3){
;;;1880   //                 coc3 = dis_c_cutoff_c;
;;;1881   //             }   
;;;1882               hItem = WM_GetDialogItem(hWincdc, ID_TEXT_59);
;;;1883               TEXT_SetBkColor(hItem,0x00BFFFFF);//选项背景色设为米色
;;;1884               TEXT_SetTextColor(hItem, GUI_BLACK);
;;;1885   
;;;1886               set_sw = set_29;
;;;1887               bit = 1;
;;;1888               dot_flag = 0;
;;;1889               Write_Limits();
;;;1890               break;
;;;1891           }
;;;1892           case set_35:
;;;1893           {
;;;1894               WM_HWIN hItem;
;;;1895   //            WM_InvalidateWindow(hWincdc);
;;;1896               hItem = WM_GetDialogItem(hWincdc, ID_TEXT_60);
;;;1897               TEXT_SetBkColor(hItem,GUI_INVALID_COLOR);//选项背景色设为透明
;;;1898               TEXT_SetTextColor(hItem, GUI_WHITE);
;;;1899               for(i=0;i<6;i++)
;;;1900               {
;;;1901                   set_limit[i] = '\0';
;;;1902               }
;;;1903                  
;;;1904               hItem = WM_GetDialogItem(hWincdc, ID_TEXT_64);
;;;1905               TEXT_SetBkColor(hItem,0x00BFFFFF);//选项背景色设为米色
;;;1906               TEXT_SetTextColor(hItem, GUI_BLACK);
;;;1907   
;;;1908               set_sw = set_40;
;;;1909               break;
;;;1910           }
;;;1911           case set_40:
;;;1912           {
;;;1913               WM_HWIN hItem;
;;;1914   //            WM_InvalidateWindow(hWincdc);
;;;1915               hItem = WM_GetDialogItem(hWincdc, ID_TEXT_64);
;;;1916               TEXT_SetBkColor(hItem,GUI_INVALID_COLOR);//选项背景色设为透明
;;;1917               TEXT_SetTextColor(hItem, GUI_WHITE);
;;;1918               if(dot_flag == 0){
;;;1919   				set_dc_cutoff_v = atoi(set_limit)*1000;					
;;;1920   			}else if(dot_flag != 0){
;;;1921   				memset(buf, '\0', sizeof(buf));
;;;1922   				strncpy(buf,set_limit,dot_flag + 3);
;;;1923   				set_dc_cutoff_v = atof(buf)*1000;
;;;1924   			}
;;;1925   			dis_dc_cutoff_v = (float)set_dc_cutoff_v/1000;
;;;1926               sprintf(buf,"%.3f",dis_dc_cutoff_v);
;;;1927               TEXT_SetText(hItem,buf);
;;;1928                  
;;;1929               hItem = WM_GetDialogItem(hWincdc, ID_TEXT_60);
;;;1930               TEXT_SetBkColor(hItem,0x00BFFFFF);//选项背景色设为米色
;;;1931               TEXT_SetTextColor(hItem, GUI_BLACK);
;;;1932   
;;;1933               set_sw = set_35;
;;;1934               bit = 1;
;;;1935               dot_flag = 0;
;;;1936               Write_Limits();
;;;1937               break;
;;;1938           }
;;;1939           case set_36:
;;;1940           {
;;;1941               WM_HWIN hItem;
;;;1942   //            WM_InvalidateWindow(hWincdc);
;;;1943               hItem = WM_GetDialogItem(hWincdc, ID_TEXT_61);
;;;1944               TEXT_SetBkColor(hItem,GUI_INVALID_COLOR);//选项背景色设为透明
;;;1945               TEXT_SetTextColor(hItem, GUI_WHITE);
;;;1946               for(i=0;i<6;i++)
;;;1947               {
;;;1948                   set_limit[i] = '\0';
;;;1949               }
;;;1950                  
;;;1951               hItem = WM_GetDialogItem(hWincdc, ID_TEXT_65);
;;;1952               TEXT_SetBkColor(hItem,0x00BFFFFF);//选项背景色设为米色
;;;1953               TEXT_SetTextColor(hItem, GUI_BLACK);
;;;1954   
;;;1955               set_sw = set_41;
;;;1956               break;
;;;1957           }
;;;1958           case set_41:
;;;1959           {
;;;1960               WM_HWIN hItem;
;;;1961   //            WM_InvalidateWindow(hWincdc);
;;;1962               hItem = WM_GetDialogItem(hWincdc, ID_TEXT_65);
;;;1963               TEXT_SetBkColor(hItem,GUI_INVALID_COLOR);//选项背景色设为透明
;;;1964               TEXT_SetTextColor(hItem, GUI_WHITE);
;;;1965               
;;;1966               sprintf(buf,"%.2f",dis_dc_cutoff_c);
;;;1967               TEXT_SetText(hItem,buf);
;;;1968                  
;;;1969               hItem = WM_GetDialogItem(hWincdc, ID_TEXT_61);
;;;1970               TEXT_SetBkColor(hItem,0x00BFFFFF);//选项背景色设为米色
;;;1971               TEXT_SetTextColor(hItem, GUI_BLACK);
;;;1972   
;;;1973               set_sw = set_36;
;;;1974               bit = 1;
;;;1975               dot_flag = 0;
;;;1976               break;
;;;1977           }
;;;1978           case set_34:
;;;1979           {
;;;1980               WM_HWIN hItem;
;;;1981   //            WM_InvalidateWindow(hWincdc);
;;;1982               hItem = WM_GetDialogItem(hWincdc, ID_TEXT_52);
;;;1983               TEXT_SetBkColor(hItem,GUI_INVALID_COLOR);//选项背景色设为透明
;;;1984               TEXT_SetTextColor(hItem, GUI_WHITE);
;;;1985               for(i=0;i<6;i++)
;;;1986               {
;;;1987                   set_limit[i] = '\0';
;;;1988               }
;;;1989                  
;;;1990               hItem = WM_GetDialogItem(hWincdc, ID_TEXT_56);
;;;1991               TEXT_SetBkColor(hItem,0x00BFFFFF);//选项背景色设为米色
;;;1992               TEXT_SetTextColor(hItem, GUI_BLACK);
;;;1993   
;;;1994               set_sw = set_32;
;;;1995               break;
;;;1996           }
;;;1997           case set_32:
;;;1998           {
;;;1999               WM_HWIN hItem;
;;;2000   //            WM_InvalidateWindow(hWincdc);
;;;2001               hItem = WM_GetDialogItem(hWincdc, ID_TEXT_56);
;;;2002               TEXT_SetBkColor(hItem,GUI_INVALID_COLOR);//选项背景色设为透明
;;;2003               TEXT_SetTextColor(hItem, GUI_WHITE);
;;;2004   			if(dot_flag == 0){
;;;2005   				cdc_dc = atoi(set_limit)*1000;					
;;;2006   			}else if(dot_flag != 0){
;;;2007   				memset(buf, '\0', sizeof(buf));
;;;2008   				strncpy(buf,set_limit,dot_flag + 3);
;;;2009   				cdc_dc = atof(buf)*1000;
;;;2010   			}
;;;2011   			if(cdc_dc > 30000 || (float)cdc_dc/1000 * DISS_Voltage > 200){
;;;2012                   cdc_dc = 0;
;;;2013               }
;;;2014               SET_Current_Laod = cdc_dc;
;;;2015   //            if(SET_Current_Laod > 60000){
;;;2016   //                SET_Current_Laod = 0;
;;;2017   //            }
;;;2018               dis_load_c = (float)SET_Current_Laod/1000;
;;;2019               sprintf(buf,"%.3f",dis_load_c);
;;;2020               TEXT_SetText(hItem,buf);
;;;2021                  
;;;2022               hItem = WM_GetDialogItem(hWincdc, ID_TEXT_52);
;;;2023               TEXT_SetBkColor(hItem,0x00BFFFFF);//选项背景色设为米色
;;;2024               TEXT_SetTextColor(hItem, GUI_BLACK);
;;;2025               
;;;2026               set_sw = set_34;
;;;2027               bit = 1;
;;;2028               dot_flag = 0;
;;;2029               Write_Limits();
;;;2030               break;
;;;2031           }
;;;2032           case set_37:
;;;2033           {
;;;2034               WM_HWIN hItem;
;;;2035   //            WM_InvalidateWindow(hWincdc);
;;;2036               hItem = WM_GetDialogItem(hWincdc, ID_TEXT_53);
;;;2037               TEXT_SetBkColor(hItem,GUI_INVALID_COLOR);//选项背景色设为透明
;;;2038               TEXT_SetTextColor(hItem, GUI_WHITE);
;;;2039               for(i=0;i<6;i++)
;;;2040               {
;;;2041                   set_limit[i] = '\0';
;;;2042               }   
;;;2043               hItem = WM_GetDialogItem(hWincdc, ID_TEXT_57);
;;;2044               TEXT_SetBkColor(hItem,0x00BFFFFF);//选项背景色设为米色
;;;2045               TEXT_SetTextColor(hItem, GUI_BLACK);
;;;2046   
;;;2047               set_sw = set_33;
;;;2048               break;
;;;2049           }
;;;2050           case set_33:
;;;2051           {
;;;2052               WM_HWIN hItem;
;;;2053   //            WM_InvalidateWindow(hWincdc);
;;;2054               hItem = WM_GetDialogItem(hWincdc, ID_TEXT_57);
;;;2055               TEXT_SetBkColor(hItem,GUI_INVALID_COLOR);//选项背景色设为透明
;;;2056               TEXT_SetTextColor(hItem, GUI_WHITE);
;;;2057               if(dot_flag == 0){
;;;2058   				set_loop_count = atoi(set_limit);					
;;;2059   			}else if(dot_flag != 0){
;;;2060   				memset(buf, '\0', sizeof(buf));
;;;2061   				strncpy(buf,set_limit,dot_flag);
;;;2062   				set_loop_count = atof(buf);
;;;2063   			}
;;;2064               sprintf(buf,"%3d",set_loop_count);
;;;2065               TEXT_SetText(hItem,buf);   
;;;2066               hItem = WM_GetDialogItem(hWincdc, ID_TEXT_53);
;;;2067               TEXT_SetBkColor(hItem,0x00BFFFFF);//选项背景色设为米色
;;;2068               TEXT_SetTextColor(hItem, GUI_BLACK);
;;;2069   
;;;2070               set_sw = set_37;
;;;2071               bit = 1;
;;;2072               dot_flag = 0;
;;;2073               Write_Limits();
;;;2074               break;
;;;2075           }        
;;;2076           default: break;
;;;2077       }
;;;2078   }
0000e2  b005              ADD      sp,sp,#0x14
0000e4  ecbd8b06          VPOP     {d8-d10}
0000e8  e8bd8ff0          POP      {r4-r11,pc}
0000ec  f6400173          MOV      r1,#0x873             ;1629
0000f0  4692              MOV      r10,r2                ;1629
0000f2  f7fffffe          BL       WM_GetDialogItem
0000f6  4683              MOV      r11,r0                ;1629
0000f8  f06f4170          MVN      r1,#0xf0000000        ;1630
0000fc  4658              MOV      r0,r11                ;1630
0000fe  f7fffffe          BL       TEXT_SetBkColor
000102  f06f417f          MVN      r1,#0xff000000        ;1631
000106  4658              MOV      r0,r11                ;1631
000108  f7fffffe          BL       TEXT_SetTextColor
00010c  7838              LDRB     r0,[r7,#0]            ;1640  ; dot_flag
00010e  2800              CMP      r0,#0                 ;1640
000110  d059              BEQ      |L5.454|
000112  7838              LDRB     r0,[r7,#0]            ;1642  ; dot_flag
000114  b1b0              CBZ      r0,|L5.324|
000116  9402              STR      r4,[sp,#8]            ;1643
000118  9403              STR      r4,[sp,#0xc]          ;1643
00011a  783a              LDRB     r2,[r7,#0]            ;1644  ; dot_flag
00011c  49c4              LDR      r1,|L5.1072|
00011e  1c92              ADDS     r2,r2,#2              ;1644
000120  a802              ADD      r0,sp,#8              ;1644
000122  f7fffffe          BL       strncpy
000126  a802              ADD      r0,sp,#8              ;1645
000128  f7fffffe          BL       __hardfp_atof
00012c  ed9f1bc1          VLDR     d1,|L5.1076|
000130  ec510b10          VMOV     r0,r1,d0              ;1645
000134  ec532b11          VMOV     r2,r3,d1              ;1645
000138  f7fffffe          BL       __aeabi_dmul
00013c  f7fffffe          BL       __aeabi_d2uiz
000140  49b0              LDR      r1,|L5.1028|
000142  67c8              STR      r0,[r1,#0x7c]         ;1645  ; Run_Control
                  |L5.324|
000144  48af              LDR      r0,|L5.1028|
000146  6fc2              LDR      r2,[r0,#0x7c]         ;1647  ; Run_Control
000148  f6410138          MOV      r1,#0x1838            ;1647
00014c  428a              CMP      r2,r1                 ;1647
00014e  d900              BLS      |L5.338|
000150  67c1              STR      r1,[r0,#0x7c]         ;1649  ; Run_Control
                  |L5.338|
000152  6fc1              LDR      r1,[r0,#0x7c]         ;1651  ; Run_Control
000154  6041              STR      r1,[r0,#4]            ;1651  ; Run_Control
000156  6841              LDR      r1,[r0,#4]            ;1652  ; Run_Control
000158  6882              LDR      r2,[r0,#8]            ;1652  ; Run_Control
00015a  fbb1f1f8          UDIV     r1,r1,r8              ;1652
00015e  4351              MULS     r1,r2,r1              ;1652
000160  4549              CMP      r1,r9                 ;1652
000162  d900              BLS      |L5.358|
000164  6044              STR      r4,[r0,#4]            ;1654  ; Run_Control
                  |L5.358|
000166  6840              LDR      r0,[r0,#4]            ;1656  ; Run_Control
000168  ee000a10          VMOV     s0,r0                 ;1656
00016c  eef80a40          VCVT.F32.U32 s1,s0                 ;1656
000170  ed9f1aa5          VLDR     s2,|L5.1032|
000174  ee800a81          VDIV.F32 s0,s1,s2              ;1656
000178  ee100a10          VMOV     r0,s0                 ;1657
00017c  f7fffffe          BL       __aeabi_f2d
000180  ec410b10          VMOV     d0,r0,r1              ;1657
000184  a1ad              ADR      r1,|L5.1084|
000186  ec532b10          VMOV     r2,r3,d0              ;1657
00018a  a802              ADD      r0,sp,#8              ;1657
00018c  f7fffffe          BL       __2sprintf
000190  a902              ADD      r1,sp,#8              ;1658
000192  4658              MOV      r0,r11                ;1658
000194  f7fffffe          BL       TEXT_SetText
000198  f640016f          MOV      r1,#0x86f             ;1668
00019c  f8da0018          LDR      r0,[r10,#0x18]        ;1668  ; hWincdc
0001a0  f7fffffe          BL       WM_GetDialogItem
0001a4  4680              MOV      r8,r0                 ;1668
0001a6  49a1              LDR      r1,|L5.1068|
0001a8  4640              MOV      r0,r8                 ;1669
0001aa  f7fffffe          BL       TEXT_SetBkColor
0001ae  2100              MOVS     r1,#0                 ;1670
0001b0  4640              MOV      r0,r8                 ;1670
0001b2  f7fffffe          BL       TEXT_SetTextColor
0001b6  4996              LDR      r1,|L5.1040|
0001b8  2019              MOVS     r0,#0x19              ;1672
0001ba  7008              STRB     r0,[r1,#0]            ;1672
0001bc  7035              STRB     r5,[r6,#0]            ;1673
0001be  703c              STRB     r4,[r7,#0]            ;1674
0001c0  f7fffffe          BL       Write_Limits
                  |L5.452|
0001c4  e78d              B        |L5.226|
                  |L5.454|
0001c6  489a              LDR      r0,|L5.1072|
0001c8  f7fffffe          BL       atoi
0001cc  2164              MOVS     r1,#0x64              ;1641
0001ce  4348              MULS     r0,r1,r0              ;1641
0001d0  498c              LDR      r1,|L5.1028|
0001d2  67c8              STR      r0,[r1,#0x7c]         ;1641  ; Run_Control
0001d4  e7b6              B        |L5.324|
0001d6  4659              MOV      r1,r11                ;1682
0001d8  4615              MOV      r5,r2                 ;1682
0001da  f7fffffe          BL       WM_GetDialogItem
0001de  4606              MOV      r6,r0                 ;1682
0001e0  f06f4170          MVN      r1,#0xf0000000        ;1683
0001e4  4630              MOV      r0,r6                 ;1683
0001e6  f7fffffe          BL       TEXT_SetBkColor
0001ea  f06f417f          MVN      r1,#0xff000000        ;1684
0001ee  4630              MOV      r0,r6                 ;1684
0001f0  f7fffffe          BL       TEXT_SetTextColor
0001f4  9404              STR      r4,[sp,#0x10]         ;1685
0001f6  498e              LDR      r1,|L5.1072|
0001f8  e006              B        |L5.520|
                  |L5.506|
0001fa  f89d0010          LDRB     r0,[sp,#0x10]         ;1687
0001fe  540c              STRB     r4,[r1,r0]            ;1687
000200  f89d0010          LDRB     r0,[sp,#0x10]         ;1685
000204  1c40              ADDS     r0,r0,#1              ;1685
000206  9004              STR      r0,[sp,#0x10]         ;1685
                  |L5.520|
000208  f89d0010          LDRB     r0,[sp,#0x10]         ;1685
00020c  2806              CMP      r0,#6                 ;1685
00020e  d3f4              BCC      |L5.506|
000210  f6400174          MOV      r1,#0x874             ;1690
000214  69a8              LDR      r0,[r5,#0x18]         ;1690  ; hWincdc
000216  f7fffffe          BL       WM_GetDialogItem
00021a  4604              MOV      r4,r0                 ;1690
00021c  4983              LDR      r1,|L5.1068|
00021e  4620              MOV      r0,r4                 ;1691
000220  f7fffffe          BL       TEXT_SetBkColor
000224  2100              MOVS     r1,#0                 ;1692
000226  4620              MOV      r0,r4                 ;1692
000228  f7fffffe          BL       TEXT_SetTextColor
00022c  4978              LDR      r1,|L5.1040|
00022e  201e              MOVS     r0,#0x1e              ;1694
000230  7008              STRB     r0,[r1,#0]            ;1694
                  |L5.562|
000232  e756              B        |L5.226|
000234  f6400174          MOV      r1,#0x874             ;1701
000238  4692              MOV      r10,r2                ;1701
00023a  f7fffffe          BL       WM_GetDialogItem
00023e  9001              STR      r0,[sp,#4]            ;1701
000240  f06f4170          MVN      r1,#0xf0000000        ;1702
000244  9801              LDR      r0,[sp,#4]            ;1702
000246  f7fffffe          BL       TEXT_SetBkColor
00024a  f06f417f          MVN      r1,#0xff000000        ;1703
00024e  9801              LDR      r0,[sp,#4]            ;1703
000250  f7fffffe          BL       TEXT_SetTextColor
000254  7838              LDRB     r0,[r7,#0]            ;1713  ; dot_flag
000256  e00b              B        |L5.624|
000258  e2dc              B        |L5.2068|
00025a  e245              B        |L5.1768|
00025c  e187              B        |L5.1390|
00025e  e09e              B        |L5.926|
000260  e3d0              B        |L5.2564|
000262  e2a7              B        |L5.1972|
000264  e210              B        |L5.1672|
000266  e316              B        |L5.2198|
000268  e3fc              B        |L5.2660|
00026a  e344              B        |L5.2294|
00026c  e14f              B        |L5.1294|
00026e  e066              B        |L5.830|
                  |L5.624|
000270  2800              CMP      r0,#0                 ;1713
000272  d05a              BEQ      |L5.810|
000274  7838              LDRB     r0,[r7,#0]            ;1715  ; dot_flag
000276  b1a8              CBZ      r0,|L5.676|
000278  9402              STR      r4,[sp,#8]            ;1716
00027a  9403              STR      r4,[sp,#0xc]          ;1716
00027c  783a              LDRB     r2,[r7,#0]            ;1717  ; dot_flag
00027e  496c              LDR      r1,|L5.1072|
000280  1cd2              ADDS     r2,r2,#3              ;1717
000282  a802              ADD      r0,sp,#8              ;1717
000284  f7fffffe          BL       strncpy
000288  a802              ADD      r0,sp,#8              ;1718
00028a  f7fffffe          BL       __hardfp_atof
00028e  ec532b18          VMOV     r2,r3,d8              ;1718
000292  ec510b10          VMOV     r0,r1,d0              ;1718
000296  f7fffffe          BL       __aeabi_dmul
00029a  f7fffffe          BL       __aeabi_d2uiz
00029e  4959              LDR      r1,|L5.1028|
0002a0  f8c10088          STR      r0,[r1,#0x88]         ;1718  ; Run_Control
                  |L5.676|
0002a4  4857              LDR      r0,|L5.1028|
0002a6  f8d02088          LDR      r2,[r0,#0x88]         ;1721  ; Run_Control
0002aa  f2427110          MOV      r1,#0x2710            ;1721
0002ae  428a              CMP      r2,r1                 ;1721
0002b0  d901              BLS      |L5.694|
0002b2  f8c01088          STR      r1,[r0,#0x88]         ;1723  ; Run_Control
                  |L5.694|
0002b6  f8d01088          LDR      r1,[r0,#0x88]         ;1725  ; Run_Control
0002ba  6081              STR      r1,[r0,#8]            ;1725  ; Run_Control
0002bc  6841              LDR      r1,[r0,#4]            ;1726  ; Run_Control
0002be  6882              LDR      r2,[r0,#8]            ;1726  ; Run_Control
0002c0  fbb1f1f8          UDIV     r1,r1,r8              ;1726
0002c4  4351              MULS     r1,r2,r1              ;1726
0002c6  4549              CMP      r1,r9                 ;1726
0002c8  d900              BLS      |L5.716|
0002ca  6084              STR      r4,[r0,#8]            ;1728  ; Run_Control
                  |L5.716|
0002cc  6880              LDR      r0,[r0,#8]            ;1734  ; Run_Control
0002ce  ee000a10          VMOV     s0,r0                 ;1734
0002d2  eef80a40          VCVT.F32.U32 s1,s0                 ;1734
0002d6  ed9f1a4d          VLDR     s2,|L5.1036|
0002da  ee800a81          VDIV.F32 s0,s1,s2              ;1734
0002de  ee100a10          VMOV     r0,s0                 ;1735
0002e2  f7fffffe          BL       __aeabi_f2d
0002e6  ec410b10          VMOV     d0,r0,r1              ;1735
0002ea  a156              ADR      r1,|L5.1092|
0002ec  ec532b10          VMOV     r2,r3,d0              ;1735
0002f0  a802              ADD      r0,sp,#8              ;1735
0002f2  f7fffffe          BL       __2sprintf
0002f6  a902              ADD      r1,sp,#8              ;1736
0002f8  9801              LDR      r0,[sp,#4]            ;1736
0002fa  f7fffffe          BL       TEXT_SetText
0002fe  4659              MOV      r1,r11                ;1747
000300  f8da0018          LDR      r0,[r10,#0x18]        ;1747  ; hWincdc
000304  f7fffffe          BL       WM_GetDialogItem
000308  4680              MOV      r8,r0                 ;1747
00030a  4948              LDR      r1,|L5.1068|
00030c  4640              MOV      r0,r8                 ;1748
00030e  f7fffffe          BL       TEXT_SetBkColor
000312  2100              MOVS     r1,#0                 ;1749
000314  4640              MOV      r0,r8                 ;1749
000316  f7fffffe          BL       TEXT_SetTextColor
00031a  493d              LDR      r1,|L5.1040|
00031c  201a              MOVS     r0,#0x1a              ;1751
00031e  7008              STRB     r0,[r1,#0]            ;1751
000320  7035              STRB     r5,[r6,#0]            ;1752
000322  703c              STRB     r4,[r7,#0]            ;1753
000324  f7fffffe          BL       Write_Limits
                  |L5.808|
000328  e6db              B        |L5.226|
                  |L5.810|
00032a  4841              LDR      r0,|L5.1072|
00032c  f7fffffe          BL       atoi
000330  f44f717a          MOV      r1,#0x3e8             ;1714
000334  4348              MULS     r0,r1,r0              ;1714
000336  4933              LDR      r1,|L5.1028|
000338  f8c10088          STR      r0,[r1,#0x88]         ;1714  ; Run_Control
00033c  e7b2              B        |L5.676|
                  |L5.830|
00033e  f6400177          MOV      r1,#0x877             ;1761
000342  4615              MOV      r5,r2                 ;1761
000344  f7fffffe          BL       WM_GetDialogItem
000348  4606              MOV      r6,r0                 ;1761
00034a  f06f4170          MVN      r1,#0xf0000000        ;1762
00034e  4630              MOV      r0,r6                 ;1762
000350  f7fffffe          BL       TEXT_SetBkColor
000354  f06f417f          MVN      r1,#0xff000000        ;1763
000358  4630              MOV      r0,r6                 ;1763
00035a  f7fffffe          BL       TEXT_SetTextColor
00035e  9404              STR      r4,[sp,#0x10]         ;1764
000360  4933              LDR      r1,|L5.1072|
000362  e006              B        |L5.882|
                  |L5.868|
000364  f89d0010          LDRB     r0,[sp,#0x10]         ;1766
000368  540c              STRB     r4,[r1,r0]            ;1766
00036a  f89d0010          LDRB     r0,[sp,#0x10]         ;1764
00036e  1c40              ADDS     r0,r0,#1              ;1764
000370  9004              STR      r0,[sp,#0x10]         ;1764
                  |L5.882|
000372  f89d0010          LDRB     r0,[sp,#0x10]         ;1764
000376  2806              CMP      r0,#6                 ;1764
000378  d3f4              BCC      |L5.868|
00037a  f640017b          MOV      r1,#0x87b             ;1769
00037e  69a8              LDR      r0,[r5,#0x18]         ;1769  ; hWincdc
000380  f7fffffe          BL       WM_GetDialogItem
000384  4604              MOV      r4,r0                 ;1769
000386  4929              LDR      r1,|L5.1068|
000388  4620              MOV      r0,r4                 ;1770
00038a  f7fffffe          BL       TEXT_SetBkColor
00038e  2100              MOVS     r1,#0                 ;1771
000390  4620              MOV      r0,r4                 ;1771
000392  f7fffffe          BL       TEXT_SetTextColor
000396  491e              LDR      r1,|L5.1040|
000398  2025              MOVS     r0,#0x25              ;1773
00039a  7008              STRB     r0,[r1,#0]            ;1773
00039c  e6a1              B        |L5.226|
                  |L5.926|
00039e  f640017b          MOV      r1,#0x87b             ;1780
0003a2  4690              MOV      r8,r2                 ;1780
0003a4  f7fffffe          BL       WM_GetDialogItem
0003a8  4681              MOV      r9,r0                 ;1780
0003aa  f06f4170          MVN      r1,#0xf0000000        ;1781
0003ae  4648              MOV      r0,r9                 ;1781
0003b0  f7fffffe          BL       TEXT_SetBkColor
0003b4  f06f417f          MVN      r1,#0xff000000        ;1782
0003b8  4648              MOV      r0,r9                 ;1782
0003ba  f7fffffe          BL       TEXT_SetTextColor
0003be  7838              LDRB     r0,[r7,#0]            ;1783  ; dot_flag
0003c0  b1f0              CBZ      r0,|L5.1024|
0003c2  7838              LDRB     r0,[r7,#0]            ;1785  ; dot_flag
0003c4  b1b0              CBZ      r0,|L5.1012|
0003c6  9402              STR      r4,[sp,#8]            ;1786
0003c8  9403              STR      r4,[sp,#0xc]          ;1786
0003ca  783a              LDRB     r2,[r7,#0]            ;1787  ; dot_flag
0003cc  4918              LDR      r1,|L5.1072|
0003ce  1c92              ADDS     r2,r2,#2              ;1787
0003d0  a802              ADD      r0,sp,#8              ;1787
0003d2  f7fffffe          BL       strncpy
0003d6  a802              ADD      r0,sp,#8              ;1788
0003d8  f7fffffe          BL       __hardfp_atof
0003dc  ed9f1b15          VLDR     d1,|L5.1076|
0003e0  ec510b10          VMOV     r0,r1,d0              ;1788
0003e4  ec532b11          VMOV     r2,r3,d1              ;1788
0003e8  f7fffffe          BL       __aeabi_dmul
0003ec  f7fffffe          BL       __aeabi_d2uiz
0003f0  4916              LDR      r1,|L5.1100|
0003f2  8008              STRH     r0,[r1,#0]            ;1788
                  |L5.1012|
0003f4  4815              LDR      r0,|L5.1100|
0003f6  8802              LDRH     r2,[r0,#0]            ;1790  ; coff
0003f8  f6410138          MOV      r1,#0x1838            ;1790
0003fc  428a              CMP      r2,r1                 ;1790
0003fe  e027              B        |L5.1104|
                  |L5.1024|
000400  e034              B        |L5.1132|
000402  0000              DCW      0x0000
                  |L5.1028|
                          DCD      Run_Control
                  |L5.1032|
000408  42c80000          DCFS     0x42c80000 ; 100
                  |L5.1036|
00040c  447a0000          DCFS     0x447a0000 ; 1000
                  |L5.1040|
                          DCD      set_sw
                  |L5.1044|
                          DCD      bit
                  |L5.1048|
                          DCD      0x0003d477
                  |L5.1052|
00041c  00000000          DCFD     0x408f400000000000 ; 1000
000420  408f4000
                  |L5.1060|
                          DCD      ||.data||
                  |L5.1064|
                          DCD      dot_flag
                  |L5.1068|
                          DCD      0x00bfffff
                  |L5.1072|
                          DCD      set_limit
                  |L5.1076|
000434  00000000          DCFD     0x4059000000000000 ; 100
000438  40590000
                  |L5.1084|
00043c  252e3266          DCB      "%.2f",0
000440  00      
000441  00                DCB      0
000442  00                DCB      0
000443  00                DCB      0
                  |L5.1092|
000444  252e3366          DCB      "%.3f",0
000448  00      
000449  00                DCB      0
00044a  00                DCB      0
00044b  00                DCB      0
                  |L5.1100|
                          DCD      ||.bss||
                  |L5.1104|
000450  d900              BLS      |L5.1108|
000452  8001              STRH     r1,[r0,#0]            ;1792
                  |L5.1108|
000454  f898100f          LDRB     r1,[r8,#0xf]          ;1794  ; coffv_step
000458  b1a1              CBZ      r1,|L5.1156|
00045a  f898100f          LDRB     r1,[r8,#0xf]          ;1797  ; coffv_step
00045e  2901              CMP      r1,#1                 ;1797
000460  d01a              BEQ      |L5.1176|
000462  f898100f          LDRB     r1,[r8,#0xf]          ;1799  ; coffv_step
000466  2902              CMP      r1,#2                 ;1799
000468  d020              BEQ      |L5.1196|
00046a  e028              B        |L5.1214|
                  |L5.1132|
00046c  48fe              LDR      r0,|L5.2152|
00046e  f7fffffe          BL       atoi
000472  eb0001c0          ADD      r1,r0,r0,LSL #3       ;1784
000476  eb011000          ADD      r0,r1,r0,LSL #4       ;1784
00047a  ea0a0180          AND      r1,r10,r0,LSL #2      ;1784
00047e  48fb              LDR      r0,|L5.2156|
000480  8001              STRH     r1,[r0,#0]            ;1784
000482  e7b7              B        |L5.1012|
                  |L5.1156|
000484  8800              LDRH     r0,[r0,#0]            ;1796  ; coff
000486  ed5f0a20          VLDR     s1,|L5.1032|
00048a  ee000a10          VMOV     s0,r0                 ;1796
00048e  eeb80a40          VCVT.F32.U32 s0,s0                 ;1796
000492  eec09a20          VDIV.F32 s19,s0,s1             ;1796
000496  e012              B        |L5.1214|
                  |L5.1176|
000498  8840              LDRH     r0,[r0,#2]            ;1798  ; coff
00049a  ed5f0a25          VLDR     s1,|L5.1032|
00049e  ee000a10          VMOV     s0,r0                 ;1798
0004a2  eeb80a40          VCVT.F32.U32 s0,s0                 ;1798
0004a6  eec09a20          VDIV.F32 s19,s0,s1             ;1798
0004aa  e008              B        |L5.1214|
                  |L5.1196|
0004ac  8880              LDRH     r0,[r0,#4]            ;1800  ; coff
0004ae  ed5f0a2a          VLDR     s1,|L5.1032|
0004b2  ee000a10          VMOV     s0,r0                 ;1800
0004b6  eeb80a40          VCVT.F32.U32 s0,s0                 ;1800
0004ba  eec09a20          VDIV.F32 s19,s0,s1             ;1800
                  |L5.1214|
0004be  ee190a90          VMOV     r0,s19                ;1804
0004c2  f7fffffe          BL       __aeabi_f2d
0004c6  ec410b10          VMOV     d0,r0,r1              ;1804
0004ca  ec532b10          VMOV     r2,r3,d0              ;1804
0004ce  f2af0194          ADR      r1,|L5.1084|
0004d2  a802              ADD      r0,sp,#8              ;1804
0004d4  f7fffffe          BL       __2sprintf
0004d8  a902              ADD      r1,sp,#8              ;1805
0004da  4648              MOV      r0,r9                 ;1805
0004dc  f7fffffe          BL       TEXT_SetText
0004e0  f6400177          MOV      r1,#0x877             ;1815
0004e4  f8d80018          LDR      r0,[r8,#0x18]         ;1815  ; hWincdc
0004e8  f7fffffe          BL       WM_GetDialogItem
0004ec  4680              MOV      r8,r0                 ;1815
0004ee  49e0              LDR      r1,|L5.2160|
0004f0  4640              MOV      r0,r8                 ;1816
0004f2  f7fffffe          BL       TEXT_SetBkColor
0004f6  2100              MOVS     r1,#0                 ;1817
0004f8  4640              MOV      r0,r8                 ;1817
0004fa  f7fffffe          BL       TEXT_SetTextColor
0004fe  49dd              LDR      r1,|L5.2164|
000500  201b              MOVS     r0,#0x1b              ;1819
000502  7008              STRB     r0,[r1,#0]            ;1819
000504  7035              STRB     r5,[r6,#0]            ;1820
000506  703c              STRB     r4,[r7,#0]            ;1821
000508  f7fffffe          BL       Write_Limits
00050c  e5e9              B        |L5.226|
                  |L5.1294|
00050e  f6400178          MOV      r1,#0x878             ;1829
000512  4615              MOV      r5,r2                 ;1829
000514  f7fffffe          BL       WM_GetDialogItem
000518  4606              MOV      r6,r0                 ;1829
00051a  f06f4170          MVN      r1,#0xf0000000        ;1830
00051e  4630              MOV      r0,r6                 ;1830
000520  f7fffffe          BL       TEXT_SetBkColor
000524  f06f417f          MVN      r1,#0xff000000        ;1831
000528  4630              MOV      r0,r6                 ;1831
00052a  f7fffffe          BL       TEXT_SetTextColor
00052e  9404              STR      r4,[sp,#0x10]         ;1832
000530  49cd              LDR      r1,|L5.2152|
000532  e006              B        |L5.1346|
                  |L5.1332|
000534  f89d0010          LDRB     r0,[sp,#0x10]         ;1834
000538  540c              STRB     r4,[r1,r0]            ;1834
00053a  f89d0010          LDRB     r0,[sp,#0x10]         ;1832
00053e  1c40              ADDS     r0,r0,#1              ;1832
000540  9004              STR      r0,[sp,#0x10]         ;1832
                  |L5.1346|
000542  f89d0010          LDRB     r0,[sp,#0x10]         ;1832
000546  2806              CMP      r0,#6                 ;1832
000548  d3f4              BCC      |L5.1332|
00054a  f640017c          MOV      r1,#0x87c             ;1837
00054e  69a8              LDR      r0,[r5,#0x18]         ;1837  ; hWincdc
000550  f7fffffe          BL       WM_GetDialogItem
000554  4604              MOV      r4,r0                 ;1837
000556  49c6              LDR      r1,|L5.2160|
000558  4620              MOV      r0,r4                 ;1838
00055a  f7fffffe          BL       TEXT_SetBkColor
00055e  2100              MOVS     r1,#0                 ;1839
000560  4620              MOV      r0,r4                 ;1839
000562  f7fffffe          BL       TEXT_SetTextColor
000566  49c3              LDR      r1,|L5.2164|
000568  2026              MOVS     r0,#0x26              ;1841
00056a  7008              STRB     r0,[r1,#0]            ;1841
00056c  e5b9              B        |L5.226|
                  |L5.1390|
00056e  f640017c          MOV      r1,#0x87c             ;1848
000572  4690              MOV      r8,r2                 ;1848
000574  f7fffffe          BL       WM_GetDialogItem
000578  4681              MOV      r9,r0                 ;1848
00057a  f06f4170          MVN      r1,#0xf0000000        ;1849
00057e  4648              MOV      r0,r9                 ;1849
000580  f7fffffe          BL       TEXT_SetBkColor
000584  f06f417f          MVN      r1,#0xff000000        ;1850
000588  4648              MOV      r0,r9                 ;1850
00058a  f7fffffe          BL       TEXT_SetTextColor
00058e  7838              LDRB     r0,[r7,#0]            ;1851  ; dot_flag
000590  b348              CBZ      r0,|L5.1510|
000592  7838              LDRB     r0,[r7,#0]            ;1853  ; dot_flag
000594  b1a0              CBZ      r0,|L5.1472|
000596  9402              STR      r4,[sp,#8]            ;1854
000598  9403              STR      r4,[sp,#0xc]          ;1854
00059a  783a              LDRB     r2,[r7,#0]            ;1855  ; dot_flag
00059c  49b2              LDR      r1,|L5.2152|
00059e  1cd2              ADDS     r2,r2,#3              ;1855
0005a0  a802              ADD      r0,sp,#8              ;1855
0005a2  f7fffffe          BL       strncpy
0005a6  a802              ADD      r0,sp,#8              ;1856
0005a8  f7fffffe          BL       __hardfp_atof
0005ac  ec532b18          VMOV     r2,r3,d8              ;1856
0005b0  ec510b10          VMOV     r0,r1,d0              ;1856
0005b4  f7fffffe          BL       __aeabi_dmul
0005b8  f7fffffe          BL       __aeabi_d2uiz
0005bc  49ab              LDR      r1,|L5.2156|
0005be  80c8              STRH     r0,[r1,#6]            ;1856
                  |L5.1472|
0005c0  48aa              LDR      r0,|L5.2156|
0005c2  88c2              LDRH     r2,[r0,#6]            ;1859  ; coff
0005c4  f2427110          MOV      r1,#0x2710            ;1859
0005c8  428a              CMP      r2,r1                 ;1859
0005ca  d900              BLS      |L5.1486|
0005cc  80c1              STRH     r1,[r0,#6]            ;1861
                  |L5.1486|
0005ce  f8981010          LDRB     r1,[r8,#0x10]         ;1863  ; coffc_step
0005d2  b1a1              CBZ      r1,|L5.1534|
0005d4  f8981010          LDRB     r1,[r8,#0x10]         ;1866  ; coffc_step
0005d8  2901              CMP      r1,#1                 ;1866
0005da  d01a              BEQ      |L5.1554|
0005dc  f8981010          LDRB     r1,[r8,#0x10]         ;1868  ; coffc_step
0005e0  2902              CMP      r1,#2                 ;1868
0005e2  d020              BEQ      |L5.1574|
0005e4  e028              B        |L5.1592|
                  |L5.1510|
0005e6  48a0              LDR      r0,|L5.2152|
0005e8  f7fffffe          BL       atoi
0005ec  eb000140          ADD      r1,r0,r0,LSL #1       ;1852
0005f0  ebc110c0          RSB      r0,r1,r0,LSL #7       ;1852
0005f4  499d              LDR      r1,|L5.2156|
0005f6  ea0a00c0          AND      r0,r10,r0,LSL #3      ;1852
0005fa  80c8              STRH     r0,[r1,#6]            ;1852
0005fc  e7e0              B        |L5.1472|
                  |L5.1534|
0005fe  88c0              LDRH     r0,[r0,#6]            ;1865  ; coff
000600  ee000a10          VMOV     s0,r0                 ;1865
000604  eeb80a40          VCVT.F32.U32 s0,s0                 ;1865
000608  ed5f0a80          VLDR     s1,|L5.1036|
00060c  ee809a20          VDIV.F32 s18,s0,s1             ;1865
000610  e012              B        |L5.1592|
                  |L5.1554|
000612  8900              LDRH     r0,[r0,#8]            ;1867  ; coff
000614  ee000a10          VMOV     s0,r0                 ;1867
000618  eeb80a40          VCVT.F32.U32 s0,s0                 ;1867
00061c  ed5f0a85          VLDR     s1,|L5.1036|
000620  ee809a20          VDIV.F32 s18,s0,s1             ;1867
000624  e008              B        |L5.1592|
                  |L5.1574|
000626  8940              LDRH     r0,[r0,#0xa]          ;1869  ; coff
000628  ee000a10          VMOV     s0,r0                 ;1869
00062c  eeb80a40          VCVT.F32.U32 s0,s0                 ;1869
000630  ed5f0a8a          VLDR     s1,|L5.1036|
000634  ee809a20          VDIV.F32 s18,s0,s1             ;1869
                  |L5.1592|
000638  ee190a10          VMOV     r0,s18                ;1872
00063c  f7fffffe          BL       __aeabi_f2d
000640  ec410b10          VMOV     d0,r0,r1              ;1872
000644  ec532b10          VMOV     r2,r3,d0              ;1872
000648  f2af2108          ADR      r1,|L5.1092|
00064c  a802              ADD      r0,sp,#8              ;1872
00064e  f7fffffe          BL       __2sprintf
000652  a902              ADD      r1,sp,#8              ;1873
000654  4648              MOV      r0,r9                 ;1873
000656  f7fffffe          BL       TEXT_SetText
00065a  f6400178          MOV      r1,#0x878             ;1882
00065e  f8d80018          LDR      r0,[r8,#0x18]         ;1882  ; hWincdc
000662  f7fffffe          BL       WM_GetDialogItem
000666  4680              MOV      r8,r0                 ;1882
000668  4981              LDR      r1,|L5.2160|
00066a  4640              MOV      r0,r8                 ;1883
00066c  f7fffffe          BL       TEXT_SetBkColor
000670  2100              MOVS     r1,#0                 ;1884
000672  4640              MOV      r0,r8                 ;1884
000674  f7fffffe          BL       TEXT_SetTextColor
000678  497e              LDR      r1,|L5.2164|
00067a  201c              MOVS     r0,#0x1c              ;1886
00067c  7008              STRB     r0,[r1,#0]            ;1886
00067e  7035              STRB     r5,[r6,#0]            ;1887
000680  703c              STRB     r4,[r7,#0]            ;1888
000682  f7fffffe          BL       Write_Limits
000686  e52c              B        |L5.226|
                  |L5.1672|
000688  f6400179          MOV      r1,#0x879             ;1896
00068c  4615              MOV      r5,r2                 ;1896
00068e  f7fffffe          BL       WM_GetDialogItem
000692  4606              MOV      r6,r0                 ;1896
000694  f06f4170          MVN      r1,#0xf0000000        ;1897
000698  4630              MOV      r0,r6                 ;1897
00069a  f7fffffe          BL       TEXT_SetBkColor
00069e  f06f417f          MVN      r1,#0xff000000        ;1898
0006a2  4630              MOV      r0,r6                 ;1898
0006a4  f7fffffe          BL       TEXT_SetTextColor
0006a8  9404              STR      r4,[sp,#0x10]         ;1899
0006aa  496f              LDR      r1,|L5.2152|
0006ac  e006              B        |L5.1724|
                  |L5.1710|
0006ae  f89d0010          LDRB     r0,[sp,#0x10]         ;1901
0006b2  540c              STRB     r4,[r1,r0]            ;1901
0006b4  f89d0010          LDRB     r0,[sp,#0x10]         ;1899
0006b8  1c40              ADDS     r0,r0,#1              ;1899
0006ba  9004              STR      r0,[sp,#0x10]         ;1899
                  |L5.1724|
0006bc  f89d0010          LDRB     r0,[sp,#0x10]         ;1899
0006c0  2806              CMP      r0,#6                 ;1899
0006c2  d3f4              BCC      |L5.1710|
0006c4  f640017d          MOV      r1,#0x87d             ;1904
0006c8  69a8              LDR      r0,[r5,#0x18]         ;1904  ; hWincdc
0006ca  f7fffffe          BL       WM_GetDialogItem
0006ce  4604              MOV      r4,r0                 ;1904
0006d0  4967              LDR      r1,|L5.2160|
0006d2  4620              MOV      r0,r4                 ;1905
0006d4  f7fffffe          BL       TEXT_SetBkColor
0006d8  2100              MOVS     r1,#0                 ;1906
0006da  4620              MOV      r0,r4                 ;1906
0006dc  f7fffffe          BL       TEXT_SetTextColor
0006e0  4964              LDR      r1,|L5.2164|
0006e2  2027              MOVS     r0,#0x27              ;1908
0006e4  7008              STRB     r0,[r1,#0]            ;1908
0006e6  e4fc              B        |L5.226|
                  |L5.1768|
0006e8  f640017d          MOV      r1,#0x87d             ;1915
0006ec  4692              MOV      r10,r2                ;1915
0006ee  f7fffffe          BL       WM_GetDialogItem
0006f2  4680              MOV      r8,r0                 ;1915
0006f4  f06f4170          MVN      r1,#0xf0000000        ;1916
0006f8  4640              MOV      r0,r8                 ;1916
0006fa  f7fffffe          BL       TEXT_SetBkColor
0006fe  f06f417f          MVN      r1,#0xff000000        ;1917
000702  4640              MOV      r0,r8                 ;1917
000704  f7fffffe          BL       TEXT_SetTextColor
000708  7838              LDRB     r0,[r7,#0]            ;1918  ; dot_flag
00070a  b3e8              CBZ      r0,|L5.1928|
00070c  7838              LDRB     r0,[r7,#0]            ;1920  ; dot_flag
00070e  b1a0              CBZ      r0,|L5.1850|
000710  9402              STR      r4,[sp,#8]            ;1921
000712  9403              STR      r4,[sp,#0xc]          ;1921
000714  783a              LDRB     r2,[r7,#0]            ;1922  ; dot_flag
000716  4954              LDR      r1,|L5.2152|
000718  1cd2              ADDS     r2,r2,#3              ;1922
00071a  a802              ADD      r0,sp,#8              ;1922
00071c  f7fffffe          BL       strncpy
000720  a802              ADD      r0,sp,#8              ;1923
000722  f7fffffe          BL       __hardfp_atof
000726  ec532b18          VMOV     r2,r3,d8              ;1923
00072a  ec510b10          VMOV     r0,r1,d0              ;1923
00072e  f7fffffe          BL       __aeabi_dmul
000732  f7fffffe          BL       __aeabi_d2uiz
000736  4950              LDR      r1,|L5.2168|
000738  66c8              STR      r0,[r1,#0x6c]         ;1923  ; Run_Control
                  |L5.1850|
00073a  484f              LDR      r0,|L5.2168|
00073c  6ec0              LDR      r0,[r0,#0x6c]         ;1925  ; Run_Control
00073e  ee000a10          VMOV     s0,r0                 ;1925
000742  eef80a40          VCVT.F32.U32 s1,s0                 ;1925
000746  ed1f1acf          VLDR     s2,|L5.1036|
00074a  ee800a81          VDIV.F32 s0,s1,s2              ;1925
00074e  ee100a10          VMOV     r0,s0                 ;1926
000752  f7fffffe          BL       __aeabi_f2d
000756  ec410b10          VMOV     d0,r0,r1              ;1926
00075a  ec532b10          VMOV     r2,r3,d0              ;1926
00075e  f2af311c          ADR      r1,|L5.1092|
000762  a802              ADD      r0,sp,#8              ;1926
000764  f7fffffe          BL       __2sprintf
000768  a902              ADD      r1,sp,#8              ;1927
00076a  4640              MOV      r0,r8                 ;1927
00076c  f7fffffe          BL       TEXT_SetText
000770  f6400179          MOV      r1,#0x879             ;1929
000774  f8da0018          LDR      r0,[r10,#0x18]        ;1929  ; hWincdc
000778  f7fffffe          BL       WM_GetDialogItem
00077c  4680              MOV      r8,r0                 ;1929
00077e  493c              LDR      r1,|L5.2160|
000780  4640              MOV      r0,r8                 ;1930
000782  f7fffffe          BL       TEXT_SetBkColor
000786  e000              B        |L5.1930|
                  |L5.1928|
000788  e00b              B        |L5.1954|
                  |L5.1930|
00078a  2100              MOVS     r1,#0                 ;1931
00078c  4640              MOV      r0,r8                 ;1931
00078e  f7fffffe          BL       TEXT_SetTextColor
000792  4938              LDR      r1,|L5.2164|
000794  2022              MOVS     r0,#0x22              ;1933
000796  7008              STRB     r0,[r1,#0]            ;1933
000798  7035              STRB     r5,[r6,#0]            ;1934
00079a  703c              STRB     r4,[r7,#0]            ;1935
00079c  f7fffffe          BL       Write_Limits
0007a0  e49f              B        |L5.226|
                  |L5.1954|
0007a2  4831              LDR      r0,|L5.2152|
0007a4  f7fffffe          BL       atoi
0007a8  f44f717a          MOV      r1,#0x3e8             ;1919
0007ac  4348              MULS     r0,r1,r0              ;1919
0007ae  4932              LDR      r1,|L5.2168|
0007b0  66c8              STR      r0,[r1,#0x6c]         ;1919  ; Run_Control
0007b2  e7c2              B        |L5.1850|
                  |L5.1972|
0007b4  f640017a          MOV      r1,#0x87a             ;1943
0007b8  4615              MOV      r5,r2                 ;1943
0007ba  f7fffffe          BL       WM_GetDialogItem
0007be  4606              MOV      r6,r0                 ;1943
0007c0  f06f4170          MVN      r1,#0xf0000000        ;1944
0007c4  4630              MOV      r0,r6                 ;1944
0007c6  f7fffffe          BL       TEXT_SetBkColor
0007ca  f06f417f          MVN      r1,#0xff000000        ;1945
0007ce  4630              MOV      r0,r6                 ;1945
0007d0  f7fffffe          BL       TEXT_SetTextColor
0007d4  9404              STR      r4,[sp,#0x10]         ;1946
0007d6  4924              LDR      r1,|L5.2152|
0007d8  e006              B        |L5.2024|
                  |L5.2010|
0007da  f89d0010          LDRB     r0,[sp,#0x10]         ;1948
0007de  540c              STRB     r4,[r1,r0]            ;1948
0007e0  f89d0010          LDRB     r0,[sp,#0x10]         ;1946
0007e4  1c40              ADDS     r0,r0,#1              ;1946
0007e6  9004              STR      r0,[sp,#0x10]         ;1946
                  |L5.2024|
0007e8  f89d0010          LDRB     r0,[sp,#0x10]         ;1946
0007ec  2806              CMP      r0,#6                 ;1946
0007ee  d3f4              BCC      |L5.2010|
0007f0  f640017e          MOV      r1,#0x87e             ;1951
0007f4  69a8              LDR      r0,[r5,#0x18]         ;1951  ; hWincdc
0007f6  f7fffffe          BL       WM_GetDialogItem
0007fa  4604              MOV      r4,r0                 ;1951
0007fc  491c              LDR      r1,|L5.2160|
0007fe  4620              MOV      r0,r4                 ;1952
000800  f7fffffe          BL       TEXT_SetBkColor
000804  2100              MOVS     r1,#0                 ;1953
000806  4620              MOV      r0,r4                 ;1953
000808  f7fffffe          BL       TEXT_SetTextColor
00080c  4919              LDR      r1,|L5.2164|
00080e  2028              MOVS     r0,#0x28              ;1955
000810  7008              STRB     r0,[r1,#0]            ;1955
000812  e466              B        |L5.226|
                  |L5.2068|
000814  f640017e          MOV      r1,#0x87e             ;1962
000818  4690              MOV      r8,r2                 ;1962
00081a  f7fffffe          BL       WM_GetDialogItem
00081e  4681              MOV      r9,r0                 ;1962
000820  f06f4170          MVN      r1,#0xf0000000        ;1963
000824  4648              MOV      r0,r9                 ;1963
000826  f7fffffe          BL       TEXT_SetBkColor
00082a  f06f417f          MVN      r1,#0xff000000        ;1964
00082e  4648              MOV      r0,r9                 ;1964
000830  f7fffffe          BL       TEXT_SetTextColor
000834  ee1a0a10          VMOV     r0,s20                ;1966
000838  f7fffffe          BL       __aeabi_f2d
00083c  ec410b10          VMOV     d0,r0,r1              ;1966
000840  ec532b10          VMOV     r2,r3,d0              ;1966
000844  f2af410c          ADR      r1,|L5.1084|
000848  a802              ADD      r0,sp,#8              ;1966
00084a  f7fffffe          BL       __2sprintf
00084e  a902              ADD      r1,sp,#8              ;1967
000850  4648              MOV      r0,r9                 ;1967
000852  f7fffffe          BL       TEXT_SetText
000856  f640017a          MOV      r1,#0x87a             ;1969
00085a  f8d80018          LDR      r0,[r8,#0x18]         ;1969  ; hWincdc
00085e  f7fffffe          BL       WM_GetDialogItem
000862  4680              MOV      r8,r0                 ;1969
000864  4902              LDR      r1,|L5.2160|
000866  e009              B        |L5.2172|
                  |L5.2152|
                          DCD      set_limit
                  |L5.2156|
                          DCD      ||.bss||
                  |L5.2160|
                          DCD      0x00bfffff
                  |L5.2164|
                          DCD      set_sw
                  |L5.2168|
                          DCD      Run_Control
                  |L5.2172|
00087c  4640              MOV      r0,r8                 ;1970
00087e  f7fffffe          BL       TEXT_SetBkColor
000882  2100              MOVS     r1,#0                 ;1971
000884  4640              MOV      r0,r8                 ;1971
000886  f7fffffe          BL       TEXT_SetTextColor
00088a  499d              LDR      r1,|L5.2816|
00088c  2023              MOVS     r0,#0x23              ;1973
00088e  7008              STRB     r0,[r1,#0]            ;1973
000890  7035              STRB     r5,[r6,#0]            ;1974
000892  703c              STRB     r4,[r7,#0]            ;1975
000894  e425              B        |L5.226|
                  |L5.2198|
000896  f6400171          MOV      r1,#0x871             ;1982
00089a  4615              MOV      r5,r2                 ;1982
00089c  f7fffffe          BL       WM_GetDialogItem
0008a0  4606              MOV      r6,r0                 ;1982
0008a2  f06f4170          MVN      r1,#0xf0000000        ;1983
0008a6  4630              MOV      r0,r6                 ;1983
0008a8  f7fffffe          BL       TEXT_SetBkColor
0008ac  f06f417f          MVN      r1,#0xff000000        ;1984
0008b0  4630              MOV      r0,r6                 ;1984
0008b2  f7fffffe          BL       TEXT_SetTextColor
0008b6  9404              STR      r4,[sp,#0x10]         ;1985
0008b8  4992              LDR      r1,|L5.2820|
0008ba  e006              B        |L5.2250|
                  |L5.2236|
0008bc  f89d0010          LDRB     r0,[sp,#0x10]         ;1987
0008c0  540c              STRB     r4,[r1,r0]            ;1987
0008c2  f89d0010          LDRB     r0,[sp,#0x10]         ;1985
0008c6  1c40              ADDS     r0,r0,#1              ;1985
0008c8  9004              STR      r0,[sp,#0x10]         ;1985
                  |L5.2250|
0008ca  f89d0010          LDRB     r0,[sp,#0x10]         ;1985
0008ce  2806              CMP      r0,#6                 ;1985
0008d0  d3f4              BCC      |L5.2236|
0008d2  f6400175          MOV      r1,#0x875             ;1990
0008d6  69a8              LDR      r0,[r5,#0x18]         ;1990  ; hWincdc
0008d8  f7fffffe          BL       WM_GetDialogItem
0008dc  4604              MOV      r4,r0                 ;1990
0008de  498a              LDR      r1,|L5.2824|
0008e0  4620              MOV      r0,r4                 ;1991
0008e2  f7fffffe          BL       TEXT_SetBkColor
0008e6  2100              MOVS     r1,#0                 ;1992
0008e8  4620              MOV      r0,r4                 ;1992
0008ea  f7fffffe          BL       TEXT_SetTextColor
0008ee  4984              LDR      r1,|L5.2816|
0008f0  201f              MOVS     r0,#0x1f              ;1994
0008f2  7008              STRB     r0,[r1,#0]            ;1994
0008f4  e466              B        |L5.452|
                  |L5.2294|
0008f6  f6400175          MOV      r1,#0x875             ;2001
0008fa  4692              MOV      r10,r2                ;2001
0008fc  f7fffffe          BL       WM_GetDialogItem
000900  4680              MOV      r8,r0                 ;2001
000902  f06f4170          MVN      r1,#0xf0000000        ;2002
000906  4640              MOV      r0,r8                 ;2002
000908  f7fffffe          BL       TEXT_SetBkColor
00090c  f06f417f          MVN      r1,#0xff000000        ;2003
000910  4640              MOV      r0,r8                 ;2003
000912  f7fffffe          BL       TEXT_SetTextColor
000916  7838              LDRB     r0,[r7,#0]            ;2004  ; dot_flag
000918  b3e8              CBZ      r0,|L5.2454|
00091a  7838              LDRB     r0,[r7,#0]            ;2006  ; dot_flag
00091c  b1a8              CBZ      r0,|L5.2378|
00091e  9402              STR      r4,[sp,#8]            ;2007
000920  9403              STR      r4,[sp,#0xc]          ;2007
000922  783a              LDRB     r2,[r7,#0]            ;2008  ; dot_flag
000924  4977              LDR      r1,|L5.2820|
000926  1cd2              ADDS     r2,r2,#3              ;2008
000928  a802              ADD      r0,sp,#8              ;2008
00092a  f7fffffe          BL       strncpy
00092e  a802              ADD      r0,sp,#8              ;2009
000930  f7fffffe          BL       __hardfp_atof
000934  ec532b18          VMOV     r2,r3,d8              ;2009
000938  ec510b10          VMOV     r0,r1,d0              ;2009
00093c  f7fffffe          BL       __aeabi_dmul
000940  f7fffffe          BL       __aeabi_d2uiz
000944  4971              LDR      r1,|L5.2828|
000946  f8c1009c          STR      r0,[r1,#0x9c]         ;2009  ; Run_Control
                  |L5.2378|
00094a  4870              LDR      r0,|L5.2828|
00094c  f8d0109c          LDR      r1,[r0,#0x9c]         ;2011  ; Run_Control
000950  f2475230          MOV      r2,#0x7530            ;2011
000954  4291              CMP      r1,r2                 ;2011
000956  d813              BHI      |L5.2432|
000958  f8d0109c          LDR      r1,[r0,#0x9c]         ;2011  ; Run_Control
00095c  ee001a10          VMOV     s0,r1                 ;2011
000960  eef80a40          VCVT.F32.U32 s1,s0                 ;2011
000964  ed9f1a6a          VLDR     s2,|L5.2832|
000968  496a              LDR      r1,|L5.2836|
00096a  4a6b              LDR      r2,|L5.2840|
00096c  ee800a81          VDIV.F32 s0,s1,s2              ;2011
000970  edd10a00          VLDR     s1,[r1,#0]            ;2011
000974  ee200a20          VMUL.F32 s0,s0,s1              ;2011
000978  ee101a10          VMOV     r1,s0                 ;2011
00097c  4291              CMP      r1,r2                 ;2011
00097e  dd01              BLE      |L5.2436|
                  |L5.2432|
000980  f8c0409c          STR      r4,[r0,#0x9c]         ;2012  ; Run_Control
                  |L5.2436|
000984  f8d0109c          LDR      r1,[r0,#0x9c]         ;2014  ; Run_Control
000988  6101              STR      r1,[r0,#0x10]         ;2014  ; Run_Control
00098a  6900              LDR      r0,[r0,#0x10]         ;2018  ; Run_Control
00098c  ee000a10          VMOV     s0,r0                 ;2018
000990  eef80a40          VCVT.F32.U32 s1,s0                 ;2018
000994  e000              B        |L5.2456|
                  |L5.2454|
000996  e02b              B        |L5.2544|
                  |L5.2456|
000998  ed9f1a5d          VLDR     s2,|L5.2832|
00099c  ee800a81          VDIV.F32 s0,s1,s2              ;2018
0009a0  ee100a10          VMOV     r0,s0                 ;2019
0009a4  f7fffffe          BL       __aeabi_f2d
0009a8  ec410b10          VMOV     d0,r0,r1              ;2019
0009ac  ec532b10          VMOV     r2,r3,d0              ;2019
0009b0  f2af5170          ADR      r1,|L5.1092|
0009b4  a802              ADD      r0,sp,#8              ;2019
0009b6  f7fffffe          BL       __2sprintf
0009ba  a902              ADD      r1,sp,#8              ;2020
0009bc  4640              MOV      r0,r8                 ;2020
0009be  f7fffffe          BL       TEXT_SetText
0009c2  f6400171          MOV      r1,#0x871             ;2022
0009c6  f8da0018          LDR      r0,[r10,#0x18]        ;2022  ; hWincdc
0009ca  f7fffffe          BL       WM_GetDialogItem
0009ce  4680              MOV      r8,r0                 ;2022
0009d0  494d              LDR      r1,|L5.2824|
0009d2  4640              MOV      r0,r8                 ;2023
0009d4  f7fffffe          BL       TEXT_SetBkColor
0009d8  2100              MOVS     r1,#0                 ;2024
0009da  4640              MOV      r0,r8                 ;2024
0009dc  f7fffffe          BL       TEXT_SetTextColor
0009e0  4947              LDR      r1,|L5.2816|
0009e2  2021              MOVS     r0,#0x21              ;2026
0009e4  7008              STRB     r0,[r1,#0]            ;2026
0009e6  7035              STRB     r5,[r6,#0]            ;2027
0009e8  703c              STRB     r4,[r7,#0]            ;2028
0009ea  f7fffffe          BL       Write_Limits
0009ee  e420              B        |L5.562|
                  |L5.2544|
0009f0  4844              LDR      r0,|L5.2820|
0009f2  f7fffffe          BL       atoi
0009f6  f44f717a          MOV      r1,#0x3e8             ;2005
0009fa  4348              MULS     r0,r1,r0              ;2005
0009fc  4943              LDR      r1,|L5.2828|
0009fe  f8c1009c          STR      r0,[r1,#0x9c]         ;2005  ; Run_Control
000a02  e7a2              B        |L5.2378|
                  |L5.2564|
000a04  f6400172          MOV      r1,#0x872             ;2036
000a08  4615              MOV      r5,r2                 ;2036
000a0a  f7fffffe          BL       WM_GetDialogItem
000a0e  4606              MOV      r6,r0                 ;2036
000a10  f06f4170          MVN      r1,#0xf0000000        ;2037
000a14  4630              MOV      r0,r6                 ;2037
000a16  f7fffffe          BL       TEXT_SetBkColor
000a1a  f06f417f          MVN      r1,#0xff000000        ;2038
000a1e  4630              MOV      r0,r6                 ;2038
000a20  f7fffffe          BL       TEXT_SetTextColor
000a24  9404              STR      r4,[sp,#0x10]         ;2039
000a26  4937              LDR      r1,|L5.2820|
000a28  e006              B        |L5.2616|
                  |L5.2602|
000a2a  f89d0010          LDRB     r0,[sp,#0x10]         ;2041
000a2e  540c              STRB     r4,[r1,r0]            ;2041
000a30  f89d0010          LDRB     r0,[sp,#0x10]         ;2039
000a34  1c40              ADDS     r0,r0,#1              ;2039
000a36  9004              STR      r0,[sp,#0x10]         ;2039
                  |L5.2616|
000a38  f89d0010          LDRB     r0,[sp,#0x10]         ;2039
000a3c  2806              CMP      r0,#6                 ;2039
000a3e  d3f4              BCC      |L5.2602|
000a40  f6400176          MOV      r1,#0x876             ;2043
000a44  69a8              LDR      r0,[r5,#0x18]         ;2043  ; hWincdc
000a46  f7fffffe          BL       WM_GetDialogItem
000a4a  4604              MOV      r4,r0                 ;2043
000a4c  492e              LDR      r1,|L5.2824|
000a4e  4620              MOV      r0,r4                 ;2044
000a50  f7fffffe          BL       TEXT_SetBkColor
000a54  2100              MOVS     r1,#0                 ;2045
000a56  4620              MOV      r0,r4                 ;2045
000a58  f7fffffe          BL       TEXT_SetTextColor
000a5c  4928              LDR      r1,|L5.2816|
000a5e  2020              MOVS     r0,#0x20              ;2047
000a60  7008              STRB     r0,[r1,#0]            ;2047
000a62  e461              B        |L5.808|
                  |L5.2660|
000a64  e7ff              B        |L5.2662|
                  |L5.2662|
000a66  f6400176          MOV      r1,#0x876             ;2054
000a6a  4690              MOV      r8,r2                 ;2054
000a6c  f7fffffe          BL       WM_GetDialogItem
000a70  4681              MOV      r9,r0                 ;2054
000a72  f06f4170          MVN      r1,#0xf0000000        ;2055
000a76  4648              MOV      r0,r9                 ;2055
000a78  f7fffffe          BL       TEXT_SetBkColor
000a7c  f06f417f          MVN      r1,#0xff000000        ;2056
000a80  4648              MOV      r0,r9                 ;2056
000a82  f7fffffe          BL       TEXT_SetTextColor
000a86  7838              LDRB     r0,[r7,#0]            ;2057  ; dot_flag
000a88  b390              CBZ      r0,|L5.2800|
000a8a  7838              LDRB     r0,[r7,#0]            ;2059  ; dot_flag
000a8c  b178              CBZ      r0,|L5.2734|
000a8e  9402              STR      r4,[sp,#8]            ;2060
000a90  9403              STR      r4,[sp,#0xc]          ;2060
000a92  783a              LDRB     r2,[r7,#0]            ;2061  ; dot_flag
000a94  491b              LDR      r1,|L5.2820|
000a96  a802              ADD      r0,sp,#8              ;2061
000a98  f7fffffe          BL       strncpy
000a9c  a802              ADD      r0,sp,#8              ;2062
000a9e  f7fffffe          BL       __hardfp_atof
000aa2  ec510b10          VMOV     r0,r1,d0              ;2062
000aa6  f7fffffe          BL       __aeabi_d2uiz
000aaa  f8880000          STRB     r0,[r8,#0]            ;2062
                  |L5.2734|
000aae  f8982000          LDRB     r2,[r8,#0]            ;2064  ; set_loop_count
000ab2  a11a              ADR      r1,|L5.2844|
000ab4  a802              ADD      r0,sp,#8              ;2064
000ab6  f7fffffe          BL       __2sprintf
000aba  a902              ADD      r1,sp,#8              ;2065
000abc  4648              MOV      r0,r9                 ;2065
000abe  f7fffffe          BL       TEXT_SetText
000ac2  f6400172          MOV      r1,#0x872             ;2066
000ac6  f8d80018          LDR      r0,[r8,#0x18]         ;2066  ; hWincdc
000aca  f7fffffe          BL       WM_GetDialogItem
000ace  4680              MOV      r8,r0                 ;2066
000ad0  490d              LDR      r1,|L5.2824|
000ad2  4640              MOV      r0,r8                 ;2067
000ad4  f7fffffe          BL       TEXT_SetBkColor
000ad8  2100              MOVS     r1,#0                 ;2068
000ada  4640              MOV      r0,r8                 ;2068
000adc  f7fffffe          BL       TEXT_SetTextColor
000ae0  4907              LDR      r1,|L5.2816|
000ae2  2024              MOVS     r0,#0x24              ;2070
000ae4  7008              STRB     r0,[r1,#0]            ;2070
000ae6  7035              STRB     r5,[r6,#0]            ;2071
000ae8  703c              STRB     r4,[r7,#0]            ;2072
000aea  f7fffffe          BL       Write_Limits
000aee  e41b              B        |L5.808|
                  |L5.2800|
000af0  e7ff              B        |L5.2802|
                  |L5.2802|
000af2  4804              LDR      r0,|L5.2820|
000af4  f7fffffe          BL       atoi
000af8  f8880000          STRB     r0,[r8,#0]            ;2058
000afc  e7d7              B        |L5.2734|
;;;2079   
                          ENDP

000afe  0000              DCW      0x0000
                  |L5.2816|
                          DCD      set_sw
                  |L5.2820|
                          DCD      set_limit
                  |L5.2824|
                          DCD      0x00bfffff
                  |L5.2828|
                          DCD      Run_Control
                  |L5.2832|
000b10  447a0000          DCFS     0x447a0000 ; 1000
                  |L5.2836|
                          DCD      DISS_Voltage
                  |L5.2840|
                          DCD      0x43480000
                  |L5.2844|
000b1c  25336400          DCB      "%3d",0

                          AREA ||i.CreateCDC||, CODE, READONLY, ALIGN=2

                  CreateCDC PROC
;;;1105   WM_HWIN CreateCDC(void);
;;;1106   WM_HWIN CreateCDC(void) {
000000  b57c              PUSH     {r2-r6,lr}
;;;1107     
;;;1108     if(page_sw == face_graph)
000002  4c1b              LDR      r4,|L6.112|
000004  7820              LDRB     r0,[r4,#0]  ; page_sw
;;;1109     {  
;;;1110   	  
;;;1111     }else{
;;;1112   	  SET_Voltage = opv1;
;;;1113   	  SET_Current = opc1;
;;;1114   	  SET_Current_Laod = cdc_dc;
;;;1115   	  track = face_cdc;
000006  2501              MOVS     r5,#1
000008  2800              CMP      r0,#0                 ;1108
00000a  d01d              BEQ      |L6.72|
00000c  4819              LDR      r0,|L6.116|
00000e  6fc1              LDR      r1,[r0,#0x7c]         ;1112  ; Run_Control
000010  6041              STR      r1,[r0,#4]            ;1112  ; Run_Control
000012  f8d01088          LDR      r1,[r0,#0x88]         ;1113  ; Run_Control
000016  6081              STR      r1,[r0,#8]            ;1113  ; Run_Control
000018  f8d0109c          LDR      r1,[r0,#0x9c]         ;1114  ; Run_Control
00001c  6101              STR      r1,[r0,#0x10]         ;1114  ; Run_Control
00001e  4816              LDR      r0,|L6.120|
000020  7005              STRB     r5,[r0,#0]
;;;1116   	  TM1650_SET_LED(0x68,0x70);
000022  2170              MOVS     r1,#0x70
000024  2068              MOVS     r0,#0x68
000026  f7fffffe          BL       TM1650_SET_LED
;;;1117   	  GPIO_ResetBits(GPIOD,GPIO_Pin_12);//İֆ+
00002a  0329              LSLS     r1,r5,#12
00002c  4813              LDR      r0,|L6.124|
00002e  f7fffffe          BL       GPIO_ResetBits
;;;1118   	  IO_OFF();//ȍ
000032  f7fffffe          BL       IO_OFF
;;;1119   	  GPIO_ResetBits(GPIOC,GPIO_Pin_10);//CC
000036  02a9              LSLS     r1,r5,#10
000038  4811              LDR      r0,|L6.128|
00003a  f7fffffe          BL       GPIO_ResetBits
;;;1120   	  flag_Load_CC = 1;
00003e  4811              LDR      r0,|L6.132|
000040  6801              LDR      r1,[r0,#0]  ; flagD
000042  f0410180          ORR      r1,r1,#0x80
000046  6001              STR      r1,[r0,#0]  ; flagD
                  |L6.72|
;;;1121     }
;;;1122     page_sw = face_cdc;
000048  7025              STRB     r5,[r4,#0]
;;;1123     set_sw = set_26;
00004a  490f              LDR      r1,|L6.136|
00004c  2019              MOVS     r0,#0x19
00004e  7008              STRB     r0,[r1,#0]
;;;1124     pass = 0;
000050  480e              LDR      r0,|L6.140|
000052  2400              MOVS     r4,#0
000054  7004              STRB     r4,[r0,#0]
;;;1125   //  double_sw = face_cdc;
;;;1126     hWincdc = GUI_CreateDialogBox(_aDialogCreate4, GUI_COUNTOF(_aDialogCreate4), _cbDialog, WM_HBKWIN, 0, 0);
000056  f7fffffe          BL       WM_GetDesktopWindow
00005a  4603              MOV      r3,r0
00005c  9400              STR      r4,[sp,#0]
00005e  4a0c              LDR      r2,|L6.144|
000060  2129              MOVS     r1,#0x29
000062  480c              LDR      r0,|L6.148|
000064  9401              STR      r4,[sp,#4]
000066  f7fffffe          BL       GUI_CreateDialogBox
00006a  490b              LDR      r1,|L6.152|
00006c  6188              STR      r0,[r1,#0x18]  ; hWincdc
;;;1127     return hWincdc;
;;;1128   }
00006e  bd7c              POP      {r2-r6,pc}
;;;1129   
                          ENDP

                  |L6.112|
                          DCD      page_sw
                  |L6.116|
                          DCD      Run_Control
                  |L6.120|
                          DCD      track
                  |L6.124|
                          DCD      0x40020c00
                  |L6.128|
                          DCD      0x40020800
                  |L6.132|
                          DCD      flagD
                  |L6.136|
                          DCD      set_sw
                  |L6.140|
                          DCD      pass
                  |L6.144|
                          DCD      _cbDialog
                  |L6.148|
                          DCD      ||.constdata||
                  |L6.152|
                          DCD      ||.data||

                          AREA ||i.DEL_CDC||, CODE, READONLY, ALIGN=2

                  DEL_CDC PROC
;;;2079   
;;;2080   void DEL_CDC(){
000000  e92d41f0          PUSH     {r4-r8,lr}
;;;2081       switch(set_sw){
000004  486b              LDR      r0,|L7.436|
000006  7801              LDRB     r1,[r0,#0]  ; set_sw
;;;2082           case set_30:
;;;2083           {
;;;2084               WM_HWIN hItem;
;;;2085   //            WM_InvalidateWindow(hWincdc);
;;;2086               hItem = WM_GetDialogItem(hWincdc, ID_TEXT_54);
000008  486b              LDR      r0,|L7.440|
00000a  391d              SUBS     r1,r1,#0x1d           ;2081
;;;2087   			if(bit > 1)
;;;2088   			{
;;;2089   				bit --;
;;;2090   				set_limit[bit-1] = '\0';
00000c  4f6b              LDR      r7,|L7.444|
00000e  6980              LDR      r0,[r0,#0x18]         ;2086
000010  2400              MOVS     r4,#0                 ;2086
000012  4d6b              LDR      r5,|L7.448|
;;;2091   			}
;;;2092   			if(bit == dot_flag)
000014  4e6b              LDR      r6,|L7.452|
000016  290c              CMP      r1,#0xc               ;2081
000018  d27e              BCS      |L7.280|
00001a  e8dff001          TBB      [pc,r1]               ;2081
00001e  061e              DCB      0x06,0x1e
000020  364ec8c8          DCB      0x36,0x4e,0xc8,0xc8
000024  c8c86680          DCB      0xc8,0xc8,0x66,0x80
000028  98b0              DCB      0x98,0xb0
00002a  f6400173          MOV      r1,#0x873             ;2086
00002e  f7fffffe          BL       WM_GetDialogItem
000032  7829              LDRB     r1,[r5,#0]            ;2087  ; bit
000034  2901              CMP      r1,#1                 ;2087
000036  d906              BLS      |L7.70|
000038  7829              LDRB     r1,[r5,#0]            ;2089  ; bit
00003a  1e49              SUBS     r1,r1,#1              ;2089
00003c  7029              STRB     r1,[r5,#0]            ;2089
00003e  7829              LDRB     r1,[r5,#0]            ;2090  ; bit
000040  4439              ADD      r1,r1,r7              ;2090
000042  f8014c01          STRB     r4,[r1,#-1]           ;2090
                  |L7.70|
000046  7829              LDRB     r1,[r5,#0]  ; bit
000048  7832              LDRB     r2,[r6,#0]  ; dot_flag
00004a  4291              CMP      r1,r2
00004c  d100              BNE      |L7.80|
;;;2093   			{
;;;2094   				dot_flag = 0;
00004e  7034              STRB     r4,[r6,#0]
                  |L7.80|
;;;2095   			}
;;;2096   			TEXT_SetText(hItem,set_limit);
000050  e8bd41f0          POP      {r4-r8,lr}
000054  4959              LDR      r1,|L7.444|
000056  f7ffbffe          B.W      TEXT_SetText
;;;2097               break;
;;;2098           }
;;;2099           case set_31:
;;;2100           {
;;;2101               WM_HWIN hItem;
;;;2102   //            WM_InvalidateWindow(hWincdc);
;;;2103               hItem = WM_GetDialogItem(hWincdc, ID_TEXT_55);
00005a  f6400174          MOV      r1,#0x874
00005e  f7fffffe          BL       WM_GetDialogItem
;;;2104               if(bit > 1)
000062  7829              LDRB     r1,[r5,#0]  ; bit
000064  2901              CMP      r1,#1
000066  d906              BLS      |L7.118|
;;;2105   			{
;;;2106   				bit --;
000068  7829              LDRB     r1,[r5,#0]  ; bit
00006a  1e49              SUBS     r1,r1,#1
00006c  7029              STRB     r1,[r5,#0]
;;;2107   				set_limit[bit-1] = '\0';
00006e  7829              LDRB     r1,[r5,#0]  ; bit
000070  4439              ADD      r1,r1,r7
000072  f8014c01          STRB     r4,[r1,#-1]
                  |L7.118|
;;;2108   			}
;;;2109   			if(bit == dot_flag)
000076  7829              LDRB     r1,[r5,#0]  ; bit
000078  7832              LDRB     r2,[r6,#0]  ; dot_flag
00007a  4291              CMP      r1,r2
00007c  d100              BNE      |L7.128|
;;;2110   			{
;;;2111   				dot_flag = 0;
00007e  7034              STRB     r4,[r6,#0]
                  |L7.128|
;;;2112   			}
;;;2113   			TEXT_SetText(hItem,set_limit);
000080  e8bd41f0          POP      {r4-r8,lr}
000084  494d              LDR      r1,|L7.444|
000086  f7ffbffe          B.W      TEXT_SetText
;;;2114               break;
;;;2115           }
;;;2116           case set_32:
;;;2117           {
;;;2118               WM_HWIN hItem;
;;;2119   //            WM_InvalidateWindow(hWincdc);
;;;2120               hItem = WM_GetDialogItem(hWincdc, ID_TEXT_56);
00008a  f6400175          MOV      r1,#0x875
00008e  f7fffffe          BL       WM_GetDialogItem
;;;2121               if(bit > 1)
000092  7829              LDRB     r1,[r5,#0]  ; bit
000094  2901              CMP      r1,#1
000096  d906              BLS      |L7.166|
;;;2122   			{
;;;2123   				bit --;
000098  7829              LDRB     r1,[r5,#0]  ; bit
00009a  1e49              SUBS     r1,r1,#1
00009c  7029              STRB     r1,[r5,#0]
;;;2124   				set_limit[bit-1] = '\0';
00009e  7829              LDRB     r1,[r5,#0]  ; bit
0000a0  4439              ADD      r1,r1,r7
0000a2  f8014c01          STRB     r4,[r1,#-1]
                  |L7.166|
;;;2125   			}
;;;2126   			if(bit == dot_flag)
0000a6  7829              LDRB     r1,[r5,#0]  ; bit
0000a8  7832              LDRB     r2,[r6,#0]  ; dot_flag
0000aa  4291              CMP      r1,r2
0000ac  d100              BNE      |L7.176|
;;;2127   			{
;;;2128   				dot_flag = 0;
0000ae  7034              STRB     r4,[r6,#0]
                  |L7.176|
;;;2129   			}
;;;2130   			TEXT_SetText(hItem,set_limit);
0000b0  e8bd41f0          POP      {r4-r8,lr}
0000b4  4941              LDR      r1,|L7.444|
0000b6  f7ffbffe          B.W      TEXT_SetText
;;;2131               break;
;;;2132           }
;;;2133           case set_33:
;;;2134           {
;;;2135               WM_HWIN hItem;
;;;2136   //            WM_InvalidateWindow(hWincdc);
;;;2137               hItem = WM_GetDialogItem(hWincdc, ID_TEXT_57);
0000ba  f6400176          MOV      r1,#0x876
0000be  f7fffffe          BL       WM_GetDialogItem
;;;2138               if(bit > 1)
0000c2  7829              LDRB     r1,[r5,#0]  ; bit
0000c4  2901              CMP      r1,#1
0000c6  d906              BLS      |L7.214|
;;;2139   			{
;;;2140   				bit --;
0000c8  7829              LDRB     r1,[r5,#0]  ; bit
0000ca  1e49              SUBS     r1,r1,#1
0000cc  7029              STRB     r1,[r5,#0]
;;;2141   				set_limit[bit-1] = '\0';
0000ce  7829              LDRB     r1,[r5,#0]  ; bit
0000d0  4439              ADD      r1,r1,r7
0000d2  f8014c01          STRB     r4,[r1,#-1]
                  |L7.214|
;;;2142   			}
;;;2143   			if(bit == dot_flag)
0000d6  7829              LDRB     r1,[r5,#0]  ; bit
0000d8  7832              LDRB     r2,[r6,#0]  ; dot_flag
0000da  4291              CMP      r1,r2
0000dc  d100              BNE      |L7.224|
;;;2144   			{
;;;2145   				dot_flag = 0;
0000de  7034              STRB     r4,[r6,#0]
                  |L7.224|
;;;2146   			}
;;;2147   			TEXT_SetText(hItem,set_limit);
0000e0  e8bd41f0          POP      {r4-r8,lr}
0000e4  4935              LDR      r1,|L7.444|
0000e6  f7ffbffe          B.W      TEXT_SetText
;;;2148               break;
;;;2149           }
;;;2150           case set_38:
;;;2151           {
;;;2152               WM_HWIN hItem;
;;;2153   //            WM_InvalidateWindow(hWincdc);
;;;2154               hItem = WM_GetDialogItem(hWincdc, ID_TEXT_62);
0000ea  f640017b          MOV      r1,#0x87b
0000ee  f7fffffe          BL       WM_GetDialogItem
;;;2155               if(bit > 1)
0000f2  7829              LDRB     r1,[r5,#0]  ; bit
0000f4  2901              CMP      r1,#1
0000f6  d906              BLS      |L7.262|
;;;2156   			{
;;;2157   				bit --;
0000f8  7829              LDRB     r1,[r5,#0]  ; bit
0000fa  1e49              SUBS     r1,r1,#1
0000fc  7029              STRB     r1,[r5,#0]
;;;2158   				set_limit[bit-1] = '\0';
0000fe  7829              LDRB     r1,[r5,#0]  ; bit
000100  4439              ADD      r1,r1,r7
000102  f8014c01          STRB     r4,[r1,#-1]
                  |L7.262|
;;;2159   			}
;;;2160   			if(bit == dot_flag)
000106  7829              LDRB     r1,[r5,#0]  ; bit
000108  7832              LDRB     r2,[r6,#0]  ; dot_flag
00010a  4291              CMP      r1,r2
00010c  d100              BNE      |L7.272|
;;;2161   			{
;;;2162   				dot_flag = 0;
00010e  7034              STRB     r4,[r6,#0]
                  |L7.272|
;;;2163   			}
;;;2164   			TEXT_SetText(hItem,set_limit);
000110  e8bd41f0          POP      {r4-r8,lr}
000114  4929              LDR      r1,|L7.444|
000116  e000              B        |L7.282|
                  |L7.280|
000118  e049              B        |L7.430|
                  |L7.282|
00011a  f7ffbffe          B.W      TEXT_SetText
;;;2165               break;
;;;2166           }
;;;2167           case set_39:
;;;2168           {
;;;2169               WM_HWIN hItem;
;;;2170   //            WM_InvalidateWindow(hWincdc);
;;;2171               hItem = WM_GetDialogItem(hWincdc, ID_TEXT_63);
00011e  f640017c          MOV      r1,#0x87c
000122  f7fffffe          BL       WM_GetDialogItem
;;;2172               if(bit > 1)
000126  7829              LDRB     r1,[r5,#0]  ; bit
000128  2901              CMP      r1,#1
00012a  d906              BLS      |L7.314|
;;;2173   			{
;;;2174   				bit --;
00012c  7829              LDRB     r1,[r5,#0]  ; bit
00012e  1e49              SUBS     r1,r1,#1
000130  7029              STRB     r1,[r5,#0]
;;;2175   				set_limit[bit-1] = '\0';
000132  7829              LDRB     r1,[r5,#0]  ; bit
000134  4439              ADD      r1,r1,r7
000136  f8014c01          STRB     r4,[r1,#-1]
                  |L7.314|
;;;2176   			}
;;;2177   			if(bit == dot_flag)
00013a  7829              LDRB     r1,[r5,#0]  ; bit
00013c  7832              LDRB     r2,[r6,#0]  ; dot_flag
00013e  4291              CMP      r1,r2
000140  d100              BNE      |L7.324|
;;;2178   			{
;;;2179   				dot_flag = 0;
000142  7034              STRB     r4,[r6,#0]
                  |L7.324|
;;;2180   			}
;;;2181   			TEXT_SetText(hItem,set_limit);
000144  e8bd41f0          POP      {r4-r8,lr}
000148  491c              LDR      r1,|L7.444|
00014a  f7ffbffe          B.W      TEXT_SetText
;;;2182               break;
;;;2183           }
;;;2184           case set_40:
;;;2185           {
;;;2186               WM_HWIN hItem;
;;;2187   //            WM_InvalidateWindow(hWincdc);
;;;2188               hItem = WM_GetDialogItem(hWincdc, ID_TEXT_64);
00014e  f640017d          MOV      r1,#0x87d
000152  f7fffffe          BL       WM_GetDialogItem
;;;2189               if(bit > 1)
000156  7829              LDRB     r1,[r5,#0]  ; bit
000158  2901              CMP      r1,#1
00015a  d906              BLS      |L7.362|
;;;2190   			{
;;;2191   				bit --;
00015c  7829              LDRB     r1,[r5,#0]  ; bit
00015e  1e49              SUBS     r1,r1,#1
000160  7029              STRB     r1,[r5,#0]
;;;2192   				set_limit[bit-1] = '\0';
000162  7829              LDRB     r1,[r5,#0]  ; bit
000164  4439              ADD      r1,r1,r7
000166  f8014c01          STRB     r4,[r1,#-1]
                  |L7.362|
;;;2193   			}
;;;2194   			if(bit == dot_flag)
00016a  7829              LDRB     r1,[r5,#0]  ; bit
00016c  7832              LDRB     r2,[r6,#0]  ; dot_flag
00016e  4291              CMP      r1,r2
000170  d100              BNE      |L7.372|
;;;2195   			{
;;;2196   				dot_flag = 0;
000172  7034              STRB     r4,[r6,#0]
                  |L7.372|
;;;2197   			}
;;;2198   			TEXT_SetText(hItem,set_limit);
000174  e8bd41f0          POP      {r4-r8,lr}
000178  4910              LDR      r1,|L7.444|
00017a  f7ffbffe          B.W      TEXT_SetText
;;;2199               break;
;;;2200           }
;;;2201           case set_41:
;;;2202           {
;;;2203               WM_HWIN hItem;
;;;2204   //            WM_InvalidateWindow(hWincdc);
;;;2205               hItem = WM_GetDialogItem(hWincdc, ID_TEXT_65);
00017e  f640017e          MOV      r1,#0x87e
000182  f7fffffe          BL       WM_GetDialogItem
;;;2206               if(bit > 1)
000186  7829              LDRB     r1,[r5,#0]  ; bit
000188  2901              CMP      r1,#1
00018a  d906              BLS      |L7.410|
;;;2207   			{
;;;2208   				bit --;
00018c  7829              LDRB     r1,[r5,#0]  ; bit
00018e  1e49              SUBS     r1,r1,#1
000190  7029              STRB     r1,[r5,#0]
;;;2209   				set_limit[bit-1] = '\0';
000192  7829              LDRB     r1,[r5,#0]  ; bit
000194  4439              ADD      r1,r1,r7
000196  f8014c01          STRB     r4,[r1,#-1]
                  |L7.410|
;;;2210   			}
;;;2211   			if(bit == dot_flag)
00019a  7829              LDRB     r1,[r5,#0]  ; bit
00019c  7832              LDRB     r2,[r6,#0]  ; dot_flag
00019e  4291              CMP      r1,r2
0001a0  d100              BNE      |L7.420|
;;;2212   			{
;;;2213   				dot_flag = 0;
0001a2  7034              STRB     r4,[r6,#0]
                  |L7.420|
;;;2214   			}
;;;2215   			TEXT_SetText(hItem,set_limit);
0001a4  e8bd41f0          POP      {r4-r8,lr}
0001a8  4904              LDR      r1,|L7.444|
0001aa  f7ffbffe          B.W      TEXT_SetText
                  |L7.430|
;;;2216               break;
;;;2217           }
;;;2218           
;;;2219       }    
;;;2220   }
0001ae  e8bd81f0          POP      {r4-r8,pc}
;;;2221   
                          ENDP

0001b2  0000              DCW      0x0000
                  |L7.436|
                          DCD      set_sw
                  |L7.440|
                          DCD      ||.data||
                  |L7.444|
                          DCD      set_limit
                  |L7.448|
                          DCD      bit
                  |L7.452|
                          DCD      dot_flag

                          AREA ||i.INPUT_CDC||, CODE, READONLY, ALIGN=2

                  INPUT_CDC PROC
;;;2223              
;;;2224   void INPUT_CDC(char* num){
000000  e92d41f0          PUSH     {r4-r8,lr}
000004  4606              MOV      r6,r0
;;;2225       char loop_count[2];
;;;2226       switch(set_sw){
000006  489f              LDR      r0,|L8.644|
000008  7801              LDRB     r1,[r0,#0]  ; set_sw
;;;2227           case set_30:
;;;2228           {
;;;2229               WM_HWIN hItem;
;;;2230   //            WM_InvalidateWindow(hWincdc);
;;;2231               hItem = WM_GetDialogItem(hWincdc, ID_TEXT_54);
00000a  489f              LDR      r0,|L8.648|
00000c  391d              SUBS     r1,r1,#0x1d           ;2226
;;;2232   			if(bit < 6)
;;;2233   			{
;;;2234   				strcat(set_limit,num);
;;;2235   			}
;;;2236   			if(dot_flag != 0 && strcmp(num,".") == 0)
00000e  4d9f              LDR      r5,|L8.652|
000010  6980              LDR      r0,[r0,#0x18]         ;2231
000012  4c9f              LDR      r4,|L8.656|
000014  290c              CMP      r1,#0xc               ;2226
000016  d27d              BCS      |L8.276|
000018  e8dff001          TBB      [pc,r1]               ;2226
00001c  062b5075          DCB      0x06,0x2b,0x50,0x75
000020  7c7c7c7c          DCB      0x7c,0x7c,0x7c,0x7c
000024  9cc1e6fe          DCB      0x9c,0xc1,0xe6,0xfe
000028  f6400173          MOV      r1,#0x873             ;2231
00002c  f7fffffe          BL       WM_GetDialogItem
000030  4607              MOV      r7,r0                 ;2231
000032  7820              LDRB     r0,[r4,#0]            ;2232  ; bit
000034  2806              CMP      r0,#6                 ;2232
000036  d203              BCS      |L8.64|
000038  4631              MOV      r1,r6                 ;2234
00003a  4896              LDR      r0,|L8.660|
00003c  f7fffffe          BL       strcat
                  |L8.64|
000040  7828              LDRB     r0,[r5,#0]  ; dot_flag
000042  b120              CBZ      r0,|L8.78|
000044  a194              ADR      r1,|L8.664|
000046  4630              MOV      r0,r6
000048  f7fffffe          BL       strcmp
00004c  b158              CBZ      r0,|L8.102|
                  |L8.78|
;;;2237   			{
;;;2238   				
;;;2239   			}else{			
;;;2240   				
;;;2241   				if(dot_flag == 0 && strcmp(num,".") == 0)
00004e  7828              LDRB     r0,[r5,#0]  ; dot_flag
000050  b930              CBNZ     r0,|L8.96|
000052  a191              ADR      r1,|L8.664|
000054  4630              MOV      r0,r6
000056  f7fffffe          BL       strcmp
00005a  b908              CBNZ     r0,|L8.96|
;;;2242   				{
;;;2243   					dot_flag = bit;
00005c  7820              LDRB     r0,[r4,#0]  ; bit
00005e  7028              STRB     r0,[r5,#0]
                  |L8.96|
;;;2244   				}
;;;2245   				bit ++;
000060  7820              LDRB     r0,[r4,#0]  ; bit
000062  1c40              ADDS     r0,r0,#1
000064  7020              STRB     r0,[r4,#0]
                  |L8.102|
;;;2246   			}
;;;2247   			TEXT_SetText(hItem,set_limit);
000066  4638              MOV      r0,r7
000068  e8bd41f0          POP      {r4-r8,lr}
00006c  4989              LDR      r1,|L8.660|
00006e  f7ffbffe          B.W      TEXT_SetText
;;;2248               break;
;;;2249           }
;;;2250           case set_31:
;;;2251           {
;;;2252               WM_HWIN hItem;
;;;2253   //            WM_InvalidateWindow(hWincdc);
;;;2254               hItem = WM_GetDialogItem(hWincdc, ID_TEXT_55);
000072  f6400174          MOV      r1,#0x874
000076  f7fffffe          BL       WM_GetDialogItem
00007a  4607              MOV      r7,r0
;;;2255               if(bit < 6)
00007c  7820              LDRB     r0,[r4,#0]  ; bit
00007e  2806              CMP      r0,#6
000080  d203              BCS      |L8.138|
;;;2256   			{
;;;2257   				strcat(set_limit,num);
000082  4631              MOV      r1,r6
000084  4883              LDR      r0,|L8.660|
000086  f7fffffe          BL       strcat
                  |L8.138|
;;;2258   			}
;;;2259   			if(dot_flag != 0 && strcmp(num,".") == 0)
00008a  7828              LDRB     r0,[r5,#0]  ; dot_flag
00008c  b120              CBZ      r0,|L8.152|
00008e  a182              ADR      r1,|L8.664|
000090  4630              MOV      r0,r6
000092  f7fffffe          BL       strcmp
000096  b158              CBZ      r0,|L8.176|
                  |L8.152|
;;;2260   			{
;;;2261   				
;;;2262   			}else{			
;;;2263   				
;;;2264   				if(dot_flag == 0 && strcmp(num,".") == 0)
000098  7828              LDRB     r0,[r5,#0]  ; dot_flag
00009a  b930              CBNZ     r0,|L8.170|
00009c  a17e              ADR      r1,|L8.664|
00009e  4630              MOV      r0,r6
0000a0  f7fffffe          BL       strcmp
0000a4  b908              CBNZ     r0,|L8.170|
;;;2265   				{
;;;2266   					dot_flag = bit;
0000a6  7820              LDRB     r0,[r4,#0]  ; bit
0000a8  7028              STRB     r0,[r5,#0]
                  |L8.170|
;;;2267   				}
;;;2268   				bit ++;
0000aa  7820              LDRB     r0,[r4,#0]  ; bit
0000ac  1c40              ADDS     r0,r0,#1
0000ae  7020              STRB     r0,[r4,#0]
                  |L8.176|
;;;2269   			}
;;;2270   			TEXT_SetText(hItem,set_limit);
0000b0  4638              MOV      r0,r7
0000b2  e8bd41f0          POP      {r4-r8,lr}
0000b6  4977              LDR      r1,|L8.660|
0000b8  f7ffbffe          B.W      TEXT_SetText
;;;2271               break;
;;;2272           }
;;;2273           case set_32:
;;;2274           {
;;;2275               WM_HWIN hItem;
;;;2276   //            WM_InvalidateWindow(hWincdc);
;;;2277               hItem = WM_GetDialogItem(hWincdc, ID_TEXT_56);
0000bc  f6400175          MOV      r1,#0x875
0000c0  f7fffffe          BL       WM_GetDialogItem
0000c4  4607              MOV      r7,r0
;;;2278               if(bit < 6)
0000c6  7820              LDRB     r0,[r4,#0]  ; bit
0000c8  2806              CMP      r0,#6
0000ca  d203              BCS      |L8.212|
;;;2279   			{
;;;2280   				strcat(set_limit,num);
0000cc  4631              MOV      r1,r6
0000ce  4871              LDR      r0,|L8.660|
0000d0  f7fffffe          BL       strcat
                  |L8.212|
;;;2281   			}
;;;2282   			if(dot_flag != 0 && strcmp(num,".") == 0)
0000d4  7828              LDRB     r0,[r5,#0]  ; dot_flag
0000d6  b120              CBZ      r0,|L8.226|
0000d8  a16f              ADR      r1,|L8.664|
0000da  4630              MOV      r0,r6
0000dc  f7fffffe          BL       strcmp
0000e0  b158              CBZ      r0,|L8.250|
                  |L8.226|
;;;2283   			{
;;;2284   				
;;;2285   			}else{			
;;;2286   				
;;;2287   				if(dot_flag == 0 && strcmp(num,".") == 0)
0000e2  7828              LDRB     r0,[r5,#0]  ; dot_flag
0000e4  b930              CBNZ     r0,|L8.244|
0000e6  a16c              ADR      r1,|L8.664|
0000e8  4630              MOV      r0,r6
0000ea  f7fffffe          BL       strcmp
0000ee  b908              CBNZ     r0,|L8.244|
;;;2288   				{
;;;2289   					dot_flag = bit;
0000f0  7820              LDRB     r0,[r4,#0]  ; bit
0000f2  7028              STRB     r0,[r5,#0]
                  |L8.244|
;;;2290   				}
;;;2291   				bit ++;
0000f4  7820              LDRB     r0,[r4,#0]  ; bit
0000f6  1c40              ADDS     r0,r0,#1
0000f8  7020              STRB     r0,[r4,#0]
                  |L8.250|
;;;2292   			}
;;;2293   			TEXT_SetText(hItem,set_limit);
0000fa  4638              MOV      r0,r7
0000fc  e8bd41f0          POP      {r4-r8,lr}
000100  4964              LDR      r1,|L8.660|
000102  f7ffbffe          B.W      TEXT_SetText
;;;2294               break;
;;;2295           }
;;;2296           case set_33:
;;;2297           {
;;;2298               WM_HWIN hItem;
;;;2299   //            WM_InvalidateWindow(hWincdc);
;;;2300               hItem = WM_GetDialogItem(hWincdc, ID_TEXT_57);
000106  f6400176          MOV      r1,#0x876
00010a  f7fffffe          BL       WM_GetDialogItem
00010e  4607              MOV      r7,r0
;;;2301               if(bit < 6)
000110  7820              LDRB     r0,[r4,#0]  ; bit
000112  e000              B        |L8.278|
                  |L8.276|
000114  e0b4              B        |L8.640|
                  |L8.278|
000116  2806              CMP      r0,#6
000118  d203              BCS      |L8.290|
;;;2302   			{
;;;2303   				strcat(set_limit,num);
00011a  4631              MOV      r1,r6
00011c  485d              LDR      r0,|L8.660|
00011e  f7fffffe          BL       strcat
                  |L8.290|
;;;2304   			}
;;;2305   			if(dot_flag != 0 && strcmp(num,".") == 0)
000122  7828              LDRB     r0,[r5,#0]  ; dot_flag
000124  b120              CBZ      r0,|L8.304|
000126  a15c              ADR      r1,|L8.664|
000128  4630              MOV      r0,r6
00012a  f7fffffe          BL       strcmp
00012e  b158              CBZ      r0,|L8.328|
                  |L8.304|
;;;2306   			{
;;;2307   				
;;;2308   			}else{			
;;;2309   				
;;;2310   				if(dot_flag == 0 && strcmp(num,".") == 0)
000130  7828              LDRB     r0,[r5,#0]  ; dot_flag
000132  b930              CBNZ     r0,|L8.322|
000134  a158              ADR      r1,|L8.664|
000136  4630              MOV      r0,r6
000138  f7fffffe          BL       strcmp
00013c  b908              CBNZ     r0,|L8.322|
;;;2311   				{
;;;2312   					dot_flag = bit;
00013e  7820              LDRB     r0,[r4,#0]  ; bit
000140  7028              STRB     r0,[r5,#0]
                  |L8.322|
;;;2313   				}
;;;2314   				bit ++;
000142  7820              LDRB     r0,[r4,#0]  ; bit
000144  1c40              ADDS     r0,r0,#1
000146  7020              STRB     r0,[r4,#0]
                  |L8.328|
;;;2315   			}
;;;2316   			TEXT_SetText(hItem,set_limit);
000148  4638              MOV      r0,r7
00014a  e8bd41f0          POP      {r4-r8,lr}
00014e  4951              LDR      r1,|L8.660|
000150  f7ffbffe          B.W      TEXT_SetText
;;;2317               break;
;;;2318           }
;;;2319           case set_38:
;;;2320           {
;;;2321               WM_HWIN hItem;
;;;2322   //            WM_InvalidateWindow(hWincdc);
;;;2323               hItem = WM_GetDialogItem(hWincdc, ID_TEXT_62);
000154  f640017b          MOV      r1,#0x87b
000158  f7fffffe          BL       WM_GetDialogItem
00015c  4607              MOV      r7,r0
;;;2324               if(bit < 6)
00015e  7820              LDRB     r0,[r4,#0]  ; bit
000160  2806              CMP      r0,#6
000162  d203              BCS      |L8.364|
;;;2325   			{
;;;2326   				strcat(set_limit,num);
000164  4631              MOV      r1,r6
000166  484b              LDR      r0,|L8.660|
000168  f7fffffe          BL       strcat
                  |L8.364|
;;;2327   			}
;;;2328   			if(dot_flag != 0 && strcmp(num,".") == 0)
00016c  7828              LDRB     r0,[r5,#0]  ; dot_flag
00016e  b120              CBZ      r0,|L8.378|
000170  a149              ADR      r1,|L8.664|
000172  4630              MOV      r0,r6
000174  f7fffffe          BL       strcmp
000178  b158              CBZ      r0,|L8.402|
                  |L8.378|
;;;2329   			{
;;;2330   				
;;;2331   			}else{			
;;;2332   				
;;;2333   				if(dot_flag == 0 && strcmp(num,".") == 0)
00017a  7828              LDRB     r0,[r5,#0]  ; dot_flag
00017c  b930              CBNZ     r0,|L8.396|
00017e  a146              ADR      r1,|L8.664|
000180  4630              MOV      r0,r6
000182  f7fffffe          BL       strcmp
000186  b908              CBNZ     r0,|L8.396|
;;;2334   				{
;;;2335   					dot_flag = bit;
000188  7820              LDRB     r0,[r4,#0]  ; bit
00018a  7028              STRB     r0,[r5,#0]
                  |L8.396|
;;;2336   				}
;;;2337   				bit ++;
00018c  7820              LDRB     r0,[r4,#0]  ; bit
00018e  1c40              ADDS     r0,r0,#1
000190  7020              STRB     r0,[r4,#0]
                  |L8.402|
;;;2338   			}
;;;2339   			TEXT_SetText(hItem,set_limit);
000192  4638              MOV      r0,r7
000194  e8bd41f0          POP      {r4-r8,lr}
000198  493e              LDR      r1,|L8.660|
00019a  f7ffbffe          B.W      TEXT_SetText
;;;2340               break;
;;;2341           }
;;;2342           case set_39:
;;;2343           {
;;;2344               WM_HWIN hItem;
;;;2345   //            WM_InvalidateWindow(hWincdc);
;;;2346               hItem = WM_GetDialogItem(hWincdc, ID_TEXT_63);
00019e  f640017c          MOV      r1,#0x87c
0001a2  f7fffffe          BL       WM_GetDialogItem
0001a6  4607              MOV      r7,r0
;;;2347               if(bit < 6)
0001a8  7820              LDRB     r0,[r4,#0]  ; bit
0001aa  2806              CMP      r0,#6
0001ac  d203              BCS      |L8.438|
;;;2348   			{
;;;2349   				strcat(set_limit,num);
0001ae  4631              MOV      r1,r6
0001b0  4838              LDR      r0,|L8.660|
0001b2  f7fffffe          BL       strcat
                  |L8.438|
;;;2350   			}
;;;2351   			if(dot_flag != 0 && strcmp(num,".") == 0)
0001b6  7828              LDRB     r0,[r5,#0]  ; dot_flag
0001b8  b120              CBZ      r0,|L8.452|
0001ba  a137              ADR      r1,|L8.664|
0001bc  4630              MOV      r0,r6
0001be  f7fffffe          BL       strcmp
0001c2  b158              CBZ      r0,|L8.476|
                  |L8.452|
;;;2352   			{
;;;2353   				
;;;2354   			}else{			
;;;2355   				
;;;2356   				if(dot_flag == 0 && strcmp(num,".") == 0)
0001c4  7828              LDRB     r0,[r5,#0]  ; dot_flag
0001c6  b930              CBNZ     r0,|L8.470|
0001c8  a133              ADR      r1,|L8.664|
0001ca  4630              MOV      r0,r6
0001cc  f7fffffe          BL       strcmp
0001d0  b908              CBNZ     r0,|L8.470|
;;;2357   				{
;;;2358   					dot_flag = bit;
0001d2  7820              LDRB     r0,[r4,#0]  ; bit
0001d4  7028              STRB     r0,[r5,#0]
                  |L8.470|
;;;2359   				}
;;;2360   				bit ++;
0001d6  7820              LDRB     r0,[r4,#0]  ; bit
0001d8  1c40              ADDS     r0,r0,#1
0001da  7020              STRB     r0,[r4,#0]
                  |L8.476|
;;;2361   			}
;;;2362   			TEXT_SetText(hItem,set_limit);
0001dc  4638              MOV      r0,r7
0001de  e8bd41f0          POP      {r4-r8,lr}
0001e2  492c              LDR      r1,|L8.660|
0001e4  f7ffbffe          B.W      TEXT_SetText
;;;2363               break;
;;;2364           }
;;;2365           case set_40:
;;;2366           {
;;;2367               WM_HWIN hItem;
;;;2368   //            WM_InvalidateWindow(hWincdc);
;;;2369               hItem = WM_GetDialogItem(hWincdc, ID_TEXT_64);
0001e8  f640017d          MOV      r1,#0x87d
0001ec  f7fffffe          BL       WM_GetDialogItem
0001f0  4607              MOV      r7,r0
;;;2370               if(bit < 6)
0001f2  7820              LDRB     r0,[r4,#0]  ; bit
0001f4  2806              CMP      r0,#6
0001f6  d203              BCS      |L8.512|
;;;2371   			{
;;;2372   				strcat(set_limit,num);
0001f8  4631              MOV      r1,r6
0001fa  4826              LDR      r0,|L8.660|
0001fc  f7fffffe          BL       strcat
                  |L8.512|
;;;2373   			}
;;;2374   			if(dot_flag != 0 && strcmp(num,".") == 0)
000200  7828              LDRB     r0,[r5,#0]  ; dot_flag
000202  b120              CBZ      r0,|L8.526|
000204  a124              ADR      r1,|L8.664|
000206  4630              MOV      r0,r6
000208  f7fffffe          BL       strcmp
00020c  b168              CBZ      r0,|L8.554|
                  |L8.526|
;;;2375   			{
;;;2376   				
;;;2377   			}else{			
;;;2378   				
;;;2379   				if(dot_flag == 0 && strcmp(num,".") == 0)
00020e  7828              LDRB     r0,[r5,#0]  ; dot_flag
000210  b940              CBNZ     r0,|L8.548|
000212  a121              ADR      r1,|L8.664|
000214  4630              MOV      r0,r6
000216  e000              B        |L8.538|
000218  e00d              B        |L8.566|
                  |L8.538|
00021a  f7fffffe          BL       strcmp
00021e  b908              CBNZ     r0,|L8.548|
;;;2380   				{
;;;2381   					dot_flag = bit;
000220  7820              LDRB     r0,[r4,#0]  ; bit
000222  7028              STRB     r0,[r5,#0]
                  |L8.548|
;;;2382   				}
;;;2383   				bit ++;
000224  7820              LDRB     r0,[r4,#0]  ; bit
000226  1c40              ADDS     r0,r0,#1
000228  7020              STRB     r0,[r4,#0]
                  |L8.554|
;;;2384   			}
;;;2385   			TEXT_SetText(hItem,set_limit);
00022a  4638              MOV      r0,r7
00022c  e8bd41f0          POP      {r4-r8,lr}
000230  4918              LDR      r1,|L8.660|
000232  f7ffbffe          B.W      TEXT_SetText
                  |L8.566|
;;;2386               break;
;;;2387           }
;;;2388           case set_41:
;;;2389           {
;;;2390               WM_HWIN hItem;
;;;2391   //            WM_InvalidateWindow(hWincdc);
;;;2392               hItem = WM_GetDialogItem(hWincdc, ID_TEXT_65);
000236  f640017e          MOV      r1,#0x87e
00023a  f7fffffe          BL       WM_GetDialogItem
00023e  4607              MOV      r7,r0
;;;2393               if(bit < 6)
000240  7820              LDRB     r0,[r4,#0]  ; bit
000242  2806              CMP      r0,#6
000244  d203              BCS      |L8.590|
;;;2394   			{
;;;2395   				strcat(set_limit,num);
000246  4631              MOV      r1,r6
000248  4812              LDR      r0,|L8.660|
00024a  f7fffffe          BL       strcat
                  |L8.590|
;;;2396   			}
;;;2397   			if(dot_flag != 0 && strcmp(num,".") == 0)
00024e  7828              LDRB     r0,[r5,#0]  ; dot_flag
000250  b120              CBZ      r0,|L8.604|
000252  a111              ADR      r1,|L8.664|
000254  4630              MOV      r0,r6
000256  f7fffffe          BL       strcmp
00025a  b158              CBZ      r0,|L8.628|
                  |L8.604|
;;;2398   			{
;;;2399   				
;;;2400   			}else{			
;;;2401   				
;;;2402   				if(dot_flag == 0 && strcmp(num,".") == 0)
00025c  7828              LDRB     r0,[r5,#0]  ; dot_flag
00025e  b930              CBNZ     r0,|L8.622|
000260  a10d              ADR      r1,|L8.664|
000262  4630              MOV      r0,r6
000264  f7fffffe          BL       strcmp
000268  b908              CBNZ     r0,|L8.622|
;;;2403   				{
;;;2404   					dot_flag = bit;
00026a  7820              LDRB     r0,[r4,#0]  ; bit
00026c  7028              STRB     r0,[r5,#0]
                  |L8.622|
;;;2405   				}
;;;2406   				bit ++;
00026e  7820              LDRB     r0,[r4,#0]  ; bit
000270  1c40              ADDS     r0,r0,#1
000272  7020              STRB     r0,[r4,#0]
                  |L8.628|
;;;2407   			}
;;;2408   			TEXT_SetText(hItem,set_limit);
000274  4638              MOV      r0,r7
000276  e8bd41f0          POP      {r4-r8,lr}
00027a  4906              LDR      r1,|L8.660|
00027c  f7ffbffe          B.W      TEXT_SetText
                  |L8.640|
;;;2409               break;
;;;2410           }
;;;2411           
;;;2412       }    
;;;2413   }
000280  e8bd81f0          POP      {r4-r8,pc}
;;;2414   
                          ENDP

                  |L8.644|
                          DCD      set_sw
                  |L8.648|
                          DCD      ||.data||
                  |L8.652|
                          DCD      dot_flag
                  |L8.656|
                          DCD      bit
                  |L8.660|
                          DCD      set_limit
                  |L8.664|
000298  2e00              DCB      ".",0
00029a  00                DCB      0
00029b  00                DCB      0

                          AREA ||i.ResetCDC||, CODE, READONLY, ALIGN=2

                  ResetCDC PROC
;;;1129   
;;;1130   WM_HWIN ResetCDC(void) {
000000  b51c              PUSH     {r2-r4,lr}
;;;1131     hWincdc = GUI_CreateDialogBox(_aDialogCreate4, GUI_COUNTOF(_aDialogCreate4), _cbDialog, WM_HBKWIN, 0, 0);
000002  f7fffffe          BL       WM_GetDesktopWindow
000006  4603              MOV      r3,r0
000008  2000              MOVS     r0,#0
00000a  9000              STR      r0,[sp,#0]
00000c  9001              STR      r0,[sp,#4]
00000e  4a04              LDR      r2,|L9.32|
000010  2129              MOVS     r1,#0x29
000012  4804              LDR      r0,|L9.36|
000014  f7fffffe          BL       GUI_CreateDialogBox
000018  4903              LDR      r1,|L9.40|
00001a  6188              STR      r0,[r1,#0x18]  ; hWincdc
;;;1132     return hWincdc;
;;;1133   }
00001c  bd1c              POP      {r2-r4,pc}
;;;1134   
                          ENDP

00001e  0000              DCW      0x0000
                  |L9.32|
                          DCD      _cbDialog
                  |L9.36|
                          DCD      ||.constdata||
                  |L9.40|
                          DCD      ||.data||

                          AREA ||i._cbDialog||, CODE, READONLY, ALIGN=2

                          REQUIRE _printf_pre_padding
                          REQUIRE _printf_percent
                          REQUIRE _printf_flags
                          REQUIRE _printf_widthprec
                          REQUIRE _printf_d
                          REQUIRE _printf_int_dec
                          REQUIRE _printf_f
                          REQUIRE _printf_fp_dec
                  _cbDialog PROC
;;;201    */
;;;202    static void _cbDialog(WM_MESSAGE * pMsg) {
000000  e92d4ff0          PUSH     {r4-r11,lr}
000004  ed2d8b0a          VPUSH    {d8-d12}
000008  b083              SUB      sp,sp,#0xc
00000a  4604              MOV      r4,r0
;;;203      WM_HWIN hItem;
;;;204      
;;;205      char buf[5];    
;;;206      
;;;207      float dis_load_c = (float)SET_Current_Laod/1000;
00000c  4dfd              LDR      r5,|L10.1028|
00000e  6928              LDR      r0,[r5,#0x10]  ; Run_Control
000010  ee000a10          VMOV     s0,r0
000014  eeb80a40          VCVT.F32.U32 s0,s0
000018  eddfaafb          VLDR     s21,|L10.1032|
00001c  ee80ba2a          VDIV.F32 s22,s0,s21
;;;208      float dis_output_v = (float)SET_Voltage/100;
000020  6868              LDR      r0,[r5,#4]  ; Run_Control
000022  ee000a10          VMOV     s0,r0
000026  eeb80a40          VCVT.F32.U32 s0,s0
00002a  eddfbaf8          VLDR     s23,|L10.1036|
00002e  eec0ca2b          VDIV.F32 s25,s0,s23
;;;209      float dis_output_c = (float)SET_Current/1000;
000032  68a8              LDR      r0,[r5,#8]  ; Run_Control
000034  ee000a10          VMOV     s0,r0
000038  eeb80a40          VCVT.F32.U32 s0,s0
00003c  ee80ca2a          VDIV.F32 s24,s0,s21
;;;210      float dis_c_cutoff_v = (float)cov1/100;
000040  4ef3              LDR      r6,|L10.1040|
000042  8830              LDRH     r0,[r6,#0]  ; coff
000044  ee000a10          VMOV     s0,r0
000048  eeb80a40          VCVT.F32.U32 s0,s0
00004c  ee80aa2b          VDIV.F32 s20,s0,s23
;;;211      float dis_c_cutoff_c = (float)coc1/1000;
000050  88f0              LDRH     r0,[r6,#6]  ; coff
000052  ee000a10          VMOV     s0,r0
000056  eeb80a40          VCVT.F32.U32 s0,s0
00005a  eec09a2a          VDIV.F32 s19,s0,s21
;;;212      float dis_dc_cutoff_v = (float)set_dc_cutoff_v/1000;
00005e  6ee8              LDR      r0,[r5,#0x6c]  ; Run_Control
000060  ee000a10          VMOV     s0,r0
000064  eeb80a40          VCVT.F32.U32 s0,s0
000068  ee809a2a          VDIV.F32 s18,s0,s21
;;;213      float dis_dc_cutoff_c = (float)set_dc_cutoff_c/100;
00006c  6f28              LDR      r0,[r5,#0x70]  ; Run_Control
;;;214    
;;;215      // USER START (Optionally insert additional variables)
;;;216      // USER END
;;;217    
;;;218      switch (pMsg->MsgId) {
00006e  6820              LDR      r0,[r4,#0]
;;;219    		
;;;220    	case WM_PAINT:
;;;221    
;;;222            GUI_SetColor(GUI_WHITE);//ʨ׃ۭҊҕɫ
;;;223            GUI_FillRect(0,25,480,26);//ۭһ͵ʵП
;;;224            GUI_SetColor(GUI_ORANGE);
;;;225            GUI_SetFont(&GUI_Fontsymbol);
;;;226            GUI_UC_SetEncodeUTF8();
;;;227            GUI_SetTextMode(GUI_TM_TRANS);//ʨ׃τѾģʽΪ֗ɫ͸ķ
;;;228            GUI_DispStringAt("Jinko", 5, 1);//SET
;;;229            GUI_SetColor(GUI_WHITE);
;;;230            GUI_SetFont(&GUI_FontHZ20S);
;;;231            GUI_UC_SetEncodeUTF8();
;;;232            GUI_SetTextMode(GUI_TM_TRANS);//ʨ׃τѾģʽΪ֗ɫ͸ķ
;;;233    //         GUI_DispStringAt("测量显示", 130, 3);//SET
;;;234            GUI_SetColor(GUI_WHITE);//ʨ׃ǰްɫΪїɫ
;;;235            GUI_SetFont(&GUI_Font24_1);
;;;236            
;;;237    
;;;238            GUI_SetFont(&GUI_FontEN40);
;;;239            GUI_SetColor(GUI_LIGHTGRAY);
000070  f8df83a0          LDR      r8,|L10.1044|
;;;240            GUI_DispStringAt("C:", 28, 190);
;;;241            GUI_SetColor(GUI_LIGHTGRAY);
;;;242            GUI_DispStringAt("m", 217, 196);
;;;243            GUI_DispStringAt("AH", 238, 187);
;;;244            
;;;245            GUI_SetColor(GUI_GREEN);
000074  f44f4a7f          MOV      r10,#0xff00
000078  f06f497f          MVN      r9,#0xff000000        ;222
00007c  280f              CMP      r0,#0xf               ;218
00007e  d013              BEQ      |L10.168|
;;;246            GUI_SetFont(&GUI_Fontunit);
;;;247            GUI_DispStringAt("°",372+60, 2);
;;;248            GUI_SetFont(&GUI_Font24_1);
;;;249            GUI_DispStringAt("C",380+60, 2);       
;;;250    //        DrawLockc();
;;;251            
;;;252            GUI_SetColor(GUI_WHITE);
;;;253            GUI_SetFont(&GUI_Fontset_font);
;;;254            GUI_DispStringAt("充电",115, 4);
;;;255            GUI_DispStringAt("放电",255, 4);
;;;256            GUI_SetFont(&GUI_Font24_1);
;;;257            GUI_DispStringAt(":",320, 3);
;;;258            GUI_DispStringAt(":",350, 3);
;;;259            GUI_DispStringAt(":",180, 3);
;;;260            GUI_DispStringAt(":",210, 3);
;;;261        
;;;262    	break;
;;;263    	case WM_TIMER://֨ʱģࠩлϢ
;;;264    	if(WM_GetTimerId(pMsg->Data.v) == ID_TimerTime4)
;;;265    	{
;;;266    //        lockstat2 = lockstat1;
;;;267    //        lockstat1 = lock; 
;;;268    //        if(lockstat1 != lockstat2)
;;;269    //        {
;;;270    //            WM_InvalidateWindow(hWincdc);
;;;271    //        }
;;;272    //        
;;;273    		if(lock == 1)
;;;274    		{
;;;275    			hItem = WM_GetDialogItem(pMsg->hWin, ID_TEXT_163);
000080  f6401b3e          MOV      r11,#0x93e
;;;276    			TEXT_SetText(hItem,"锁");
;;;277    		}else{
;;;278    			hItem = WM_GetDialogItem(pMsg->hWin, ID_TEXT_163);
;;;279    			TEXT_SetText(hItem,"");
;;;280    		}
;;;281    		
;;;282            hItem = WM_GetDialogItem(pMsg->hWin, ID_TEXT_74);
000084  f6400787          MOV      r7,#0x887
;;;283            sprintf(buf,"%02d",hour);
;;;284            TEXT_SetTextColor(hItem, GUI_WHITE);//设置字体颜色
;;;285            TEXT_SetFont(hItem,&GUI_Font24_1);//设定文本字体
;;;286            GUI_UC_SetEncodeUTF8();        
;;;287            TEXT_SetText(hItem,buf);
;;;288    
;;;289            hItem = WM_GetDialogItem(pMsg->hWin, ID_TEXT_75);
;;;290            sprintf(buf,"%02d",minute);
;;;291            TEXT_SetTextColor(hItem, GUI_WHITE);//设置字体颜色
;;;292            TEXT_SetFont(hItem,&GUI_Font24_1);//设定文本字体
;;;293            GUI_UC_SetEncodeUTF8();        
;;;294            TEXT_SetText(hItem,buf);
;;;295            
;;;296            hItem = WM_GetDialogItem(pMsg->hWin, ID_TEXT_76);
;;;297            sprintf(buf,"%02d",second);
;;;298            TEXT_SetTextColor(hItem, GUI_WHITE);//设置字体颜色
;;;299            TEXT_SetFont(hItem,&GUI_Font24_1);//设定文本字体
;;;300            GUI_UC_SetEncodeUTF8();        
;;;301            TEXT_SetText(hItem,buf);
;;;302            
;;;303            hItem = WM_GetDialogItem(pMsg->hWin, ID_TEXT_72);
;;;304            sprintf(buf,"%02d",hour1);
;;;305            TEXT_SetTextColor(hItem, GUI_WHITE);//设置字体颜色
;;;306            TEXT_SetFont(hItem,&GUI_Font24_1);//设定文本字体
;;;307            GUI_UC_SetEncodeUTF8();        
;;;308            TEXT_SetText(hItem,buf);
;;;309    
;;;310            hItem = WM_GetDialogItem(pMsg->hWin, ID_TEXT_73);
;;;311            sprintf(buf,"%02d",minute1);
;;;312            TEXT_SetTextColor(hItem, GUI_WHITE);//设置字体颜色
;;;313            TEXT_SetFont(hItem,&GUI_Font24_1);//设定文本字体
;;;314            GUI_UC_SetEncodeUTF8();        
;;;315            TEXT_SetText(hItem,buf);
;;;316            
;;;317            hItem = WM_GetDialogItem(pMsg->hWin, ID_TEXT_135);
;;;318            sprintf(buf,"%02d",second1);
;;;319            TEXT_SetTextColor(hItem, GUI_WHITE);//设置字体颜色
;;;320            TEXT_SetFont(hItem,&GUI_Font24_1);//设定文本字体
;;;321            GUI_UC_SetEncodeUTF8();        
;;;322            TEXT_SetText(hItem,buf);
;;;323            
;;;324            if(mode_sw == mode_pow && cdc_sw == cdc_on){
;;;325                
;;;326                
;;;327                hItem = WM_GetDialogItem(pMsg->hWin, ID_TEXT_66);
;;;328                sprintf(buf,"%.2f",DISS_POW_Voltage);       
;;;329                TEXT_SetText(hItem,buf);
;;;330                
;;;331                hItem = WM_GetDialogItem(pMsg->hWin, ID_TEXT_67);
;;;332                sprintf(buf,"%.3f",DISS_POW_Current);
;;;333                TEXT_SetText(hItem,buf);
;;;334                
;;;335                battery_c = cbc_raw;
;;;336                hItem = WM_GetDialogItem(pMsg->hWin, ID_TEXT_68);
;;;337                sprintf(buf,"%05d",battery_c);
;;;338                TEXT_SetText(hItem,buf);
;;;339                
;;;340                hItem = WM_GetDialogItem(pMsg->hWin, ID_TEXT_77);
;;;341                TEXT_SetTextColor(hItem, GUI_GREEN);//设置字体颜色
;;;342                TEXT_SetFont(hItem,&GUI_Font24_1);//设定文本字体
;;;343                GUI_UC_SetEncodeUTF8();
;;;344                TEXT_SetText(hItem,"(");
;;;345                
;;;346                hItem = WM_GetDialogItem(pMsg->hWin, ID_TEXT_78);
;;;347                TEXT_SetTextColor(hItem, GUI_GREEN);//设置字体颜色
;;;348                TEXT_SetFont(hItem,&GUI_Font24_1);//设定文本字体
;;;349                GUI_UC_SetEncodeUTF8();
;;;350                TEXT_SetText(hItem,")");
;;;351                
;;;352                hItem = WM_GetDialogItem(pMsg->hWin, ID_TEXT_79);
;;;353                TEXT_SetTextColor(hItem, GUI_GREEN);//设置字体颜色
;;;354                sprintf(buf,"%2d",count);
;;;355                TEXT_SetFont(hItem,&GUI_Font24_1);//设定文本字体
;;;356                GUI_UC_SetEncodeUTF8();
;;;357                TEXT_SetText(hItem,buf);
;;;358                
;;;359                hItem = WM_GetDialogItem(pMsg->hWin, ID_TEXT_69);
;;;360                TEXT_SetTextColor(hItem, GUI_RED);//设置字体颜色
;;;361                
;;;362                hItem = WM_GetDialogItem(pMsg->hWin, ID_TEXT_70);
;;;363                TEXT_SetTextColor(hItem, GUI_WHITE);//设置字体颜色
;;;364                
;;;365    //             hItem = WM_GetDialogItem(pMsg->hWin, ID_TEXT_72);        
;;;366    //             TEXT_SetText(hItem,"");
;;;367    
;;;368    //             hItem = WM_GetDialogItem(pMsg->hWin, ID_TEXT_73);     
;;;369    //             TEXT_SetText(hItem,"");
;;;370    //             
;;;371    //             hItem = WM_GetDialogItem(pMsg->hWin, ID_TEXT_74);      
;;;372    //             TEXT_SetText(hItem,"");
;;;373    //             
;;;374    //             hItem = WM_GetDialogItem(pMsg->hWin, ID_TEXT_75);      
;;;375    //             TEXT_SetText(hItem,"");
;;;376    //             
;;;377    //             hItem = WM_GetDialogItem(pMsg->hWin, ID_TEXT_76);      
;;;378    //             TEXT_SetText(hItem,"");
;;;379                
;;;380    //             if(charge_step == 1)
;;;381    //             {
;;;382    //                 hItem = WM_GetDialogItem(pMsg->hWin, ID_TEXT_119);
;;;383    //                 TEXT_SetText(hItem,"步骤1");
;;;384    //             }else if(charge_step == 2){
;;;385    //                  hItem = WM_GetDialogItem(pMsg->hWin, ID_TEXT_119);
;;;386    //                 TEXT_SetText(hItem,"步骤2");
;;;387    //             }else if(charge_step == 3){
;;;388    //                  hItem = WM_GetDialogItem(pMsg->hWin, ID_TEXT_119);
;;;389    //                 TEXT_SetText(hItem,"步骤3");
;;;390    //             }
;;;391                
;;;392                if(status_flash == 0){
;;;393                    hItem = WM_GetDialogItem(pMsg->hWin, ID_TEXT_71);
;;;394                    TEXT_SetTextColor(hItem, GUI_RED);//设置字体颜色
;;;395                    TEXT_SetFont(hItem,&GUI_FontHZ16);//设定文本字体
;;;396                    GUI_UC_SetEncodeUTF8();
;;;397                    TEXT_SetText(hItem,"充电中");
;;;398                    status_flash = 1;
;;;399                }else{
;;;400                    hItem = WM_GetDialogItem(pMsg->hWin, ID_TEXT_71);
;;;401                    TEXT_SetText(hItem,"");
;;;402                    status_flash = 0;
;;;403                }
;;;404    //             if(opv2 == 0 && opv3 == 0 && opc2 == 0 && opc3 == 0)
;;;405    //             {
;;;406    //                 if(cov1 == 0 || coc1 == 0)
;;;407    //                 {
;;;408    //                     if(((DISS_POW_Voltage >= (float)cov1/100 && cov1 != 0) || DISS_POW_Current < (float)coc1/1000) && cutoff_flag == 0){//判断电流是否小于截止电流，并记录时间
;;;409    //                     cutoff_time = GUI_GetTime()/500;
;;;410    //                     cutoff_flag = 1;
;;;411    //                     }
;;;412    //                     if(((DISS_POW_Voltage >= (float)cov1/100 && cov1 != 0) || DISS_POW_Current < (float)coc1/1000) && (GUI_GetTime()/500 - cutoff_time) >= 10 )//若测量电流小于截止电流
;;;413    //                     {
;;;414    //                         if(mode_sw == mode_pow){
;;;415    //                             start_time = GUI_GetTime()/500;//记录开始时间
;;;416    //                         }
;;;417    //                         cutoff_flag = 0;
;;;418    //                         GPIO_ResetBits(GPIOC,GPIO_Pin_1);//关闭电源输出
;;;419    //                         //GPIO_SetBits(GPIOC,GPIO_Pin_13);//关闭电源输出继电器                  
;;;420    //     //                     Mode_SW_CONT(0x02);//切换至负载模式
;;;421    //     //                     GPIO_ResetBits(GPIOC,GPIO_Pin_1);//开启负载
;;;422    //                         GPIO_ResetBits(GPIOC,GPIO_Pin_10);//CC
;;;423    //                          GPIO_ResetBits(GPIOA,GPIO_Pin_15);//电子负载On
;;;424    //                         mode_sw = mode_load;
;;;425    //                     }
;;;426    //                 }else{
;;;427    //                     if(((DISS_POW_Voltage >= (float)cov1/100 && cov1 != 0) && DISS_POW_Current < (float)coc1/1000) && cutoff_flag == 0){//判断电流是否小于截止电流，并记录时间
;;;428    //                     cutoff_time = GUI_GetTime()/500;
;;;429    //                     cutoff_flag = 1;
;;;430    //                     }
;;;431    //                     if(((DISS_POW_Voltage >= (float)cov1/100 && cov1 != 0) && DISS_POW_Current < (float)coc1/1000) && (GUI_GetTime()/500 - cutoff_time) >= 10 )//若测量电流小于截止电流
;;;432    //                     {
;;;433    //                         if(mode_sw == mode_pow){
;;;434    //                             start_time = GUI_GetTime()/500;//记录开始时间
;;;435    //                         }
;;;436    //                         cutoff_flag = 0;
;;;437    //                         GPIO_ResetBits(GPIOC,GPIO_Pin_1);//关闭电源输出
;;;438    //                         //GPIO_SetBits(GPIOC,GPIO_Pin_13);//关闭电源输出继电器                   
;;;439    //     //                     Mode_SW_CONT(0x02);//切换至负载模式
;;;440    //     //                     GPIO_ResetBits(GPIOC,GPIO_Pin_1);//开启负载
;;;441    //                         GPIO_ResetBits(GPIOC,GPIO_Pin_10);//CC
;;;442    //                          GPIO_ResetBits(GPIOA,GPIO_Pin_15);//电子负载On
;;;443    //                         mode_sw = mode_load;
;;;444    //                     }
;;;445    //                 }
;;;446    //                 
;;;447    //             }else if(opv3 == 0 && opc3 == 0){
;;;448    //                 if(cov1 == 0 || coc1 == 0)
;;;449    //                 { 
;;;450    //                     if(((DISS_POW_Voltage >= (float)cov1/100 && cov1 != 0) || DISS_POW_Current < (float)coc1/1000) && cutoff_flag == 0 && charge_step == 1)
;;;451    //                     {//判断电流是否小于截止电流，并记录时间
;;;452    //                         SET_Voltage = opv2;
;;;453    //                         SET_Current = opc2;
;;;454    //                         charge_step = 2;
;;;455    //                     }
;;;456    //                 }else{
;;;457    //                     if(((DISS_POW_Voltage >= (float)cov1/100 && cov1 != 0) && DISS_POW_Current < (float)coc1/1000) && cutoff_flag == 0 && charge_step == 1)
;;;458    //                     {//判断电流是否小于截止电流，并记录时间
;;;459    //                         SET_Voltage = opv2;
;;;460    //                         SET_Current = opc2;
;;;461    //                         charge_step = 2;
;;;462    //                     }
;;;463    //                 }
;;;464    //                 
;;;465    //                 if(cov2 == 0 || coc2 == 0)
;;;466    //                 {
;;;467    //                     if(((DISS_POW_Voltage >= (float)cov2/100 && cov2 != 0) || DISS_POW_Current < (float)coc2/1000) && cutoff_flag == 0 && charge_step == 2){//判断电流是否小于截止电流，并记录时间
;;;468    //                     cutoff_time = GUI_GetTime()/500;
;;;469    //                     cutoff_flag = 1;
;;;470    //                     }
;;;471    //                     if(((DISS_POW_Voltage >= (float)cov2/100 && cov2 != 0) || DISS_POW_Current < (float)coc2/1000) && (GUI_GetTime()/500 - cutoff_time) >= 10 && charge_step == 2)//若测量电流小于截止电流
;;;472    //                     {
;;;473    //                         if(mode_sw == mode_pow){
;;;474    //                             start_time = GUI_GetTime()/500;//记录开始时间
;;;475    //                         }
;;;476    //                         cutoff_flag = 0;
;;;477    //                         GPIO_ResetBits(GPIOC,GPIO_Pin_1);//关闭电源输出
;;;478    //                         //GPIO_SetBits(GPIOC,GPIO_Pin_13);//关闭电源输出继电器
;;;479    //     //                     Mode_SW_CONT(0x02);//切换至负载模式
;;;480    //     //                     GPIO_ResetBits(GPIOC,GPIO_Pin_1);//开启负载
;;;481    //                         GPIO_ResetBits(GPIOC,GPIO_Pin_10);//CC
;;;482    //                         GPIO_ResetBits(GPIOA,GPIO_Pin_15);//电子负载On
;;;483    //                         mode_sw = mode_load;
;;;484    //                     }
;;;485    //                 }else{
;;;486    //                     if(((DISS_POW_Voltage >= (float)cov2/100 && cov2 != 0) && DISS_POW_Current < (float)coc2/1000) && cutoff_flag == 0 && charge_step == 2){//判断电流是否小于截止电流，并记录时间
;;;487    //                     cutoff_time = GUI_GetTime()/500;
;;;488    //                     cutoff_flag = 1;
;;;489    //                     }
;;;490    //                     if(((DISS_POW_Voltage >= (float)cov2/100 && cov2 != 0) && DISS_POW_Current < (float)coc2/1000) && (GUI_GetTime()/500 - cutoff_time) >= 10 && charge_step == 2)//若测量电流小于截止电流
;;;491    //                     {
;;;492    //                         if(mode_sw == mode_pow){
;;;493    //                             start_time = GUI_GetTime()/500;//记录开始时间
;;;494    //                         }
;;;495    //                         cutoff_flag = 0;
;;;496    //                         GPIO_ResetBits(GPIOC,GPIO_Pin_1);//关闭电源输出
;;;497    //                         //GPIO_SetBits(GPIOC,GPIO_Pin_13);//关闭电源输出继电器
;;;498    //     //                     Mode_SW_CONT(0x02);//切换至负载模式
;;;499    //     //                     GPIO_ResetBits(GPIOC,GPIO_Pin_1);//开启负载
;;;500    //                         GPIO_ResetBits(GPIOC,GPIO_Pin_12);//CC
;;;501    //                         GPIO_ResetBits(GPIOA,GPIO_Pin_15);//电子负载On
;;;502    //                         mode_sw = mode_load;
;;;503    //                     }
;;;504    //                 }
;;;505    //                 
;;;506    //             }else if((opv1 != 0 || opc1 != 0) && (opv2 != 0 || opc2 != 0) && (opv3 != 0 || opc3 != 0)){
;;;507    //                 if(cov1 == 0 || coc1 == 0)
;;;508    //                 { 
;;;509    //                     if(((DISS_POW_Voltage >= (float)cov1/100 && cov1 != 0) || DISS_POW_Current < (float)coc1/1000) && cutoff_flag == 0 && charge_step == 1)
;;;510    //                     {//判断电流是否小于截止电流，并记录时间
;;;511    //                         SET_Voltage = opv2;
;;;512    //                         SET_Current = opc2;
;;;513    //                         charge_step = 2;
;;;514    //                     }
;;;515    //                 }else{
;;;516    //                     if(((DISS_POW_Voltage >= (float)cov1/100 && cov1 != 0) && DISS_POW_Current < (float)coc1/1000) && cutoff_flag == 0 && charge_step == 1)
;;;517    //                     {//判断电流是否小于截止电流，并记录时间
;;;518    //                         SET_Voltage = opv2;
;;;519    //                         SET_Current = opc2;
;;;520    //                         charge_step = 2;
;;;521    //                     }
;;;522    //                 }
;;;523    //                 
;;;524    //                 if(cov2 == 0 || coc2 == 0)
;;;525    //                 {
;;;526    //                     if(((DISS_POW_Voltage > (float)cov2/100 && cov2 != 0) || DISS_POW_Current < (float)coc2/1000) && cutoff_flag == 0 && charge_step == 2)
;;;527    //                     {//判断电流是否小于截止电流，并记录时间
;;;528    //                         SET_Voltage = opv3;
;;;529    //                         SET_Current = opc3;
;;;530    //                         charge_step = 3;
;;;531    //                     }
;;;532    //                 }else{
;;;533    //                     if(((DISS_POW_Voltage > (float)cov2/100 && cov2 != 0) && DISS_POW_Current < (float)coc2/1000) && cutoff_flag == 0 && charge_step == 2)
;;;534    //                     {//判断电流是否小于截止电流，并记录时间
;;;535    //                         SET_Voltage = opv3;
;;;536    //                         SET_Current = opc3;
;;;537    //                         charge_step = 3;
;;;538    //                     }
;;;539    //                 }
;;;540    //                 
;;;541    //                 if(cov3 == 0 || coc3 == 0)
;;;542    //                 {
;;;543    //                     if(((DISS_POW_Voltage > (float)cov3/100 && cov3 != 0) || DISS_POW_Current < (float)coc3/1000) && cutoff_flag == 0 && charge_step == 3){//判断电流是否小于截止电流，并记录时间
;;;544    //                         cutoff_time = GUI_GetTime()/500;
;;;545    //                         cutoff_flag = 1;
;;;546    //                     }
;;;547    //                     if(((DISS_POW_Voltage > (float)cov3/100 && cov3 != 0) || DISS_POW_Current < (float)coc3/1000) && (GUI_GetTime()/500 - cutoff_time) >= 10 && charge_step == 3)//若测量电流小于截止电流
;;;548    //                     {
;;;549    //                         if(mode_sw == mode_pow){
;;;550    //                             start_time = GUI_GetTime()/500;//记录开始时间
;;;551    //                         }
;;;552    //                         cutoff_flag = 0;
;;;553    //                         GPIO_ResetBits(GPIOC,GPIO_Pin_1);//关闭电源输出
;;;554    //                         //GPIO_SetBits(GPIOC,GPIO_Pin_13);//关闭电源输出继电器
;;;555    //     //                     Mode_SW_CONT(0x02);//切换至负载模式
;;;556    //     //                     GPIO_ResetBits(GPIOC,GPIO_Pin_1);//开启负载
;;;557    //                         GPIO_ResetBits(GPIOC,GPIO_Pin_10);//CC
;;;558    //                          GPIO_ResetBits(GPIOA,GPIO_Pin_15);//电子负载On
;;;559    //                         mode_sw = mode_load;
;;;560    //                     }
;;;561    //                 }else{
;;;562    //                     if(((DISS_POW_Voltage > (float)cov3/100 && cov3 != 0) && DISS_POW_Current < (float)coc3/1000) && cutoff_flag == 0 && charge_step == 3){//判断电流是否小于截止电流，并记录时间
;;;563    //                         cutoff_time = GUI_GetTime()/500;
;;;564    //                         cutoff_flag = 1;
;;;565    //                     }
;;;566    //                     if(((DISS_POW_Voltage > (float)cov3/100 && cov3 != 0) && DISS_POW_Current < (float)coc3/1000) && (GUI_GetTime()/500 - cutoff_time) >= 10 && charge_step == 3)//若测量电流小于截止电流
;;;567    //                     {
;;;568    //                         if(mode_sw == mode_pow){
;;;569    //                             start_time = GUI_GetTime()/500;//记录开始时间
;;;570    //                         }
;;;571    //                         cutoff_flag = 0;
;;;572    //                         GPIO_ResetBits(GPIOC,GPIO_Pin_1);//关闭电源输出
;;;573    //                         //GPIO_SetBits(GPIOC,GPIO_Pin_13);//关闭电源输出继电器
;;;574    //     //                     Mode_SW_CONT(0x02);//切换至负载模式
;;;575    //     //                     GPIO_ResetBits(GPIOC,GPIO_Pin_1);//开启负载
;;;576    //                         GPIO_ResetBits(GPIOC,GPIO_Pin_10);//CC
;;;577    //                          GPIO_ResetBits(GPIOA,GPIO_Pin_15);//电子负载On
;;;578    //                         mode_sw = mode_load;
;;;579    //                     }
;;;580    //                 }
;;;581    //             }
;;;582                
;;;583                if(charge_step == 1)
;;;584                {
;;;585                    if(DISS_POW_Voltage >= (float)cov1/100 && cov1 != 0)//若测量电流小于截止电流
;;;586                    {
;;;587                        SET_Current = 100;
;;;588                        charge_step =2;
;;;589                    }
;;;590                }else if(charge_step == 2){
;;;591                    if(DISS_POW_Current < ((float)coc1/1000))//若测量电流小于截止电流
;;;592                    {
;;;593                        GPIO_ResetBits(GPIOC,GPIO_Pin_1);//关闭电源输出
;;;594                        //GPIO_SetBits(GPIOC,GPIO_Pin_13);//关闭电源输出继电?
;;;595    					SET_Current_Laod = cdc_dc;
;;;596    //                     Mode_SW_CONT(0x02);//切换至负载模?
;;;597    //                     GPIO_ResetBits(GPIOC,GPIO_Pin_1);//开启负?
;;;598                        GPIO_SetBits(GPIOC,GPIO_Pin_10);//CC
;;;599                         GPIO_ResetBits(GPIOA,GPIO_Pin_15);//电子负载On
;;;600                        mode_sw = mode_load;
;;;601                    }
;;;602                }
;;;603    //			else if(charge_step == 3){
;;;604    //                if((DISS_POW_Voltage >= (float)cov1/100 && cov1 != 0) && (DISS_POW_Current <= 8))//若测量电流小于截止电流
;;;605    //                {
;;;606    //                    GPIO_ResetBits(GPIOC,GPIO_Pin_1);//关闭电源输出
;;;607    //                    //GPIO_SetBits(GPIOC,GPIO_Pin_13);//关闭电源输出继电器
;;;608    ////                     Mode_SW_CONT(0x02);//切换至负载模式
;;;609    ////                     GPIO_ResetBits(GPIOC,GPIO_Pin_1);//开启负载
;;;610    //                    GPIO_ResetBits(GPIOC,GPIO_Pin_10);//CC
;;;611    //                     GPIO_ResetBits(GPIOA,GPIO_Pin_15);//电子负载On
;;;612    //                    mode_sw = mode_load;
;;;613    //                }
;;;614    //            }
;;;615                
;;;616    //             if(DISS_POW_Current < dis_c_cutoff_c && cutoff_flag == 0){//判断电流是否小于截止电流，并记录时间
;;;617    //                 cutoff_time = GUI_GetTime()/500;
;;;618    //                 cutoff_flag = 1;
;;;619    //             }
;;;620    //             if(((DISS_POW_Voltage >= dis_c_cutoff_v && dis_c_cutoff_v != 0) || DISS_POW_Current < dis_c_cutoff_c) && (GUI_GetTime()/500 - cutoff_time) >= 10 )//若测量电流小于截止电流
;;;621    //             {
;;;622    //                 if(mode_sw == mode_pow){
;;;623    //                     start_time = GUI_GetTime()/500;//记录开始时间
;;;624    //                 }
;;;625    //                 cutoff_flag = 0;
;;;626    //                 Mode_SW_CONT(0x02);//切换至负载模式
;;;627    //                 GPIO_ResetBits(GPIOC,GPIO_Pin_1);//开启负载
;;;628    //             }          
;;;629            }else if(mode_sw == mode_load && cdc_sw == cdc_on){
;;;630                charge_step = 1;
;;;631                hItem = WM_GetDialogItem(pMsg->hWin, ID_TEXT_119);
;;;632                TEXT_SetText(hItem,"");
;;;633    //             if(paused == 0){
;;;634    //                 second = (GUI_GetTime()/500-start_time)%60;//秒
;;;635    //                 minute = ((GUI_GetTime()/500-start_time)/60)%60;//分
;;;636    //                 hour   = (GUI_GetTime()/500-start_time)/3600;//时
;;;637    //             }else{
;;;638    //                 second = (GUI_GetTime()/500-restart_time + pause_time)%60;//秒 
;;;639    //                 minute = ((GUI_GetTime()/500-restart_time + pause_time)/60)%60;//分
;;;640    //                 hour = ((GUI_GetTime()/500-restart_time) + pause_time)/3600;//时
;;;641    //             }
;;;642                
;;;643                
;;;644                
;;;645                
;;;646                
;;;647                hItem = WM_GetDialogItem(pMsg->hWin, ID_TEXT_66);
;;;648                sprintf(buf,"%.3f",DISS_Voltage);       
;;;649                TEXT_SetText(hItem,buf);
;;;650                
;;;651                hItem = WM_GetDialogItem(pMsg->hWin, ID_TEXT_67);
;;;652                sprintf(buf,"%.3f",DISS_Current);       
;;;653                TEXT_SetText(hItem,buf);
;;;654                
;;;655                battery_c = bc_raw;
;;;656                hItem = WM_GetDialogItem(pMsg->hWin, ID_TEXT_68);
;;;657                sprintf(buf,"%05d",battery_c);
;;;658                TEXT_SetText(hItem,buf);
;;;659                
;;;660                hItem = WM_GetDialogItem(pMsg->hWin, ID_TEXT_69);
;;;661                TEXT_SetTextColor(hItem, GUI_WHITE);//设置字体颜色
;;;662                
;;;663                hItem = WM_GetDialogItem(pMsg->hWin, ID_TEXT_70);
;;;664                TEXT_SetTextColor(hItem, GUI_RED);//设置字体颜色
;;;665                
;;;666                if(status_flash == 0){
;;;667                    hItem = WM_GetDialogItem(pMsg->hWin, ID_TEXT_71);
;;;668                    TEXT_SetTextColor(hItem, GUI_RED);//设置字体颜色
;;;669                    TEXT_SetFont(hItem,&GUI_FontHZ16);//设定文本字体
;;;670                    GUI_UC_SetEncodeUTF8();        
;;;671                    TEXT_SetText(hItem,"放电中");
;;;672                    status_flash = 1;
;;;673                }else{
;;;674                    hItem = WM_GetDialogItem(pMsg->hWin, ID_TEXT_71);
;;;675                    TEXT_SetText(hItem,"");
;;;676                    status_flash = 0;
;;;677                }
;;;678                if(pause_flag == 1){
;;;679    //                GPIO_SetBits(GPIOC,GPIO_Pin_1);//关闭负载
;;;680                    GPIO_SetBits(GPIOA,GPIO_Pin_15);//电子负载OFF
;;;681                    cdc_sw = cdc_off;
;;;682                    paused = 1;
;;;683                    
;;;684                    pause_time = second + minute*60 + hour*3600;
;;;685                }
;;;686                
;;;687                if(DISS_Voltage < dis_dc_cutoff_v && cutoff_flag == 0)
;;;688                {
;;;689                    cutoff_time = GUI_GetTime()/500;
;;;690                    cutoff_flag = 1;
;;;691                }
;;;692                
;;;693                if(DISS_Voltage < dis_dc_cutoff_v && (GUI_GetTime()/500 - cutoff_time) >= 10)//若测量电压小于截止电压
;;;694                {
;;;695                    if(mode_sw == mode_load){
;;;696                        end_time = GUI_GetTime()/500;//记录结束时间
;;;697                        count++;
;;;698                    }
;;;699                            
;;;700    //                GPIO_SetBits(GPIOC,GPIO_Pin_1);//关闭负载
;;;701                    GPIO_SetBits(GPIOA,GPIO_Pin_15);//电子负载OFF
;;;702                    if(count > set_loop_count){
;;;703                        c_sum += bc_raw;
;;;704                        battery_c = c_sum/set_loop_count;                     
;;;705                        count = 1;
;;;706                        cdc_sw = cdc_off;
;;;707                        hItem = WM_GetDialogItem(pMsg->hWin, ID_TEXT_68);
;;;708                        sprintf(buf,"%05d",battery_c);
;;;709                        TEXT_SetText(hItem,buf);
;;;710                        
;;;711                        hItem = WM_GetDialogItem(pMsg->hWin, ID_TEXT_71);
;;;712                        TEXT_SetText(hItem,"");
;;;713                        
;;;714    //                     hItem = WM_GetDialogItem(pMsg->hWin, ID_TEXT_72);       
;;;715    //                     TEXT_SetText(hItem,"");
;;;716    
;;;717    //                     hItem = WM_GetDialogItem(pMsg->hWin, ID_TEXT_73);     
;;;718    //                     TEXT_SetText(hItem,"");
;;;719    //                     
;;;720    //                     hItem = WM_GetDialogItem(pMsg->hWin, ID_TEXT_74);      
;;;721    //                     TEXT_SetText(hItem,"");
;;;722    //                     
;;;723    //                     hItem = WM_GetDialogItem(pMsg->hWin, ID_TEXT_75);       
;;;724    //                     TEXT_SetText(hItem,"");
;;;725    //                     
;;;726    //                     hItem = WM_GetDialogItem(pMsg->hWin, ID_TEXT_76);       
;;;727    //                     TEXT_SetText(hItem,"");
;;;728                        
;;;729                        hItem = WM_GetDialogItem(pMsg->hWin, ID_TEXT_77);
;;;730                        TEXT_SetText(hItem,"");
;;;731                            
;;;732                        hItem = WM_GetDialogItem(pMsg->hWin, ID_TEXT_78);
;;;733                        TEXT_SetText(hItem,"");
;;;734                        
;;;735                        hItem = WM_GetDialogItem(pMsg->hWin, ID_TEXT_79);
;;;736                        TEXT_SetText(hItem,"");
;;;737                        
;;;738                    }else{
;;;739                        c_sum += bc_raw;
;;;740    //                     Mode_SW_CONT(0x03);//切换至电源模式
;;;741                        GPIO_SetBits(GPIOA,GPIO_Pin_15);//电子负载OFF
;;;742                         hItem = WM_GetDialogItem(pMsg->hWin, ID_TEXT_68);
;;;743                         sprintf(buf,"%05d",battery_c);
;;;744                         TEXT_SetText(hItem,buf);
;;;745    					SET_Voltage = opv1;
;;;746    					 SET_Current = opc1;
;;;747                       GPIO_ResetBits(GPIOC,GPIO_Pin_13);//打开电源输出继电器
;;;748                        GPIO_SetBits(GPIOC,GPIO_Pin_1);//打开电源输出
;;;749    //                    GPIO_SetBits(GPIOB,GPIO_Pin_13);//打开稳压电源输出
;;;750                        mode_sw = mode_pow;
;;;751                        cutoff_flag = 0;                           
;;;752                    }
;;;753                }
;;;754            }else if(pause_flag == 1 && battery_c != 0){
;;;755                hItem = WM_GetDialogItem(pMsg->hWin, ID_TEXT_66);
;;;756                sprintf(buf,"%.2f",0.00);       
000088  ed9f8be3          VLDR     d8,|L10.1048|
00008c  281d              CMP      r0,#0x1d              ;218
00008e  d07c              BEQ      |L10.394|
000090  f5a07080          SUB      r0,r0,#0x100          ;218
000094  3813              SUBS     r0,r0,#0x13           ;218
000096  d079              BEQ      |L10.396|
;;;757                TEXT_SetText(hItem,buf);
;;;758                    
;;;759                hItem = WM_GetDialogItem(pMsg->hWin, ID_TEXT_67);
;;;760                sprintf(buf,"%.3f",0.00);       
;;;761                TEXT_SetText(hItem,buf);
;;;762                
;;;763                hItem = WM_GetDialogItem(pMsg->hWin, ID_TEXT_69);
;;;764                TEXT_SetTextColor(hItem, GUI_WHITE);//设置字体颜色
;;;765                
;;;766                hItem = WM_GetDialogItem(pMsg->hWin, ID_TEXT_70);
;;;767                TEXT_SetTextColor(hItem, GUI_WHITE);//设置字体颜色   
;;;768                    
;;;769                hItem = WM_GetDialogItem(pMsg->hWin, ID_TEXT_71);
;;;770                TEXT_SetText(hItem,"");
;;;771                
;;;772            }else if(cdc_sw == cdc_off){
;;;773                hItem = WM_GetDialogItem(pMsg->hWin, ID_TEXT_66);
;;;774                sprintf(buf,"%.2f",0.00);       
;;;775                TEXT_SetText(hItem,buf);
;;;776                    
;;;777                hItem = WM_GetDialogItem(pMsg->hWin, ID_TEXT_67);
;;;778                sprintf(buf,"%.3f",0.000);       
;;;779                TEXT_SetText(hItem,buf);
;;;780                
;;;781                hItem = WM_GetDialogItem(pMsg->hWin, ID_TEXT_119);
;;;782                TEXT_SetText(hItem,"");
;;;783                
;;;784                hItem = WM_GetDialogItem(pMsg->hWin, ID_TEXT_69);
;;;785                TEXT_SetTextColor(hItem, GUI_WHITE);//设置字体颜色
;;;786                
;;;787                hItem = WM_GetDialogItem(pMsg->hWin, ID_TEXT_70);
;;;788                TEXT_SetTextColor(hItem, GUI_WHITE);//设置字体颜色
;;;789                
;;;790                hItem = WM_GetDialogItem(pMsg->hWin, ID_TEXT_71);
;;;791                TEXT_SetText(hItem,"");
;;;792            }   
;;;793            hItem = WM_GetDialogItem(pMsg->hWin, ID_TEXT_127);       
;;;794            sprintf(buf,"%.1f",temp);
;;;795            TEXT_SetText(hItem,buf);
;;;796            
;;;797    		WM_RestartTimer(pMsg->Data.v, 497);//شλ֨ʱǷ˽ֵԽճˢтʱݤԽ׌
;;;798    	}
;;;799    	break;
;;;800        
;;;801    		
;;;802      case WM_INIT_DIALOG:
;;;803        //
;;;804        // Initialization of 'R'
;;;805    	
;;;806        //
;;;807            hItem = pMsg->hWin;
;;;808            WINDOW_SetBkColor(hItem, GUI_BLACK);
;;;809    		WM_CreateTimer(hItem,ID_TimerTime4,500,0);//ԴݨѾ԰ࠚ֨ʱǷ
;;;810    
;;;811    		hItem = WM_GetDialogItem(pMsg->hWin, ID_TEXT_163);
;;;812    		TEXT_SetTextColor(hItem, GUI_RED);//设置字体颜色
;;;813    		TEXT_SetFont(hItem,&GUI_FontHZ14);
;;;814    		TEXT_SetText(hItem,"");
;;;815    
;;;816    //		hItem = WM_GetDialogItem(pMsg->hWin, ID_BUTTON_25);
;;;817    ////		BUTTON_SetTextColor(hItem,0,GUI_BLACK);//ʨ׃ؖͥҕɫΪۚɫ
;;;818    //		BUTTON_SetFont      (hItem,    &GUI_FontHZ16);//ʨ֨дťτѾؖͥ
;;;819    //		GUI_UC_SetEncodeUTF8();
;;;820    //		BUTTON_SetText(hItem,"内阻测试");
;;;821    	
;;;822    		hItem = WM_GetDialogItem(pMsg->hWin, ID_BUTTON_26);
;;;823    //		BUTTON_SetTextColor(hItem,0,GUI_BLACK);//ʨ׃ؖͥҕɫΪۚɫ
;;;824    		BUTTON_SetFont      (hItem,    &GUI_FontHZ16);//ʨ֨дťτѾؖͥ
;;;825    		GUI_UC_SetEncodeUTF8();
;;;826    		BUTTON_SetText(hItem,"程控负载");
;;;827    		
;;;828    		hItem = WM_GetDialogItem(pMsg->hWin, ID_BUTTON_27);
;;;829    //		BUTTON_SetTextColor(hItem,0,GUI_BLACK);//ʨ׃ؖͥҕɫΪۚɫ
;;;830    		BUTTON_SetFont      (hItem,    &GUI_FontHZ16);//ʨ֨дťτѾؖͥ
;;;831    		GUI_UC_SetEncodeUTF8();
;;;832    		BUTTON_SetText(hItem,"程控电源");
;;;833    		
;;;834    		hItem = WM_GetDialogItem(pMsg->hWin, ID_BUTTON_28);
;;;835            BUTTON_SetPressed(hItem,1);
;;;836    //		BUTTON_SetTextColor(hItem,0,GUI_BLACK);//ʨ׃ؖͥҕɫΪۚɫ
;;;837    		BUTTON_SetFont      (hItem,    &GUI_FontHZ16);//ʨ֨дťτѾؖͥ
;;;838    		GUI_UC_SetEncodeUTF8();
;;;839    		BUTTON_SetText(hItem,"充放电");
;;;840    		
;;;841    		hItem = WM_GetDialogItem(pMsg->hWin, ID_BUTTON_29);
;;;842    //		BUTTON_SetTextColor(hItem,0,GUI_BLACK);//ʨ׃ؖͥҕɫΪۚɫ
;;;843    		BUTTON_SetFont      (hItem,&GUI_FontHZ16);//ʨ֨дťτѾؖͥ
;;;844    		GUI_UC_SetEncodeUTF8();
;;;845    		BUTTON_SetText(hItem,"曲线");
;;;846            
;;;847            hItem = WM_GetDialogItem(pMsg->hWin, ID_TEXT_17);
;;;848    		TEXT_SetTextColor(hItem, GUI_LIGHTGRAY);//设置字体颜色
;;;849            TEXT_SetFont(hItem,&GUI_FontEN40);//设定文本字体
;;;850    		GUI_UC_SetEncodeUTF8();
;;;851    		TEXT_SetText(hItem,"V:");
;;;852    		
;;;853    		hItem = WM_GetDialogItem(pMsg->hWin, ID_TEXT_18);
;;;854    		TEXT_SetTextColor(hItem, GUI_LIGHTGRAY);//设置字体颜色
;;;855            TEXT_SetFont(hItem,&GUI_FontEN40);//设定文本字体
;;;856    		GUI_UC_SetEncodeUTF8();
;;;857    		TEXT_SetText(hItem,"I:");
;;;858            
;;;859            hItem = WM_GetDialogItem(pMsg->hWin, ID_TEXT_19);
;;;860    		TEXT_SetTextColor(hItem, GUI_LIGHTGRAY);//设置字体颜色
;;;861            TEXT_SetFont(hItem,&GUI_FontEN40);//设定文本字体
;;;862    		GUI_UC_SetEncodeUTF8();
;;;863    		TEXT_SetText(hItem,"V");
;;;864    		
;;;865    		hItem = WM_GetDialogItem(pMsg->hWin, ID_TEXT_20);
;;;866    		TEXT_SetTextColor(hItem, GUI_LIGHTGRAY);//设置字体颜色
;;;867            TEXT_SetFont(hItem,&GUI_FontEN40);//设定文本字体
;;;868    		GUI_UC_SetEncodeUTF8();
;;;869    		TEXT_SetText(hItem,"A");
;;;870            
;;;871            hItem = WM_GetDialogItem(pMsg->hWin, ID_TEXT_50);
;;;872    		TEXT_SetTextColor(hItem, GUI_BLACK);//设置字体颜色
;;;873            TEXT_SetBkColor(hItem,0x00BFFFFF);
;;;874            TEXT_SetFont(hItem,&GUI_Fontset_font);//设定文本字体
;;;875    		GUI_UC_SetEncodeUTF8(); 
;;;876    		TEXT_SetText(hItem,"输出电压");        
;;;877            
;;;878            hItem = WM_GetDialogItem(pMsg->hWin, ID_TEXT_51);
;;;879    		TEXT_SetTextColor(hItem, GUI_WHITE);//设置字体颜色
;;;880            TEXT_SetFont(hItem,&GUI_Fontset_font);//设定文本字体
;;;881    		GUI_UC_SetEncodeUTF8();
;;;882    		TEXT_SetText(hItem,"限制电流");
;;;883            
;;;884            hItem = WM_GetDialogItem(pMsg->hWin, ID_TEXT_58);
;;;885    		TEXT_SetTextColor(hItem, GUI_WHITE);//设置字体颜色
;;;886            TEXT_SetFont(hItem,&GUI_Fontset_font);//设定文本字体
;;;887    		GUI_UC_SetEncodeUTF8();
;;;888    		TEXT_SetText(hItem,"截止电压");
;;;889            
;;;890            hItem = WM_GetDialogItem(pMsg->hWin, ID_TEXT_59);
;;;891    		TEXT_SetTextColor(hItem, GUI_WHITE);//设置字体颜色
;;;892            TEXT_SetFont(hItem,&GUI_Fontset_font);//设定文本字体
;;;893    		GUI_UC_SetEncodeUTF8();
;;;894    		TEXT_SetText(hItem,"截止电流");
;;;895            
;;;896            hItem = WM_GetDialogItem(pMsg->hWin, ID_TEXT_52);
;;;897    		TEXT_SetTextColor(hItem, GUI_WHITE);//设置字体颜色
;;;898            TEXT_SetFont(hItem,&GUI_Fontset_font);//设定文本字体
;;;899    		GUI_UC_SetEncodeUTF8();
;;;900    		TEXT_SetText(hItem,"负载电流");
;;;901    
;;;902            hItem = WM_GetDialogItem(pMsg->hWin, ID_TEXT_60);
;;;903    		TEXT_SetTextColor(hItem, GUI_WHITE);//设置字体颜色
;;;904            TEXT_SetFont(hItem,&GUI_Fontset_font);//设定文本字体
;;;905    		GUI_UC_SetEncodeUTF8();
;;;906    		TEXT_SetText(hItem,"截止电压");
;;;907            
;;;908    //         hItem = WM_GetDialogItem(pMsg->hWin, ID_TEXT_61);
;;;909    // 		TEXT_SetTextColor(hItem, GUI_WHITE);//设置字体颜色
;;;910    //         TEXT_SetFont(hItem,&GUI_Fontset_font);//设定文本字体
;;;911    // 		GUI_UC_SetEncodeUTF8();
;;;912    // 		TEXT_SetText(hItem,"截止电流");
;;;913            
;;;914            hItem = WM_GetDialogItem(pMsg->hWin, ID_TEXT_53);
;;;915    		TEXT_SetTextColor(hItem, GUI_WHITE);//设置字体颜色
;;;916            TEXT_SetFont(hItem,&GUI_Fontset_font);//设定文本字体
;;;917    		GUI_UC_SetEncodeUTF8();
;;;918    		TEXT_SetText(hItem,"循环次数");
;;;919            
;;;920            hItem = WM_GetDialogItem(pMsg->hWin, ID_TEXT_54);
;;;921            sprintf(buf,"%.2f",dis_output_v);
;;;922    		TEXT_SetTextColor(hItem, GUI_WHITE);//设置字体颜色
;;;923            TEXT_SetFont(hItem,&GUI_Font24_1);//设定文本字体
;;;924    		GUI_UC_SetEncodeUTF8();        
;;;925    		TEXT_SetText(hItem,buf);
;;;926            
;;;927            hItem = WM_GetDialogItem(pMsg->hWin, ID_TEXT_55);
;;;928            sprintf(buf,"%.3f",dis_output_c);
;;;929    		TEXT_SetTextColor(hItem, GUI_WHITE);//设置字体颜色
;;;930            TEXT_SetFont(hItem,&GUI_Font24_1);//设定文本字体
;;;931    		GUI_UC_SetEncodeUTF8();        
;;;932    		TEXT_SetText(hItem,buf);
;;;933            
;;;934            hItem = WM_GetDialogItem(pMsg->hWin, ID_TEXT_56);
;;;935            sprintf(buf,"%.3f",dis_load_c);
;;;936    		TEXT_SetTextColor(hItem, GUI_WHITE);//设置字体颜色
;;;937            TEXT_SetFont(hItem,&GUI_Font24_1);//设定文本字体
;;;938    		GUI_UC_SetEncodeUTF8();        
;;;939    		TEXT_SetText(hItem,buf);
;;;940            
;;;941            hItem = WM_GetDialogItem(pMsg->hWin, ID_TEXT_57);
;;;942            sprintf(buf,"%3d",set_loop_count);
;;;943            TEXT_SetTextColor(hItem, GUI_WHITE);//设置字体颜色
;;;944            TEXT_SetFont(hItem,&GUI_Font24_1);//设定文本字体
;;;945            GUI_UC_SetEncodeUTF8();        
;;;946            TEXT_SetText(hItem,buf);            
;;;947    
;;;948    
;;;949            
;;;950            hItem = WM_GetDialogItem(pMsg->hWin, ID_TEXT_62);
;;;951            sprintf(buf,"%.2f",dis_c_cutoff_v);
;;;952    		TEXT_SetTextColor(hItem, GUI_WHITE);//设置字体颜色
;;;953            TEXT_SetFont(hItem,&GUI_Font24_1);//设定文本字体
;;;954    		GUI_UC_SetEncodeUTF8();        
;;;955    		TEXT_SetText(hItem,buf);
;;;956            
;;;957            hItem = WM_GetDialogItem(pMsg->hWin, ID_TEXT_63);
;;;958            sprintf(buf,"%.3f",dis_c_cutoff_c);
;;;959    		TEXT_SetTextColor(hItem, GUI_WHITE);//设置字体颜色
;;;960            TEXT_SetFont(hItem,&GUI_Font24_1);//设定文本字体
;;;961    		GUI_UC_SetEncodeUTF8();        
;;;962    		TEXT_SetText(hItem,buf);
;;;963            
;;;964            hItem = WM_GetDialogItem(pMsg->hWin, ID_TEXT_64);
;;;965            sprintf(buf,"%.3f",dis_dc_cutoff_v);
;;;966    		TEXT_SetTextColor(hItem, GUI_WHITE);//设置字体颜色
;;;967            TEXT_SetFont(hItem,&GUI_Font24_1);//设定文本字体
;;;968    		GUI_UC_SetEncodeUTF8();        
;;;969    		TEXT_SetText(hItem,buf);
;;;970            
;;;971    //         hItem = WM_GetDialogItem(pMsg->hWin, ID_TEXT_65);
;;;972    //         sprintf(dc_cutoff_c,"%.2f",dis_dc_cutoff_c);
;;;973    // 		TEXT_SetTextColor(hItem, GUI_WHITE);//设置字体颜色
;;;974    //         TEXT_SetFont(hItem,&GUI_Font24_1);//设定文本字体
;;;975    // 		GUI_UC_SetEncodeUTF8();        
;;;976    // 		TEXT_SetText(hItem,dc_cutoff_c);
;;;977            
;;;978            hItem = WM_GetDialogItem(pMsg->hWin, ID_TEXT_66);
;;;979            sprintf(buf,"%.2f",0.00);
;;;980            TEXT_SetTextColor(hItem, GUI_GREEN);//设置字体颜色
;;;981            TEXT_SetFont(hItem,&GUI_FontD24x32);//设定文本字体
;;;982            GUI_UC_SetEncodeUTF8();        
;;;983            TEXT_SetText(hItem,buf);
;;;984                
;;;985            hItem = WM_GetDialogItem(pMsg->hWin, ID_TEXT_67);
;;;986            sprintf(buf,"%.3f",0.000);
;;;987            TEXT_SetTextColor(hItem, GUI_GREEN);//设置字体颜色
;;;988            TEXT_SetFont(hItem,&GUI_FontD24x32);//设定文本字体
;;;989            GUI_UC_SetEncodeUTF8();        
;;;990            TEXT_SetText(hItem,buf);    
;;;991                
;;;992            hItem = WM_GetDialogItem(pMsg->hWin, ID_TEXT_68);
;;;993            sprintf(buf,"%05d",0);
;;;994            TEXT_SetTextColor(hItem, GUI_GREEN);//设置字体颜色
;;;995            TEXT_SetFont(hItem,&GUI_FontD24x32);//设定文本字体
;;;996            GUI_UC_SetEncodeUTF8();        
;;;997            TEXT_SetText(hItem,buf);
;;;998            
;;;999            hItem = WM_GetDialogItem(pMsg->hWin, ID_TEXT_69);
;;;1000           TEXT_SetTextColor(hItem, GUI_WHITE);//设置字体颜色
;;;1001           TEXT_SetFont(hItem,&GUI_FontHZ16);//设定文本字体
;;;1002           GUI_UC_SetEncodeUTF8();        
;;;1003           TEXT_SetText(hItem,"充电");
;;;1004           
;;;1005           hItem = WM_GetDialogItem(pMsg->hWin, ID_TEXT_77);
;;;1006           TEXT_SetTextColor(hItem, GUI_GREEN);//设置字体颜色
;;;1007           TEXT_SetFont(hItem,&GUI_Font24_1);//设定文本字体
;;;1008           GUI_UC_SetEncodeUTF8();
;;;1009           TEXT_SetText(hItem,"");
;;;1010               
;;;1011           hItem = WM_GetDialogItem(pMsg->hWin, ID_TEXT_78);
;;;1012           TEXT_SetTextColor(hItem, GUI_GREEN);//设置字体颜色
;;;1013           TEXT_SetFont(hItem,&GUI_Font24_1);//设定文本字体
;;;1014           GUI_UC_SetEncodeUTF8();
;;;1015           TEXT_SetText(hItem,"");
;;;1016               
;;;1017           hItem = WM_GetDialogItem(pMsg->hWin, ID_TEXT_79);
;;;1018           TEXT_SetTextColor(hItem, GUI_GREEN);//设置字体颜色
;;;1019           TEXT_SetFont(hItem,&GUI_Font24_1);//设定文本字体
;;;1020           GUI_UC_SetEncodeUTF8();
;;;1021           TEXT_SetText(hItem,"");
;;;1022           
;;;1023           hItem = WM_GetDialogItem(pMsg->hWin, ID_TEXT_119);
;;;1024           TEXT_SetTextColor(hItem, GUI_RED);//设置字体颜色
;;;1025           TEXT_SetFont(hItem,&GUI_Fontset_font);//设定文本字体
;;;1026           GUI_UC_SetEncodeUTF8();        
;;;1027           TEXT_SetText(hItem,"");
;;;1028           
;;;1029           hItem = WM_GetDialogItem(pMsg->hWin, ID_TEXT_70);
;;;1030           TEXT_SetTextColor(hItem, GUI_WHITE);//设置字体颜色
;;;1031           TEXT_SetFont(hItem,&GUI_FontHZ16);//设定文本字体
;;;1032           GUI_UC_SetEncodeUTF8();        
;;;1033           TEXT_SetText(hItem,"放电");
;;;1034           
;;;1035           hItem = WM_GetDialogItem(pMsg->hWin, ID_TEXT_127);
;;;1036           TEXT_SetTextColor(hItem, GUI_GREEN);//ʨ׃ؖͥҕɫ
;;;1037           TEXT_SetFont(hItem,&GUI_Font24_1);//ʨ֨τѾؖͥ       
;;;1038           sprintf(buf,"%.1f",temp);
;;;1039           TEXT_SetText(hItem,buf);
;;;1040           
;;;1041           hItem = WM_GetDialogItem(pMsg->hWin, ID_TEXT_74);
;;;1042           sprintf(buf,"%02d",hour);
;;;1043           TEXT_SetTextColor(hItem, GUI_WHITE);//设置字体颜色
;;;1044           TEXT_SetFont(hItem,&GUI_Font24_1);//设定文本字体
;;;1045           GUI_UC_SetEncodeUTF8();        
;;;1046           TEXT_SetText(hItem,buf);
;;;1047   
;;;1048           hItem = WM_GetDialogItem(pMsg->hWin, ID_TEXT_75);
;;;1049           sprintf(buf,"%02d",minute);
;;;1050           TEXT_SetTextColor(hItem, GUI_WHITE);//设置字体颜色
;;;1051           TEXT_SetFont(hItem,&GUI_Font24_1);//设定文本字体
;;;1052           GUI_UC_SetEncodeUTF8();        
;;;1053           TEXT_SetText(hItem,buf);
;;;1054           
;;;1055           hItem = WM_GetDialogItem(pMsg->hWin, ID_TEXT_76);
;;;1056           sprintf(buf,"%02d",second);
;;;1057           TEXT_SetTextColor(hItem, GUI_WHITE);//设置字体颜色
;;;1058           TEXT_SetFont(hItem,&GUI_Font24_1);//设定文本字体
;;;1059           GUI_UC_SetEncodeUTF8();        
;;;1060           TEXT_SetText(hItem,buf);
;;;1061           
;;;1062           hItem = WM_GetDialogItem(pMsg->hWin, ID_TEXT_72);
;;;1063           sprintf(buf,"%02d",hour1);
;;;1064           TEXT_SetTextColor(hItem, GUI_WHITE);//设置字体颜色
;;;1065           TEXT_SetFont(hItem,&GUI_Font24_1);//设定文本字体
;;;1066           GUI_UC_SetEncodeUTF8();        
;;;1067           TEXT_SetText(hItem,buf);
;;;1068   
;;;1069           hItem = WM_GetDialogItem(pMsg->hWin, ID_TEXT_73);
;;;1070           sprintf(buf,"%02d",minute1);
;;;1071           TEXT_SetTextColor(hItem, GUI_WHITE);//设置字体颜色
;;;1072           TEXT_SetFont(hItem,&GUI_Font24_1);//设定文本字体
;;;1073           GUI_UC_SetEncodeUTF8();        
;;;1074           TEXT_SetText(hItem,buf);
;;;1075           
;;;1076           hItem = WM_GetDialogItem(pMsg->hWin, ID_TEXT_135);
;;;1077           sprintf(buf,"%02d",second1);
;;;1078           TEXT_SetTextColor(hItem, GUI_WHITE);//设置字体颜色
;;;1079           TEXT_SetFont(hItem,&GUI_Font24_1);//设定文本字体
;;;1080           GUI_UC_SetEncodeUTF8();        
;;;1081           TEXT_SetText(hItem,buf);
;;;1082           
;;;1083           
;;;1084       // USER START (Optionally insert additional code for further widget initialization)
;;;1085       // USER END
;;;1086           break;
;;;1087     // USER START (Optionally insert additional message handling)
;;;1088     // USER END
;;;1089       default:
;;;1090           WM_DefaultProc(pMsg);
000098  4620              MOV      r0,r4
00009a  f7fffffe          BL       WM_DefaultProc
                  |L10.158|
;;;1091           break;
;;;1092     }
;;;1093   }
00009e  b003              ADD      sp,sp,#0xc
0000a0  ecbd8b0a          VPOP     {d8-d12}
0000a4  e8bd8ff0          POP      {r4-r11,pc}
                  |L10.168|
0000a8  4648              MOV      r0,r9                 ;222
0000aa  f7fffffe          BL       GUI_SetColor
0000ae  231a              MOVS     r3,#0x1a              ;223
0000b0  f44f72f0          MOV      r2,#0x1e0             ;223
0000b4  2119              MOVS     r1,#0x19              ;223
0000b6  2000              MOVS     r0,#0                 ;223
0000b8  f7fffffe          BL       GUI_FillRect
0000bc  f24a50ff          MOV      r0,#0xa5ff            ;224
0000c0  f7fffffe          BL       GUI_SetColor
0000c4  48d6              LDR      r0,|L10.1056|
0000c6  f7fffffe          BL       GUI_SetFont
0000ca  f7fffffe          BL       GUI_UC_SetEncodeUTF8
0000ce  2002              MOVS     r0,#2                 ;227
0000d0  f7fffffe          BL       GUI_SetTextMode
0000d4  2201              MOVS     r2,#1                 ;228
0000d6  2105              MOVS     r1,#5                 ;228
0000d8  a0d2              ADR      r0,|L10.1060|
0000da  f7fffffe          BL       GUI_DispStringAt
0000de  4648              MOV      r0,r9                 ;229
0000e0  f7fffffe          BL       GUI_SetColor
0000e4  48d1              LDR      r0,|L10.1068|
0000e6  f7fffffe          BL       GUI_SetFont
0000ea  f7fffffe          BL       GUI_UC_SetEncodeUTF8
0000ee  2002              MOVS     r0,#2                 ;232
0000f0  f7fffffe          BL       GUI_SetTextMode
0000f4  4648              MOV      r0,r9                 ;234
0000f6  f7fffffe          BL       GUI_SetColor
0000fa  48cd              LDR      r0,|L10.1072|
0000fc  f7fffffe          BL       GUI_SetFont
000100  48cc              LDR      r0,|L10.1076|
000102  f7fffffe          BL       GUI_SetFont
000106  4640              MOV      r0,r8                 ;239
000108  f7fffffe          BL       GUI_SetColor
00010c  22be              MOVS     r2,#0xbe              ;240
00010e  211c              MOVS     r1,#0x1c              ;240
000110  a0c9              ADR      r0,|L10.1080|
000112  f7fffffe          BL       GUI_DispStringAt
000116  4640              MOV      r0,r8                 ;241
000118  f7fffffe          BL       GUI_SetColor
00011c  22c4              MOVS     r2,#0xc4              ;242
00011e  21d9              MOVS     r1,#0xd9              ;242
000120  a0c6              ADR      r0,|L10.1084|
000122  f7fffffe          BL       GUI_DispStringAt
000126  22bb              MOVS     r2,#0xbb              ;243
000128  21ee              MOVS     r1,#0xee              ;243
00012a  a0c5              ADR      r0,|L10.1088|
00012c  f7fffffe          BL       GUI_DispStringAt
000130  4650              MOV      r0,r10                ;245
000132  f7fffffe          BL       GUI_SetColor
000136  48c3              LDR      r0,|L10.1092|
000138  f7fffffe          BL       GUI_SetFont
00013c  2202              MOVS     r2,#2                 ;247
00013e  f44f71d8          MOV      r1,#0x1b0             ;247
000142  a0c1              ADR      r0,|L10.1096|
000144  f7fffffe          BL       GUI_DispStringAt
000148  48b9              LDR      r0,|L10.1072|
00014a  f7fffffe          BL       GUI_SetFont
00014e  2202              MOVS     r2,#2                 ;249
000150  f44f71dc          MOV      r1,#0x1b8             ;249
000154  a0bd              ADR      r0,|L10.1100|
000156  f7fffffe          BL       GUI_DispStringAt
00015a  4648              MOV      r0,r9                 ;252
00015c  f7fffffe          BL       GUI_SetColor
000160  48bb              LDR      r0,|L10.1104|
000162  f7fffffe          BL       GUI_SetFont
000166  2204              MOVS     r2,#4                 ;254
000168  2173              MOVS     r1,#0x73              ;254
00016a  a0ba              ADR      r0,|L10.1108|
00016c  f7fffffe          BL       GUI_DispStringAt
000170  2204              MOVS     r2,#4                 ;255
000172  21ff              MOVS     r1,#0xff              ;255
000174  a0b9              ADR      r0,|L10.1116|
000176  f7fffffe          BL       GUI_DispStringAt
00017a  48ad              LDR      r0,|L10.1072|
00017c  f7fffffe          BL       GUI_SetFont
000180  2203              MOVS     r2,#3                 ;257
000182  f44f71a0          MOV      r1,#0x140             ;257
000186  a0b7              ADR      r0,|L10.1124|
000188  e001              B        |L10.398|
                  |L10.394|
00018a  e3fd              B        |L10.2440|
                  |L10.396|
00018c  e012              B        |L10.436|
                  |L10.398|
00018e  f7fffffe          BL       GUI_DispStringAt
000192  2203              MOVS     r2,#3                 ;258
000194  f44f71af          MOV      r1,#0x15e             ;258
000198  a0b2              ADR      r0,|L10.1124|
00019a  f7fffffe          BL       GUI_DispStringAt
00019e  2203              MOVS     r2,#3                 ;259
0001a0  21b4              MOVS     r1,#0xb4              ;259
0001a2  a0b0              ADR      r0,|L10.1124|
0001a4  f7fffffe          BL       GUI_DispStringAt
0001a8  2203              MOVS     r2,#3                 ;260
0001aa  21d2              MOVS     r1,#0xd2              ;260
0001ac  a0ad              ADR      r0,|L10.1124|
0001ae  f7fffffe          BL       GUI_DispStringAt
                  |L10.434|
0001b2  e774              B        |L10.158|
                  |L10.436|
0001b4  68e0              LDR      r0,[r4,#0xc]          ;264
0001b6  f7fffffe          BL       WM_GetTimerId
0001ba  2805              CMP      r0,#5                 ;264
0001bc  d1f9              BNE      |L10.434|
0001be  48aa              LDR      r0,|L10.1128|
0001c0  7800              LDRB     r0,[r0,#0]            ;273  ; lock
0001c2  2801              CMP      r0,#1                 ;273
0001c4  d07e              BEQ      |L10.708|
0001c6  4659              MOV      r1,r11                ;278
0001c8  6860              LDR      r0,[r4,#4]            ;278
0001ca  f7fffffe          BL       WM_GetDialogItem
0001ce  a1a7              ADR      r1,|L10.1132|
0001d0  f7fffffe          BL       TEXT_SetText
                  |L10.468|
0001d4  4639              MOV      r1,r7                 ;282
0001d6  6860              LDR      r0,[r4,#4]            ;282
0001d8  f7fffffe          BL       WM_GetDialogItem
0001dc  4607              MOV      r7,r0                 ;282
0001de  f8df8290          LDR      r8,|L10.1136|
0001e2  f8982003          LDRB     r2,[r8,#3]            ;283  ; hour
0001e6  a1a3              ADR      r1,|L10.1140|
0001e8  4668              MOV      r0,sp                 ;283
0001ea  f7fffffe          BL       __2sprintf
0001ee  4649              MOV      r1,r9                 ;284
0001f0  4638              MOV      r0,r7                 ;284
0001f2  f7fffffe          BL       TEXT_SetTextColor
0001f6  498e              LDR      r1,|L10.1072|
0001f8  4638              MOV      r0,r7                 ;285
0001fa  f7fffffe          BL       TEXT_SetFont
0001fe  f7fffffe          BL       GUI_UC_SetEncodeUTF8
000202  4669              MOV      r1,sp                 ;287
000204  4638              MOV      r0,r7                 ;287
000206  f7fffffe          BL       TEXT_SetText
00020a  f6400188          MOV      r1,#0x888             ;289
00020e  6860              LDR      r0,[r4,#4]            ;289
000210  f7fffffe          BL       WM_GetDialogItem
000214  4607              MOV      r7,r0                 ;289
000216  f8982002          LDRB     r2,[r8,#2]            ;290  ; minute
00021a  a196              ADR      r1,|L10.1140|
00021c  4668              MOV      r0,sp                 ;290
00021e  f7fffffe          BL       __2sprintf
000222  4649              MOV      r1,r9                 ;291
000224  4638              MOV      r0,r7                 ;291
000226  f7fffffe          BL       TEXT_SetTextColor
00022a  4981              LDR      r1,|L10.1072|
00022c  4638              MOV      r0,r7                 ;292
00022e  f7fffffe          BL       TEXT_SetFont
000232  f7fffffe          BL       GUI_UC_SetEncodeUTF8
000236  4669              MOV      r1,sp                 ;294
000238  4638              MOV      r0,r7                 ;294
00023a  f7fffffe          BL       TEXT_SetText
00023e  f6400189          MOV      r1,#0x889             ;296
000242  6860              LDR      r0,[r4,#4]            ;296
000244  f7fffffe          BL       WM_GetDialogItem
000248  4607              MOV      r7,r0                 ;296
00024a  f8982001          LDRB     r2,[r8,#1]            ;297  ; second
00024e  a189              ADR      r1,|L10.1140|
000250  4668              MOV      r0,sp                 ;297
000252  f7fffffe          BL       __2sprintf
000256  4649              MOV      r1,r9                 ;298
000258  4638              MOV      r0,r7                 ;298
00025a  f7fffffe          BL       TEXT_SetTextColor
00025e  4974              LDR      r1,|L10.1072|
000260  4638              MOV      r0,r7                 ;299
000262  f7fffffe          BL       TEXT_SetFont
000266  f7fffffe          BL       GUI_UC_SetEncodeUTF8
00026a  4669              MOV      r1,sp                 ;301
00026c  4638              MOV      r0,r7                 ;301
00026e  f7fffffe          BL       TEXT_SetText
000272  f6400185          MOV      r1,#0x885             ;303
000276  6860              LDR      r0,[r4,#4]            ;303
000278  f7fffffe          BL       WM_GetDialogItem
00027c  4607              MOV      r7,r0                 ;303
00027e  f8982006          LDRB     r2,[r8,#6]            ;304  ; hour1
000282  a17c              ADR      r1,|L10.1140|
000284  4668              MOV      r0,sp                 ;304
000286  f7fffffe          BL       __2sprintf
00028a  4649              MOV      r1,r9                 ;305
00028c  4638              MOV      r0,r7                 ;305
00028e  f7fffffe          BL       TEXT_SetTextColor
000292  4967              LDR      r1,|L10.1072|
000294  4638              MOV      r0,r7                 ;306
000296  f7fffffe          BL       TEXT_SetFont
00029a  f7fffffe          BL       GUI_UC_SetEncodeUTF8
00029e  4669              MOV      r1,sp                 ;308
0002a0  4638              MOV      r0,r7                 ;308
0002a2  f7fffffe          BL       TEXT_SetText
0002a6  f6400186          MOV      r1,#0x886             ;310
0002aa  6860              LDR      r0,[r4,#4]            ;310
0002ac  f7fffffe          BL       WM_GetDialogItem
0002b0  4607              MOV      r7,r0                 ;310
0002b2  f8982005          LDRB     r2,[r8,#5]            ;311  ; minute1
0002b6  a16f              ADR      r1,|L10.1140|
0002b8  4668              MOV      r0,sp                 ;311
0002ba  f7fffffe          BL       __2sprintf
0002be  4649              MOV      r1,r9                 ;312
0002c0  4638              MOV      r0,r7                 ;312
0002c2  e000              B        |L10.710|
                  |L10.708|
0002c4  e02d              B        |L10.802|
                  |L10.710|
0002c6  f7fffffe          BL       TEXT_SetTextColor
0002ca  4959              LDR      r1,|L10.1072|
0002cc  4638              MOV      r0,r7                 ;313
0002ce  f7fffffe          BL       TEXT_SetFont
0002d2  f7fffffe          BL       GUI_UC_SetEncodeUTF8
0002d6  4669              MOV      r1,sp                 ;315
0002d8  4638              MOV      r0,r7                 ;315
0002da  f7fffffe          BL       TEXT_SetText
0002de  f6401124          MOV      r1,#0x924             ;317
0002e2  6860              LDR      r0,[r4,#4]            ;317
0002e4  f7fffffe          BL       WM_GetDialogItem
0002e8  4607              MOV      r7,r0                 ;317
0002ea  f8982004          LDRB     r2,[r8,#4]            ;318  ; second1
0002ee  a161              ADR      r1,|L10.1140|
0002f0  4668              MOV      r0,sp                 ;318
0002f2  f7fffffe          BL       __2sprintf
0002f6  4649              MOV      r1,r9                 ;319
0002f8  4638              MOV      r0,r7                 ;319
0002fa  f7fffffe          BL       TEXT_SetTextColor
0002fe  494c              LDR      r1,|L10.1072|
000300  4638              MOV      r0,r7                 ;320
000302  f7fffffe          BL       TEXT_SetFont
000306  f7fffffe          BL       GUI_UC_SetEncodeUTF8
00030a  4669              MOV      r1,sp                 ;322
00030c  4638              MOV      r0,r7                 ;322
00030e  f7fffffe          BL       TEXT_SetText
000312  f8dfb168          LDR      r11,|L10.1148|
000316  f89b0000          LDRB     r0,[r11,#0]           ;324  ; mode_sw
00031a  2700              MOVS     r7,#0                 ;324
00031c  2803              CMP      r0,#3                 ;324
00031e  d008              BEQ      |L10.818|
000320  e00b              B        |L10.826|
                  |L10.802|
000322  4659              MOV      r1,r11                ;275
000324  6860              LDR      r0,[r4,#4]            ;275
000326  f7fffffe          BL       WM_GetDialogItem
00032a  a155              ADR      r1,|L10.1152|
00032c  f7fffffe          BL       TEXT_SetText
000330  e750              B        |L10.468|
                  |L10.818|
000332  484f              LDR      r0,|L10.1136|
000334  7a00              LDRB     r0,[r0,#8]            ;324  ; cdc_sw
000336  2801              CMP      r0,#1                 ;324
000338  d004              BEQ      |L10.836|
                  |L10.826|
00033a  4850              LDR      r0,|L10.1148|
00033c  7800              LDRB     r0,[r0,#0]            ;629  ; mode_sw
00033e  2802              CMP      r0,#2                 ;629
000340  d05f              BEQ      |L10.1026|
000342  e160              B        |L10.1542|
                  |L10.836|
000344  f640017f          MOV      r1,#0x87f             ;327
000348  6860              LDR      r0,[r4,#4]            ;327
00034a  f7fffffe          BL       WM_GetDialogItem
00034e  4680              MOV      r8,r0                 ;327
000350  484c              LDR      r0,|L10.1156|
000352  6800              LDR      r0,[r0,#0]            ;328  ; DISS_POW_Voltage
000354  f7fffffe          BL       __aeabi_f2d
000358  ec410b10          VMOV     d0,r0,r1              ;328
00035c  a14a              ADR      r1,|L10.1160|
00035e  ec532b10          VMOV     r2,r3,d0              ;328
000362  4668              MOV      r0,sp                 ;328
000364  f7fffffe          BL       __2sprintf
000368  4669              MOV      r1,sp                 ;329
00036a  4640              MOV      r0,r8                 ;329
00036c  f7fffffe          BL       TEXT_SetText
000370  f44f6108          MOV      r1,#0x880             ;331
000374  6860              LDR      r0,[r4,#4]            ;331
000376  f7fffffe          BL       WM_GetDialogItem
00037a  4680              MOV      r8,r0                 ;331
00037c  4844              LDR      r0,|L10.1168|
00037e  6800              LDR      r0,[r0,#0]            ;332  ; DISS_POW_Current
000380  f7fffffe          BL       __aeabi_f2d
000384  ec410b10          VMOV     d0,r0,r1              ;332
000388  a142              ADR      r1,|L10.1172|
00038a  ec532b10          VMOV     r2,r3,d0              ;332
00038e  4668              MOV      r0,sp                 ;332
000390  f7fffffe          BL       __2sprintf
000394  4669              MOV      r1,sp                 ;333
000396  4640              MOV      r0,r8                 ;333
000398  f7fffffe          BL       TEXT_SetText
00039c  483f              LDR      r0,|L10.1180|
00039e  f8df8100          LDR      r8,|L10.1184|
0003a2  ed900a00          VLDR     s0,[r0,#0]            ;335
0003a6  eebc0ac0          VCVT.U32.F32 s0,s0                 ;335
0003aa  ee100a10          VMOV     r0,s0                 ;335
0003ae  f8a80000          STRH     r0,[r8,#0]            ;335
0003b2  f6400181          MOV      r1,#0x881             ;336
0003b6  6860              LDR      r0,[r4,#4]            ;336
0003b8  f7fffffe          BL       WM_GetDialogItem
0003bc  9002              STR      r0,[sp,#8]            ;336
0003be  f8b82000          LDRH     r2,[r8,#0]            ;337  ; battery_c
0003c2  a138              ADR      r1,|L10.1188|
0003c4  4668              MOV      r0,sp                 ;337
0003c6  f7fffffe          BL       __2sprintf
0003ca  4669              MOV      r1,sp                 ;338
0003cc  9802              LDR      r0,[sp,#8]            ;338
0003ce  f7fffffe          BL       TEXT_SetText
0003d2  f640018a          MOV      r1,#0x88a             ;340
0003d6  6860              LDR      r0,[r4,#4]            ;340
0003d8  f7fffffe          BL       WM_GetDialogItem
0003dc  4680              MOV      r8,r0                 ;340
0003de  4651              MOV      r1,r10                ;341
0003e0  4640              MOV      r0,r8                 ;341
0003e2  f7fffffe          BL       TEXT_SetTextColor
0003e6  4912              LDR      r1,|L10.1072|
0003e8  4640              MOV      r0,r8                 ;342
0003ea  f7fffffe          BL       TEXT_SetFont
0003ee  f7fffffe          BL       GUI_UC_SetEncodeUTF8
0003f2  a12e              ADR      r1,|L10.1196|
0003f4  4640              MOV      r0,r8                 ;344
0003f6  f7fffffe          BL       TEXT_SetText
0003fa  f640018b          MOV      r1,#0x88b             ;346
0003fe  6860              LDR      r0,[r4,#4]            ;346
000400  e056              B        |L10.1200|
                  |L10.1026|
000402  e0fc              B        |L10.1534|
                  |L10.1028|
                          DCD      Run_Control
                  |L10.1032|
000408  447a0000          DCFS     0x447a0000 ; 1000
                  |L10.1036|
00040c  42c80000          DCFS     0x42c80000 ; 100
                  |L10.1040|
                          DCD      ||.bss||
                  |L10.1044|
                          DCD      0x00d3d3d3
                  |L10.1048|
000418  00000000          DCFD     0x0000000000000000 ; 0
00041c  00000000
                  |L10.1056|
                          DCD      GUI_Fontsymbol
                  |L10.1060|
000424  4a696e6b          DCB      "Jinko",0
000428  6f00    
00042a  00                DCB      0
00042b  00                DCB      0
                  |L10.1068|
                          DCD      GUI_FontHZ20S
                  |L10.1072|
                          DCD      GUI_Font24_1
                  |L10.1076|
                          DCD      GUI_FontEN40
                  |L10.1080|
000438  433a00            DCB      "C:",0
00043b  00                DCB      0
                  |L10.1084|
00043c  6d00              DCB      "m",0
00043e  00                DCB      0
00043f  00                DCB      0
                  |L10.1088|
000440  414800            DCB      "AH",0
000443  00                DCB      0
                  |L10.1092|
                          DCD      GUI_Fontunit
                  |L10.1096|
000448  c2b000            DCB      194,176,0
00044b  00                DCB      0
                  |L10.1100|
00044c  4300              DCB      "C",0
00044e  00                DCB      0
00044f  00                DCB      0
                  |L10.1104|
                          DCD      GUI_Fontset_font
                  |L10.1108|
000454  e58585e7          DCB      229,133,133,231,148,181,0
000458  94b500  
00045b  00                DCB      0
                  |L10.1116|
00045c  e694bee7          DCB      230,148,190,231,148,181,0
000460  94b500  
000463  00                DCB      0
                  |L10.1124|
000464  3a00              DCB      ":",0
000466  00                DCB      0
000467  00                DCB      0
                  |L10.1128|
                          DCD      lock
                  |L10.1132|
00046c  00                DCB      0
00046d  00                DCB      0
00046e  00                DCB      0
00046f  00                DCB      0
                  |L10.1136|
                          DCD      ||.data||
                  |L10.1140|
000474  25303264          DCB      "%02d",0
000478  00      
000479  00                DCB      0
00047a  00                DCB      0
00047b  00                DCB      0
                  |L10.1148|
                          DCD      mode_sw
                  |L10.1152|
000480  e9948100          DCB      233,148,129,0
                  |L10.1156|
                          DCD      DISS_POW_Voltage
                  |L10.1160|
000488  252e3266          DCB      "%.2f",0
00048c  00      
00048d  00                DCB      0
00048e  00                DCB      0
00048f  00                DCB      0
                  |L10.1168|
                          DCD      DISS_POW_Current
                  |L10.1172|
000494  252e3366          DCB      "%.3f",0
000498  00      
000499  00                DCB      0
00049a  00                DCB      0
00049b  00                DCB      0
                  |L10.1180|
                          DCD      cbc_raw
                  |L10.1184|
                          DCD      battery_c
                  |L10.1188|
0004a4  25303564          DCB      "%05d",0
0004a8  00      
0004a9  00                DCB      0
0004aa  00                DCB      0
0004ab  00                DCB      0
                  |L10.1196|
0004ac  2800              DCB      "(",0
0004ae  00                DCB      0
0004af  00                DCB      0
                  |L10.1200|
0004b0  f7fffffe          BL       WM_GetDialogItem
0004b4  4680              MOV      r8,r0                 ;346
0004b6  4651              MOV      r1,r10                ;347
0004b8  4640              MOV      r0,r8                 ;347
0004ba  f7fffffe          BL       TEXT_SetTextColor
0004be  49f6              LDR      r1,|L10.2200|
0004c0  4640              MOV      r0,r8                 ;348
0004c2  f7fffffe          BL       TEXT_SetFont
0004c6  f7fffffe          BL       GUI_UC_SetEncodeUTF8
0004ca  a1f4              ADR      r1,|L10.2204|
0004cc  4640              MOV      r0,r8                 ;350
0004ce  f7fffffe          BL       TEXT_SetText
0004d2  f640018c          MOV      r1,#0x88c             ;352
0004d6  6860              LDR      r0,[r4,#4]            ;352
0004d8  f7fffffe          BL       WM_GetDialogItem
0004dc  9002              STR      r0,[sp,#8]            ;352
0004de  4651              MOV      r1,r10                ;353
0004e0  9802              LDR      r0,[sp,#8]            ;353
0004e2  f7fffffe          BL       TEXT_SetTextColor
0004e6  f8df83b8          LDR      r8,|L10.2208|
0004ea  f8982009          LDRB     r2,[r8,#9]            ;354  ; count
0004ee  a1ed              ADR      r1,|L10.2212|
0004f0  4668              MOV      r0,sp                 ;354
0004f2  f7fffffe          BL       __2sprintf
0004f6  49e8              LDR      r1,|L10.2200|
0004f8  9802              LDR      r0,[sp,#8]            ;355
0004fa  f7fffffe          BL       TEXT_SetFont
0004fe  f7fffffe          BL       GUI_UC_SetEncodeUTF8
000502  4669              MOV      r1,sp                 ;357
000504  9802              LDR      r0,[sp,#8]            ;357
000506  f7fffffe          BL       TEXT_SetText
00050a  f6400182          MOV      r1,#0x882             ;359
00050e  6860              LDR      r0,[r4,#4]            ;359
000510  f7fffffe          BL       WM_GetDialogItem
000514  21ff              MOVS     r1,#0xff              ;360
000516  f7fffffe          BL       TEXT_SetTextColor
00051a  f6400183          MOV      r1,#0x883             ;362
00051e  6860              LDR      r0,[r4,#4]            ;362
000520  f7fffffe          BL       WM_GetDialogItem
000524  4649              MOV      r1,r9                 ;363
000526  f7fffffe          BL       TEXT_SetTextColor
00052a  f898000a          LDRB     r0,[r8,#0xa]          ;392  ; status_flash
00052e  b1a0              CBZ      r0,|L10.1370|
000530  f6400184          MOV      r1,#0x884             ;400
000534  6860              LDR      r0,[r4,#4]            ;400
000536  f7fffffe          BL       WM_GetDialogItem
00053a  f2af01d0          ADR      r1,|L10.1132|
00053e  f7fffffe          BL       TEXT_SetText
000542  f888700a          STRB     r7,[r8,#0xa]          ;402
                  |L10.1350|
000546  f8980011          LDRB     r0,[r8,#0x11]         ;583  ; charge_step
00054a  2702              MOVS     r7,#2                 ;227
00054c  2801              CMP      r0,#1                 ;583
00054e  d01c              BEQ      |L10.1418|
000550  f8980011          LDRB     r0,[r8,#0x11]         ;590  ; charge_step
000554  2802              CMP      r0,#2                 ;590
000556  d02f              BEQ      |L10.1464|
                  |L10.1368|
000558  e286              B        |L10.2664|
                  |L10.1370|
00055a  f6400184          MOV      r1,#0x884             ;393
00055e  6860              LDR      r0,[r4,#4]            ;393
000560  f7fffffe          BL       WM_GetDialogItem
000564  4607              MOV      r7,r0                 ;393
000566  21ff              MOVS     r1,#0xff              ;394
000568  4638              MOV      r0,r7                 ;394
00056a  f7fffffe          BL       TEXT_SetTextColor
00056e  49ce              LDR      r1,|L10.2216|
000570  4638              MOV      r0,r7                 ;395
000572  f7fffffe          BL       TEXT_SetFont
000576  f7fffffe          BL       GUI_UC_SetEncodeUTF8
00057a  a1cc              ADR      r1,|L10.2220|
00057c  4638              MOV      r0,r7                 ;397
00057e  f7fffffe          BL       TEXT_SetText
000582  2001              MOVS     r0,#1                 ;398
000584  f888000a          STRB     r0,[r8,#0xa]          ;398
000588  e7dd              B        |L10.1350|
                  |L10.1418|
00058a  8830              LDRH     r0,[r6,#0]            ;585  ; coff
00058c  ee000a10          VMOV     s0,r0                 ;585
000590  48c9              LDR      r0,|L10.2232|
000592  eeb80a40          VCVT.F32.U32 s0,s0                 ;585
000596  eec00a2b          VDIV.F32 s1,s0,s23             ;585
00059a  ed900a00          VLDR     s0,[r0,#0]            ;585
00059e  eef40ac0          VCMPE.F32 s1,s0                 ;585
0005a2  eef1fa10          VMRS     APSR_nzcv,FPSCR       ;585
0005a6  d8d7              BHI      |L10.1368|
0005a8  8830              LDRH     r0,[r6,#0]            ;585  ; coff
0005aa  2800              CMP      r0,#0                 ;585
0005ac  d0d4              BEQ      |L10.1368|
0005ae  2064              MOVS     r0,#0x64              ;587
0005b0  60a8              STR      r0,[r5,#8]            ;587  ; Run_Control
0005b2  f8887011          STRB     r7,[r8,#0x11]         ;588
0005b6  e257              B        |L10.2664|
                  |L10.1464|
0005b8  88f0              LDRH     r0,[r6,#6]            ;591  ; coff
0005ba  ee000a10          VMOV     s0,r0                 ;591
0005be  48bf              LDR      r0,|L10.2236|
0005c0  eeb80a40          VCVT.F32.U32 s0,s0                 ;591
0005c4  eec00a2a          VDIV.F32 s1,s0,s21             ;591
0005c8  ed900a00          VLDR     s0,[r0,#0]            ;591
0005cc  eef40ac0          VCMPE.F32 s1,s0                 ;591
0005d0  eef1fa10          VMRS     APSR_nzcv,FPSCR       ;591
0005d4  ddc0              BLE      |L10.1368|
0005d6  4eba              LDR      r6,|L10.2240|
0005d8  2102              MOVS     r1,#2                 ;593
0005da  4630              MOV      r0,r6                 ;593
0005dc  f7fffffe          BL       GPIO_ResetBits
0005e0  f8d5009c          LDR      r0,[r5,#0x9c]         ;595  ; Run_Control
0005e4  6128              STR      r0,[r5,#0x10]         ;595  ; Run_Control
0005e6  1531              ASRS     r1,r6,#20             ;598
0005e8  4630              MOV      r0,r6                 ;598
0005ea  f7fffffe          BL       GPIO_SetBits
0005ee  f44f4100          MOV      r1,#0x8000            ;599
0005f2  48b4              LDR      r0,|L10.2244|
0005f4  f7fffffe          BL       GPIO_ResetBits
0005f8  f88b7000          STRB     r7,[r11,#0]           ;600
0005fc  e234              B        |L10.2664|
                  |L10.1534|
0005fe  f8980008          LDRB     r0,[r8,#8]            ;629  ; cdc_sw
000602  2801              CMP      r0,#1                 ;629
000604  d004              BEQ      |L10.1552|
                  |L10.1542|
000606  f898000b          LDRB     r0,[r8,#0xb]          ;754  ; pause_flag
00060a  2801              CMP      r0,#1                 ;754
00060c  d07a              BEQ      |L10.1796|
00060e  e1e2              B        |L10.2518|
                  |L10.1552|
000610  2601              MOVS     r6,#1                 ;630
000612  f8886011          STRB     r6,[r8,#0x11]         ;630
000616  f6401113          MOV      r1,#0x913             ;631
00061a  6860              LDR      r0,[r4,#4]            ;631
00061c  f7fffffe          BL       WM_GetDialogItem
000620  f2af11b8          ADR      r1,|L10.1132|
000624  f7fffffe          BL       TEXT_SetText
000628  f640017f          MOV      r1,#0x87f             ;647
00062c  6860              LDR      r0,[r4,#4]            ;647
00062e  f7fffffe          BL       WM_GetDialogItem
000632  4682              MOV      r10,r0                ;647
000634  48a4              LDR      r0,|L10.2248|
000636  6800              LDR      r0,[r0,#0]            ;648  ; DISS_Voltage
000638  f7fffffe          BL       __aeabi_f2d
00063c  ec410b10          VMOV     d0,r0,r1              ;648
000640  ec532b10          VMOV     r2,r3,d0              ;648
000644  f2af11b4          ADR      r1,|L10.1172|
000648  4668              MOV      r0,sp                 ;648
00064a  f7fffffe          BL       __2sprintf
00064e  4669              MOV      r1,sp                 ;649
000650  4650              MOV      r0,r10                ;649
000652  f7fffffe          BL       TEXT_SetText
000656  f44f6108          MOV      r1,#0x880             ;651
00065a  6860              LDR      r0,[r4,#4]            ;651
00065c  f7fffffe          BL       WM_GetDialogItem
000660  4682              MOV      r10,r0                ;651
000662  489a              LDR      r0,|L10.2252|
000664  6800              LDR      r0,[r0,#0]            ;652  ; DISS_Current
000666  f7fffffe          BL       __aeabi_f2d
00066a  ec410b10          VMOV     d0,r0,r1              ;652
00066e  ec532b10          VMOV     r2,r3,d0              ;652
000672  f2af11e0          ADR      r1,|L10.1172|
000676  4668              MOV      r0,sp                 ;652
000678  f7fffffe          BL       __2sprintf
00067c  4669              MOV      r1,sp                 ;653
00067e  4650              MOV      r0,r10                ;653
000680  f7fffffe          BL       TEXT_SetText
000684  f8dfb248          LDR      r11,|L10.2256|
000688  f8dfa248          LDR      r10,|L10.2260|
00068c  ed9b0a00          VLDR     s0,[r11,#0]           ;655
000690  eebc0ac0          VCVT.U32.F32 s0,s0                 ;655
000694  ee100a10          VMOV     r0,s0                 ;655
000698  f8aa0000          STRH     r0,[r10,#0]           ;655
00069c  f6400181          MOV      r1,#0x881             ;656
0006a0  6860              LDR      r0,[r4,#4]            ;656
0006a2  f7fffffe          BL       WM_GetDialogItem
0006a6  9002              STR      r0,[sp,#8]            ;656
0006a8  f8ba2000          LDRH     r2,[r10,#0]           ;657  ; battery_c
0006ac  f2af210c          ADR      r1,|L10.1188|
0006b0  4668              MOV      r0,sp                 ;657
0006b2  f7fffffe          BL       __2sprintf
0006b6  4669              MOV      r1,sp                 ;658
0006b8  9802              LDR      r0,[sp,#8]            ;658
0006ba  f7fffffe          BL       TEXT_SetText
0006be  f6400182          MOV      r1,#0x882             ;660
0006c2  6860              LDR      r0,[r4,#4]            ;660
0006c4  f7fffffe          BL       WM_GetDialogItem
0006c8  4649              MOV      r1,r9                 ;661
0006ca  f7fffffe          BL       TEXT_SetTextColor
0006ce  f6400183          MOV      r1,#0x883             ;663
0006d2  6860              LDR      r0,[r4,#4]            ;663
0006d4  f7fffffe          BL       WM_GetDialogItem
0006d8  21ff              MOVS     r1,#0xff              ;664
0006da  f7fffffe          BL       TEXT_SetTextColor
0006de  f898000a          LDRB     r0,[r8,#0xa]          ;666  ; status_flash
0006e2  b180              CBZ      r0,|L10.1798|
0006e4  f6400184          MOV      r1,#0x884             ;674
0006e8  6860              LDR      r0,[r4,#4]            ;674
0006ea  f7fffffe          BL       WM_GetDialogItem
0006ee  f2af2184          ADR      r1,|L10.1132|
0006f2  f7fffffe          BL       TEXT_SetText
0006f6  f888700a          STRB     r7,[r8,#0xa]          ;676
                  |L10.1786|
0006fa  f898000b          LDRB     r0,[r8,#0xb]          ;678  ; pause_flag
0006fe  2801              CMP      r0,#1                 ;678
000700  d018              BEQ      |L10.1844|
000702  e032              B        |L10.1898|
                  |L10.1796|
000704  e125              B        |L10.2386|
                  |L10.1798|
000706  f6400184          MOV      r1,#0x884             ;667
00070a  6860              LDR      r0,[r4,#4]            ;667
00070c  f7fffffe          BL       WM_GetDialogItem
000710  4681              MOV      r9,r0                 ;667
000712  21ff              MOVS     r1,#0xff              ;668
000714  4648              MOV      r0,r9                 ;668
000716  f7fffffe          BL       TEXT_SetTextColor
00071a  4963              LDR      r1,|L10.2216|
00071c  4648              MOV      r0,r9                 ;669
00071e  f7fffffe          BL       TEXT_SetFont
000722  f7fffffe          BL       GUI_UC_SetEncodeUTF8
000726  a16c              ADR      r1,|L10.2264|
000728  4648              MOV      r0,r9                 ;671
00072a  f7fffffe          BL       TEXT_SetText
00072e  f888600a          STRB     r6,[r8,#0xa]          ;672
000732  e7e2              B        |L10.1786|
                  |L10.1844|
000734  f44f4100          MOV      r1,#0x8000            ;680
000738  4862              LDR      r0,|L10.2244|
00073a  f7fffffe          BL       GPIO_SetBits
00073e  f8887008          STRB     r7,[r8,#8]            ;681
000742  f888600c          STRB     r6,[r8,#0xc]          ;682
000746  f8980002          LDRB     r0,[r8,#2]            ;684  ; minute
00074a  f8981001          LDRB     r1,[r8,#1]            ;684  ; second
00074e  ebc01000          RSB      r0,r0,r0,LSL #4       ;684
000752  eb010180          ADD      r1,r1,r0,LSL #2       ;684
000756  f8980003          LDRB     r0,[r8,#3]            ;684  ; hour
00075a  ebc01240          RSB      r2,r0,r0,LSL #5       ;684
00075e  ebc22000          RSB      r0,r2,r0,LSL #8       ;684
000762  eb011000          ADD      r0,r1,r0,LSL #4       ;684
000766  f8a80014          STRH     r0,[r8,#0x14]         ;684
                  |L10.1898|
00076a  f8df915c          LDR      r9,|L10.2248|
00076e  ed990a00          VLDR     s0,[r9,#0]            ;687
000772  eeb40ac9          VCMPE.F32 s0,s18                ;687
000776  eef1fa10          VMRS     APSR_nzcv,FPSCR       ;687
00077a  d20c              BCS      |L10.1942|
00077c  f8980007          LDRB     r0,[r8,#7]            ;687  ; cutoff_flag
000780  b948              CBNZ     r0,|L10.1942|
000782  f7fffffe          BL       GUI_GetTime
000786  f44f71fa          MOV      r1,#0x1f4             ;689
00078a  fb90f0f1          SDIV     r0,r0,r1              ;689
00078e  f8a80012          STRH     r0,[r8,#0x12]         ;689
000792  f8886007          STRB     r6,[r8,#7]            ;690
                  |L10.1942|
000796  ed990a00          VLDR     s0,[r9,#0]            ;693
00079a  eeb40ac9          VCMPE.F32 s0,s18                ;693
00079e  eef1fa10          VMRS     APSR_nzcv,FPSCR       ;693
0007a2  d277              BCS      |L10.2196|
0007a4  f7fffffe          BL       GUI_GetTime
0007a8  f44f71fa          MOV      r1,#0x1f4             ;693
0007ac  fb90f1f1          SDIV     r1,r0,r1              ;693
0007b0  f8b80012          LDRH     r0,[r8,#0x12]         ;693  ; cutoff_time
0007b4  1a08              SUBS     r0,r1,r0              ;693
0007b6  280a              CMP      r0,#0xa               ;693
0007b8  db6c              BLT      |L10.2196|
0007ba  f8df9128          LDR      r9,|L10.2276|
0007be  f8990000          LDRB     r0,[r9,#0]            ;695  ; mode_sw
0007c2  2802              CMP      r0,#2                 ;695
0007c4  d10b              BNE      |L10.2014|
0007c6  f7fffffe          BL       GUI_GetTime
0007ca  f44f71fa          MOV      r1,#0x1f4             ;696
0007ce  fb90f0f1          SDIV     r0,r0,r1              ;696
0007d2  67a8              STR      r0,[r5,#0x78]         ;696  ; Run_Control
0007d4  f8980009          LDRB     r0,[r8,#9]            ;697  ; count
0007d8  1c40              ADDS     r0,r0,#1              ;697
0007da  f8880009          STRB     r0,[r8,#9]            ;697
                  |L10.2014|
0007de  f44f4100          MOV      r1,#0x8000            ;701
0007e2  4838              LDR      r0,|L10.2244|
0007e4  f7fffffe          BL       GPIO_SetBits
0007e8  f8981009          LDRB     r1,[r8,#9]            ;702  ; count
0007ec  f8982000          LDRB     r2,[r8,#0]            ;702  ; set_loop_count
0007f0  483d              LDR      r0,|L10.2280|
0007f2  4291              CMP      r1,r2                 ;702
0007f4  d97a              BLS      |L10.2284|
0007f6  ed900a00          VLDR     s0,[r0,#0]            ;703
0007fa  eddb0a00          VLDR     s1,[r11,#0]           ;703
0007fe  ee300a20          VADD.F32 s0,s0,s1              ;703
000802  ed800a00          VSTR     s0,[r0,#0]            ;703
000806  f8980000          LDRB     r0,[r8,#0]            ;704  ; set_loop_count
00080a  ee000a90          VMOV     s1,r0                 ;704
00080e  eef80a60          VCVT.F32.U32 s1,s1                 ;704
000812  ee801a20          VDIV.F32 s2,s0,s1              ;704
000816  eebc0ac1          VCVT.U32.F32 s0,s2                 ;704
00081a  ee100a10          VMOV     r0,s0                 ;704
00081e  f8aa0000          STRH     r0,[r10,#0]           ;704
000822  f8886009          STRB     r6,[r8,#9]            ;705
000826  f8887008          STRB     r7,[r8,#8]            ;706
00082a  f6400181          MOV      r1,#0x881             ;707
00082e  6860              LDR      r0,[r4,#4]            ;707
000830  f7fffffe          BL       WM_GetDialogItem
000834  4605              MOV      r5,r0                 ;707
000836  f8ba2000          LDRH     r2,[r10,#0]           ;708  ; battery_c
00083a  f2af3198          ADR      r1,|L10.1188|
00083e  4668              MOV      r0,sp                 ;708
000840  f7fffffe          BL       __2sprintf
000844  4669              MOV      r1,sp                 ;709
000846  4628              MOV      r0,r5                 ;709
000848  f7fffffe          BL       TEXT_SetText
00084c  f6400184          MOV      r1,#0x884             ;711
000850  6860              LDR      r0,[r4,#4]            ;711
000852  f7fffffe          BL       WM_GetDialogItem
000856  f2af31ec          ADR      r1,|L10.1132|
00085a  f7fffffe          BL       TEXT_SetText
00085e  f640018a          MOV      r1,#0x88a             ;729
000862  6860              LDR      r0,[r4,#4]            ;729
000864  f7fffffe          BL       WM_GetDialogItem
000868  f2af4100          ADR      r1,|L10.1132|
00086c  f7fffffe          BL       TEXT_SetText
000870  f640018b          MOV      r1,#0x88b             ;732
000874  6860              LDR      r0,[r4,#4]            ;732
000876  f7fffffe          BL       WM_GetDialogItem
00087a  f2af4110          ADR      r1,|L10.1132|
00087e  f7fffffe          BL       TEXT_SetText
000882  f640018c          MOV      r1,#0x88c             ;735
000886  6860              LDR      r0,[r4,#4]            ;735
000888  f7fffffe          BL       WM_GetDialogItem
00088c  f2af4124          ADR      r1,|L10.1132|
000890  f7fffffe          BL       TEXT_SetText
                  |L10.2196|
000894  e0e8              B        |L10.2664|
000896  e029              B        |L10.2284|
                  |L10.2200|
                          DCD      GUI_Font24_1
                  |L10.2204|
00089c  2900              DCB      ")",0
00089e  00                DCB      0
00089f  00                DCB      0
                  |L10.2208|
                          DCD      ||.data||
                  |L10.2212|
0008a4  25326400          DCB      "%2d",0
                  |L10.2216|
                          DCD      GUI_FontHZ16
                  |L10.2220|
0008ac  e58585e7          DCB      229,133,133,231,148,181,228,184,173,0
0008b0  94b5e4b8
0008b4  ad00    
0008b6  00                DCB      0
0008b7  00                DCB      0
                  |L10.2232|
                          DCD      DISS_POW_Voltage
                  |L10.2236|
                          DCD      DISS_POW_Current
                  |L10.2240|
                          DCD      0x40020800
                  |L10.2244|
                          DCD      0x40020000
                  |L10.2248|
                          DCD      DISS_Voltage
                  |L10.2252|
                          DCD      DISS_Current
                  |L10.2256|
                          DCD      bc_raw
                  |L10.2260|
                          DCD      battery_c
                  |L10.2264|
0008d8  e694bee7          DCB      230,148,190,231,148,181,228,184,173,0
0008dc  94b5e4b8
0008e0  ad00    
0008e2  00                DCB      0
0008e3  00                DCB      0
                  |L10.2276|
                          DCD      mode_sw
                  |L10.2280|
                          DCD      c_sum
                  |L10.2284|
0008ec  ed900a00          VLDR     s0,[r0,#0]            ;739
0008f0  eddb0a00          VLDR     s1,[r11,#0]           ;739
0008f4  ee300a20          VADD.F32 s0,s0,s1              ;739
0008f8  ed800a00          VSTR     s0,[r0,#0]            ;739
0008fc  f44f4100          MOV      r1,#0x8000            ;741
000900  48fe              LDR      r0,|L10.3324|
000902  f7fffffe          BL       GPIO_SetBits
000906  f6400181          MOV      r1,#0x881             ;742
00090a  6860              LDR      r0,[r4,#4]            ;742
00090c  f7fffffe          BL       WM_GetDialogItem
000910  4606              MOV      r6,r0                 ;742
000912  f8ba2000          LDRH     r2,[r10,#0]           ;743  ; battery_c
000916  f2af4174          ADR      r1,|L10.1188|
00091a  4668              MOV      r0,sp                 ;743
00091c  f7fffffe          BL       __2sprintf
000920  4669              MOV      r1,sp                 ;744
000922  4630              MOV      r0,r6                 ;744
000924  f7fffffe          BL       TEXT_SetText
000928  6fe8              LDR      r0,[r5,#0x7c]         ;745  ; Run_Control
00092a  6068              STR      r0,[r5,#4]            ;745  ; Run_Control
00092c  f8d50088          LDR      r0,[r5,#0x88]         ;746  ; Run_Control
000930  60a8              STR      r0,[r5,#8]            ;746  ; Run_Control
000932  4df3              LDR      r5,|L10.3328|
000934  f44f5100          MOV      r1,#0x2000            ;747
000938  4628              MOV      r0,r5                 ;747
00093a  f7fffffe          BL       GPIO_ResetBits
00093e  2102              MOVS     r1,#2                 ;748
000940  4628              MOV      r0,r5                 ;748
000942  f7fffffe          BL       GPIO_SetBits
000946  2003              MOVS     r0,#3                 ;750
000948  f8890000          STRB     r0,[r9,#0]            ;750
00094c  f8887007          STRB     r7,[r8,#7]            ;751
000950  e08a              B        |L10.2664|
                  |L10.2386|
000952  48ec              LDR      r0,|L10.3332|
000954  8800              LDRH     r0,[r0,#0]            ;754  ; battery_c
000956  b3e8              CBZ      r0,|L10.2516|
000958  f640017f          MOV      r1,#0x87f             ;755
00095c  6860              LDR      r0,[r4,#4]            ;755
00095e  f7fffffe          BL       WM_GetDialogItem
000962  4605              MOV      r5,r0                 ;755
000964  ec532b18          VMOV     r2,r3,d8              ;756
000968  f2af41e4          ADR      r1,|L10.1160|
00096c  4668              MOV      r0,sp                 ;756
00096e  f7fffffe          BL       __2sprintf
000972  4669              MOV      r1,sp                 ;757
000974  4628              MOV      r0,r5                 ;757
000976  f7fffffe          BL       TEXT_SetText
00097a  f44f6108          MOV      r1,#0x880             ;759
00097e  6860              LDR      r0,[r4,#4]            ;759
000980  f7fffffe          BL       WM_GetDialogItem
000984  4605              MOV      r5,r0                 ;759
000986  e000              B        |L10.2442|
                  |L10.2440|
000988  e08e              B        |L10.2728|
                  |L10.2442|
00098a  ec532b18          VMOV     r2,r3,d8              ;760
00098e  f2af41fc          ADR      r1,|L10.1172|
000992  4668              MOV      r0,sp                 ;760
000994  f7fffffe          BL       __2sprintf
000998  4669              MOV      r1,sp                 ;761
00099a  4628              MOV      r0,r5                 ;761
00099c  f7fffffe          BL       TEXT_SetText
0009a0  f6400182          MOV      r1,#0x882             ;763
0009a4  6860              LDR      r0,[r4,#4]            ;763
0009a6  f7fffffe          BL       WM_GetDialogItem
0009aa  4649              MOV      r1,r9                 ;764
0009ac  f7fffffe          BL       TEXT_SetTextColor
0009b0  f6400183          MOV      r1,#0x883             ;766
0009b4  6860              LDR      r0,[r4,#4]            ;766
0009b6  f7fffffe          BL       WM_GetDialogItem
0009ba  4649              MOV      r1,r9                 ;767
0009bc  f7fffffe          BL       TEXT_SetTextColor
0009c0  f6400184          MOV      r1,#0x884             ;769
0009c4  6860              LDR      r0,[r4,#4]            ;769
0009c6  f7fffffe          BL       WM_GetDialogItem
0009ca  f2af5160          ADR      r1,|L10.1132|
0009ce  f7fffffe          BL       TEXT_SetText
0009d2  e049              B        |L10.2664|
                  |L10.2516|
0009d4  e7ff              B        |L10.2518|
                  |L10.2518|
0009d6  f8980008          LDRB     r0,[r8,#8]            ;772  ; cdc_sw
0009da  bbe8              CBNZ     r0,|L10.2648|
0009dc  f640017f          MOV      r1,#0x87f             ;773
0009e0  6860              LDR      r0,[r4,#4]            ;773
0009e2  f7fffffe          BL       WM_GetDialogItem
0009e6  4605              MOV      r5,r0                 ;773
0009e8  ec532b18          VMOV     r2,r3,d8              ;774
0009ec  f2af5168          ADR      r1,|L10.1160|
0009f0  4668              MOV      r0,sp                 ;774
0009f2  f7fffffe          BL       __2sprintf
0009f6  4669              MOV      r1,sp                 ;775
0009f8  4628              MOV      r0,r5                 ;775
0009fa  f7fffffe          BL       TEXT_SetText
0009fe  f44f6108          MOV      r1,#0x880             ;777
000a02  6860              LDR      r0,[r4,#4]            ;777
000a04  f7fffffe          BL       WM_GetDialogItem
000a08  4605              MOV      r5,r0                 ;777
000a0a  ec532b18          VMOV     r2,r3,d8              ;778
000a0e  f2af517c          ADR      r1,|L10.1172|
000a12  4668              MOV      r0,sp                 ;778
000a14  f7fffffe          BL       __2sprintf
000a18  4669              MOV      r1,sp                 ;779
000a1a  4628              MOV      r0,r5                 ;779
000a1c  f7fffffe          BL       TEXT_SetText
000a20  f6401113          MOV      r1,#0x913             ;781
000a24  6860              LDR      r0,[r4,#4]            ;781
000a26  f7fffffe          BL       WM_GetDialogItem
000a2a  f2af51c0          ADR      r1,|L10.1132|
000a2e  f7fffffe          BL       TEXT_SetText
000a32  f6400182          MOV      r1,#0x882             ;784
000a36  6860              LDR      r0,[r4,#4]            ;784
000a38  f7fffffe          BL       WM_GetDialogItem
000a3c  4649              MOV      r1,r9                 ;785
000a3e  f7fffffe          BL       TEXT_SetTextColor
000a42  f6400183          MOV      r1,#0x883             ;787
000a46  6860              LDR      r0,[r4,#4]            ;787
000a48  f7fffffe          BL       WM_GetDialogItem
000a4c  4649              MOV      r1,r9                 ;788
000a4e  f7fffffe          BL       TEXT_SetTextColor
000a52  f6400184          MOV      r1,#0x884             ;790
000a56  e000              B        |L10.2650|
                  |L10.2648|
000a58  e006              B        |L10.2664|
                  |L10.2650|
000a5a  6860              LDR      r0,[r4,#4]            ;790
000a5c  f7fffffe          BL       WM_GetDialogItem
000a60  f2af51f8          ADR      r1,|L10.1132|
000a64  f7fffffe          BL       TEXT_SetText
                  |L10.2664|
000a68  f6401114          MOV      r1,#0x914             ;793
000a6c  6860              LDR      r0,[r4,#4]            ;793
000a6e  f7fffffe          BL       WM_GetDialogItem
000a72  4605              MOV      r5,r0                 ;793
000a74  48a4              LDR      r0,|L10.3336|
000a76  6800              LDR      r0,[r0,#0]            ;794  ; temp
000a78  f7fffffe          BL       __aeabi_f2d
000a7c  ec410b10          VMOV     d0,r0,r1              ;794
000a80  a1a2              ADR      r1,|L10.3340|
000a82  ec532b10          VMOV     r2,r3,d0              ;794
000a86  4668              MOV      r0,sp                 ;794
000a88  f7fffffe          BL       __2sprintf
000a8c  4669              MOV      r1,sp                 ;795
000a8e  4628              MOV      r0,r5                 ;795
000a90  f7fffffe          BL       TEXT_SetText
000a94  f24011f1          MOV      r1,#0x1f1             ;797
000a98  68e0              LDR      r0,[r4,#0xc]          ;797
000a9a  f7fffffe          BL       WM_RestartTimer
000a9e  b003              ADD      sp,sp,#0xc
000aa0  ecbd8b0a          VPOP     {d8-d12}
000aa4  e8bd8ff0          POP      {r4-r11,pc}
                  |L10.2728|
000aa8  6865              LDR      r5,[r4,#4]            ;807
000aaa  2100              MOVS     r1,#0                 ;808
000aac  4628              MOV      r0,r5                 ;808
000aae  f7fffffe          BL       WINDOW_SetBkColor
000ab2  2300              MOVS     r3,#0                 ;809
000ab4  f44f72fa          MOV      r2,#0x1f4             ;809
000ab8  2105              MOVS     r1,#5                 ;809
000aba  4628              MOV      r0,r5                 ;809
000abc  f7fffffe          BL       WM_CreateTimer
000ac0  4659              MOV      r1,r11                ;811
000ac2  6860              LDR      r0,[r4,#4]            ;811
000ac4  f7fffffe          BL       WM_GetDialogItem
000ac8  4605              MOV      r5,r0                 ;811
000aca  21ff              MOVS     r1,#0xff              ;812
000acc  4628              MOV      r0,r5                 ;812
000ace  f7fffffe          BL       TEXT_SetTextColor
000ad2  4990              LDR      r1,|L10.3348|
000ad4  4628              MOV      r0,r5                 ;813
000ad6  f7fffffe          BL       TEXT_SetFont
000ada  a18d              ADR      r1,|L10.3344|
000adc  4628              MOV      r0,r5                 ;814
000ade  f7fffffe          BL       TEXT_SetText
000ae2  f640012d          MOV      r1,#0x82d             ;822
000ae6  6860              LDR      r0,[r4,#4]            ;822
000ae8  f7fffffe          BL       WM_GetDialogItem
000aec  4605              MOV      r5,r0                 ;822
000aee  498a              LDR      r1,|L10.3352|
000af0  4628              MOV      r0,r5                 ;824
000af2  f7fffffe          BL       BUTTON_SetFont
000af6  f7fffffe          BL       GUI_UC_SetEncodeUTF8
000afa  a188              ADR      r1,|L10.3356|
000afc  4628              MOV      r0,r5                 ;826
000afe  f7fffffe          BL       BUTTON_SetText
000b02  f640012e          MOV      r1,#0x82e             ;828
000b06  6860              LDR      r0,[r4,#4]            ;828
000b08  f7fffffe          BL       WM_GetDialogItem
000b0c  4605              MOV      r5,r0                 ;828
000b0e  4982              LDR      r1,|L10.3352|
000b10  4628              MOV      r0,r5                 ;830
000b12  f7fffffe          BL       BUTTON_SetFont
000b16  f7fffffe          BL       GUI_UC_SetEncodeUTF8
000b1a  a184              ADR      r1,|L10.3372|
000b1c  4628              MOV      r0,r5                 ;832
000b1e  f7fffffe          BL       BUTTON_SetText
000b22  f640012f          MOV      r1,#0x82f             ;834
000b26  6860              LDR      r0,[r4,#4]            ;834
000b28  f7fffffe          BL       WM_GetDialogItem
000b2c  4605              MOV      r5,r0                 ;834
000b2e  2101              MOVS     r1,#1                 ;835
000b30  4628              MOV      r0,r5                 ;835
000b32  f7fffffe          BL       BUTTON_SetPressed
000b36  4978              LDR      r1,|L10.3352|
000b38  4628              MOV      r0,r5                 ;837
000b3a  f7fffffe          BL       BUTTON_SetFont
000b3e  f7fffffe          BL       GUI_UC_SetEncodeUTF8
000b42  a17e              ADR      r1,|L10.3388|
000b44  4628              MOV      r0,r5                 ;839
000b46  f7fffffe          BL       BUTTON_SetText
000b4a  f44f6103          MOV      r1,#0x830             ;841
000b4e  6860              LDR      r0,[r4,#4]            ;841
000b50  f7fffffe          BL       WM_GetDialogItem
000b54  4605              MOV      r5,r0                 ;841
000b56  4970              LDR      r1,|L10.3352|
000b58  4628              MOV      r0,r5                 ;843
000b5a  f7fffffe          BL       BUTTON_SetFont
000b5e  f7fffffe          BL       GUI_UC_SetEncodeUTF8
000b62  a179              ADR      r1,|L10.3400|
000b64  4628              MOV      r0,r5                 ;845
000b66  f7fffffe          BL       BUTTON_SetText
000b6a  f6400131          MOV      r1,#0x831             ;847
000b6e  6860              LDR      r0,[r4,#4]            ;847
000b70  f7fffffe          BL       WM_GetDialogItem
000b74  4605              MOV      r5,r0                 ;847
000b76  4641              MOV      r1,r8                 ;848
000b78  4628              MOV      r0,r5                 ;848
000b7a  f7fffffe          BL       TEXT_SetTextColor
000b7e  4974              LDR      r1,|L10.3408|
000b80  4628              MOV      r0,r5                 ;849
000b82  f7fffffe          BL       TEXT_SetFont
000b86  f7fffffe          BL       GUI_UC_SetEncodeUTF8
000b8a  a172              ADR      r1,|L10.3412|
000b8c  4628              MOV      r0,r5                 ;851
000b8e  f7fffffe          BL       TEXT_SetText
000b92  f6400132          MOV      r1,#0x832             ;853
000b96  6860              LDR      r0,[r4,#4]            ;853
000b98  f7fffffe          BL       WM_GetDialogItem
000b9c  4605              MOV      r5,r0                 ;853
000b9e  4641              MOV      r1,r8                 ;854
000ba0  4628              MOV      r0,r5                 ;854
000ba2  f7fffffe          BL       TEXT_SetTextColor
000ba6  496a              LDR      r1,|L10.3408|
000ba8  4628              MOV      r0,r5                 ;855
000baa  f7fffffe          BL       TEXT_SetFont
000bae  f7fffffe          BL       GUI_UC_SetEncodeUTF8
000bb2  a169              ADR      r1,|L10.3416|
000bb4  4628              MOV      r0,r5                 ;857
000bb6  f7fffffe          BL       TEXT_SetText
000bba  f6400133          MOV      r1,#0x833             ;859
000bbe  6860              LDR      r0,[r4,#4]            ;859
000bc0  f7fffffe          BL       WM_GetDialogItem
000bc4  4605              MOV      r5,r0                 ;859
000bc6  4641              MOV      r1,r8                 ;860
000bc8  4628              MOV      r0,r5                 ;860
000bca  f7fffffe          BL       TEXT_SetTextColor
000bce  4960              LDR      r1,|L10.3408|
000bd0  4628              MOV      r0,r5                 ;861
000bd2  f7fffffe          BL       TEXT_SetFont
000bd6  f7fffffe          BL       GUI_UC_SetEncodeUTF8
000bda  a160              ADR      r1,|L10.3420|
000bdc  4628              MOV      r0,r5                 ;863
000bde  f7fffffe          BL       TEXT_SetText
000be2  f6400134          MOV      r1,#0x834             ;865
000be6  6860              LDR      r0,[r4,#4]            ;865
000be8  f7fffffe          BL       WM_GetDialogItem
000bec  4605              MOV      r5,r0                 ;865
000bee  4641              MOV      r1,r8                 ;866
000bf0  4628              MOV      r0,r5                 ;866
000bf2  f7fffffe          BL       TEXT_SetTextColor
000bf6  4956              LDR      r1,|L10.3408|
000bf8  4628              MOV      r0,r5                 ;867
000bfa  f7fffffe          BL       TEXT_SetFont
000bfe  f7fffffe          BL       GUI_UC_SetEncodeUTF8
000c02  a157              ADR      r1,|L10.3424|
000c04  4628              MOV      r0,r5                 ;869
000c06  f7fffffe          BL       TEXT_SetText
000c0a  f640016f          MOV      r1,#0x86f             ;871
000c0e  6860              LDR      r0,[r4,#4]            ;871
000c10  f7fffffe          BL       WM_GetDialogItem
000c14  4605              MOV      r5,r0                 ;871
000c16  2100              MOVS     r1,#0                 ;872
000c18  4628              MOV      r0,r5                 ;872
000c1a  f7fffffe          BL       TEXT_SetTextColor
000c1e  4951              LDR      r1,|L10.3428|
000c20  4628              MOV      r0,r5                 ;873
000c22  f7fffffe          BL       TEXT_SetBkColor
000c26  4950              LDR      r1,|L10.3432|
000c28  4628              MOV      r0,r5                 ;874
000c2a  f7fffffe          BL       TEXT_SetFont
000c2e  f7fffffe          BL       GUI_UC_SetEncodeUTF8
000c32  a14e              ADR      r1,|L10.3436|
000c34  4628              MOV      r0,r5                 ;876
000c36  f7fffffe          BL       TEXT_SetText
000c3a  f44f6107          MOV      r1,#0x870             ;878
000c3e  6860              LDR      r0,[r4,#4]            ;878
000c40  f7fffffe          BL       WM_GetDialogItem
000c44  4605              MOV      r5,r0                 ;878
000c46  4649              MOV      r1,r9                 ;879
000c48  4628              MOV      r0,r5                 ;879
000c4a  f7fffffe          BL       TEXT_SetTextColor
000c4e  4946              LDR      r1,|L10.3432|
000c50  4628              MOV      r0,r5                 ;880
000c52  f7fffffe          BL       TEXT_SetFont
000c56  f7fffffe          BL       GUI_UC_SetEncodeUTF8
000c5a  a148              ADR      r1,|L10.3452|
000c5c  4628              MOV      r0,r5                 ;882
000c5e  f7fffffe          BL       TEXT_SetText
000c62  f6400177          MOV      r1,#0x877             ;884
000c66  6860              LDR      r0,[r4,#4]            ;884
000c68  f7fffffe          BL       WM_GetDialogItem
000c6c  4605              MOV      r5,r0                 ;884
000c6e  4649              MOV      r1,r9                 ;885
000c70  4628              MOV      r0,r5                 ;885
000c72  f7fffffe          BL       TEXT_SetTextColor
000c76  493c              LDR      r1,|L10.3432|
000c78  4628              MOV      r0,r5                 ;886
000c7a  f7fffffe          BL       TEXT_SetFont
000c7e  f7fffffe          BL       GUI_UC_SetEncodeUTF8
000c82  a142              ADR      r1,|L10.3468|
000c84  4628              MOV      r0,r5                 ;888
000c86  f7fffffe          BL       TEXT_SetText
000c8a  f6400178          MOV      r1,#0x878             ;890
000c8e  6860              LDR      r0,[r4,#4]            ;890
000c90  f7fffffe          BL       WM_GetDialogItem
000c94  4605              MOV      r5,r0                 ;890
000c96  4649              MOV      r1,r9                 ;891
000c98  4628              MOV      r0,r5                 ;891
000c9a  f7fffffe          BL       TEXT_SetTextColor
000c9e  4932              LDR      r1,|L10.3432|
000ca0  4628              MOV      r0,r5                 ;892
000ca2  f7fffffe          BL       TEXT_SetFont
000ca6  f7fffffe          BL       GUI_UC_SetEncodeUTF8
000caa  a13c              ADR      r1,|L10.3484|
000cac  4628              MOV      r0,r5                 ;894
000cae  f7fffffe          BL       TEXT_SetText
000cb2  f6400171          MOV      r1,#0x871             ;896
000cb6  6860              LDR      r0,[r4,#4]            ;896
000cb8  f7fffffe          BL       WM_GetDialogItem
000cbc  4605              MOV      r5,r0                 ;896
000cbe  4649              MOV      r1,r9                 ;897
000cc0  4628              MOV      r0,r5                 ;897
000cc2  f7fffffe          BL       TEXT_SetTextColor
000cc6  4928              LDR      r1,|L10.3432|
000cc8  4628              MOV      r0,r5                 ;898
000cca  f7fffffe          BL       TEXT_SetFont
000cce  f7fffffe          BL       GUI_UC_SetEncodeUTF8
000cd2  a136              ADR      r1,|L10.3500|
000cd4  4628              MOV      r0,r5                 ;900
000cd6  f7fffffe          BL       TEXT_SetText
000cda  f6400179          MOV      r1,#0x879             ;902
000cde  6860              LDR      r0,[r4,#4]            ;902
000ce0  f7fffffe          BL       WM_GetDialogItem
000ce4  4605              MOV      r5,r0                 ;902
000ce6  4649              MOV      r1,r9                 ;903
000ce8  4628              MOV      r0,r5                 ;903
000cea  f7fffffe          BL       TEXT_SetTextColor
000cee  491e              LDR      r1,|L10.3432|
000cf0  4628              MOV      r0,r5                 ;904
000cf2  f7fffffe          BL       TEXT_SetFont
000cf6  f7fffffe          BL       GUI_UC_SetEncodeUTF8
000cfa  e05f              B        |L10.3516|
                  |L10.3324|
                          DCD      0x40020000
                  |L10.3328|
                          DCD      0x40020800
                  |L10.3332|
                          DCD      battery_c
                  |L10.3336|
                          DCD      temp
                  |L10.3340|
000d0c  252e3166          DCB      "%.1f"
                  |L10.3344|
000d10  00                DCB      0
000d11  00                DCB      0
000d12  00                DCB      0
000d13  00                DCB      0
                  |L10.3348|
                          DCD      GUI_FontHZ14
                  |L10.3352|
                          DCD      GUI_FontHZ16
                  |L10.3356|
000d1c  e7a88be6          DCB      231,168,139,230,142,167,232,180,159,232,189,189,0
000d20  8ea7e8b4
000d24  9fe8bdbd
000d28  00      
000d29  00                DCB      0
000d2a  00                DCB      0
000d2b  00                DCB      0
                  |L10.3372|
000d2c  e7a88be6          DCB      231,168,139,230,142,167,231,148,181,230,186,144,0
000d30  8ea7e794
000d34  b5e6ba90
000d38  00      
000d39  00                DCB      0
000d3a  00                DCB      0
000d3b  00                DCB      0
                  |L10.3388|
000d3c  e58585e6          DCB      229,133,133,230,148,190,231,148,181,0
000d40  94bee794
000d44  b500    
000d46  00                DCB      0
000d47  00                DCB      0
                  |L10.3400|
000d48  e69bb2e7          DCB      230,155,178,231,186,191,0
000d4c  babf00  
000d4f  00                DCB      0
                  |L10.3408|
                          DCD      GUI_FontEN40
                  |L10.3412|
000d54  563a00            DCB      "V:",0
000d57  00                DCB      0
                  |L10.3416|
000d58  493a00            DCB      "I:",0
000d5b  00                DCB      0
                  |L10.3420|
000d5c  5600              DCB      "V",0
000d5e  00                DCB      0
000d5f  00                DCB      0
                  |L10.3424|
000d60  4100              DCB      "A",0
000d62  00                DCB      0
000d63  00                DCB      0
                  |L10.3428|
                          DCD      0x00bfffff
                  |L10.3432|
                          DCD      GUI_Fontset_font
                  |L10.3436|
000d6c  e8be93e5          DCB      232,190,147,229,135,186,231,148,181,229,142,139,0
000d70  87bae794
000d74  b5e58e8b
000d78  00      
000d79  00                DCB      0
000d7a  00                DCB      0
000d7b  00                DCB      0
                  |L10.3452|
000d7c  e99990e5          DCB      233,153,144,229,136,182,231,148,181,230,181,129,0
000d80  88b6e794
000d84  b5e6b581
000d88  00      
000d89  00                DCB      0
000d8a  00                DCB      0
000d8b  00                DCB      0
                  |L10.3468|
000d8c  e688aae6          DCB      230,136,170,230,173,162,231,148,181,229,142,139,0
000d90  ada2e794
000d94  b5e58e8b
000d98  00      
000d99  00                DCB      0
000d9a  00                DCB      0
000d9b  00                DCB      0
                  |L10.3484|
000d9c  e688aae6          DCB      230,136,170,230,173,162,231,148,181,230,181,129,0
000da0  ada2e794
000da4  b5e6b581
000da8  00      
000da9  00                DCB      0
000daa  00                DCB      0
000dab  00                DCB      0
                  |L10.3500|
000dac  e8b49fe8          DCB      232,180,159,232,189,189,231,148,181,230,181,129,0
000db0  bdbde794
000db4  b5e6b581
000db8  00      
000db9  00                DCB      0
000dba  00                DCB      0
000dbb  00                DCB      0
                  |L10.3516|
000dbc  f2af0134          ADR      r1,|L10.3468|
000dc0  4628              MOV      r0,r5                 ;906
000dc2  f7fffffe          BL       TEXT_SetText
000dc6  f6400172          MOV      r1,#0x872             ;914
000dca  6860              LDR      r0,[r4,#4]            ;914
000dcc  f7fffffe          BL       WM_GetDialogItem
000dd0  4605              MOV      r5,r0                 ;914
000dd2  4649              MOV      r1,r9                 ;915
000dd4  4628              MOV      r0,r5                 ;915
000dd6  f7fffffe          BL       TEXT_SetTextColor
000dda  49fe              LDR      r1,|L10.4564|
000ddc  4628              MOV      r0,r5                 ;916
000dde  f7fffffe          BL       TEXT_SetFont
000de2  f7fffffe          BL       GUI_UC_SetEncodeUTF8
000de6  a1fc              ADR      r1,|L10.4568|
000de8  4628              MOV      r0,r5                 ;918
000dea  f7fffffe          BL       TEXT_SetText
000dee  f6400173          MOV      r1,#0x873             ;920
000df2  6860              LDR      r0,[r4,#4]            ;920
000df4  f7fffffe          BL       WM_GetDialogItem
000df8  4605              MOV      r5,r0                 ;920
000dfa  ee1c0a90          VMOV     r0,s25                ;921
000dfe  f7fffffe          BL       __aeabi_f2d
000e02  ec410b10          VMOV     d0,r0,r1              ;921
000e06  ec532b10          VMOV     r2,r3,d0              ;921
000e0a  f6af1184          ADR      r1,|L10.1160|
000e0e  4668              MOV      r0,sp                 ;921
000e10  f7fffffe          BL       __2sprintf
000e14  4649              MOV      r1,r9                 ;922
000e16  4628              MOV      r0,r5                 ;922
000e18  f7fffffe          BL       TEXT_SetTextColor
000e1c  49f2              LDR      r1,|L10.4584|
000e1e  4628              MOV      r0,r5                 ;923
000e20  f7fffffe          BL       TEXT_SetFont
000e24  f7fffffe          BL       GUI_UC_SetEncodeUTF8
000e28  4669              MOV      r1,sp                 ;925
000e2a  4628              MOV      r0,r5                 ;925
000e2c  f7fffffe          BL       TEXT_SetText
000e30  f6400174          MOV      r1,#0x874             ;927
000e34  6860              LDR      r0,[r4,#4]            ;927
000e36  f7fffffe          BL       WM_GetDialogItem
000e3a  4605              MOV      r5,r0                 ;927
000e3c  ee1c0a10          VMOV     r0,s24                ;928
000e40  f7fffffe          BL       __aeabi_f2d
000e44  ec410b10          VMOV     d0,r0,r1              ;928
000e48  ec532b10          VMOV     r2,r3,d0              ;928
000e4c  f6af11bc          ADR      r1,|L10.1172|
000e50  4668              MOV      r0,sp                 ;928
000e52  f7fffffe          BL       __2sprintf
000e56  4649              MOV      r1,r9                 ;929
000e58  4628              MOV      r0,r5                 ;929
000e5a  f7fffffe          BL       TEXT_SetTextColor
000e5e  49e2              LDR      r1,|L10.4584|
000e60  4628              MOV      r0,r5                 ;930
000e62  f7fffffe          BL       TEXT_SetFont
000e66  f7fffffe          BL       GUI_UC_SetEncodeUTF8
000e6a  4669              MOV      r1,sp                 ;932
000e6c  4628              MOV      r0,r5                 ;932
000e6e  f7fffffe          BL       TEXT_SetText
000e72  f6400175          MOV      r1,#0x875             ;934
000e76  6860              LDR      r0,[r4,#4]            ;934
000e78  f7fffffe          BL       WM_GetDialogItem
000e7c  4605              MOV      r5,r0                 ;934
000e7e  ee1b0a10          VMOV     r0,s22                ;935
000e82  f7fffffe          BL       __aeabi_f2d
000e86  ec410b10          VMOV     d0,r0,r1              ;935
000e8a  ec532b10          VMOV     r2,r3,d0              ;935
000e8e  f6af11fc          ADR      r1,|L10.1172|
000e92  4668              MOV      r0,sp                 ;935
000e94  f7fffffe          BL       __2sprintf
000e98  4649              MOV      r1,r9                 ;936
000e9a  4628              MOV      r0,r5                 ;936
000e9c  f7fffffe          BL       TEXT_SetTextColor
000ea0  49d1              LDR      r1,|L10.4584|
000ea2  4628              MOV      r0,r5                 ;937
000ea4  f7fffffe          BL       TEXT_SetFont
000ea8  f7fffffe          BL       GUI_UC_SetEncodeUTF8
000eac  4669              MOV      r1,sp                 ;939
000eae  4628              MOV      r0,r5                 ;939
000eb0  f7fffffe          BL       TEXT_SetText
000eb4  f6400176          MOV      r1,#0x876             ;941
000eb8  6860              LDR      r0,[r4,#4]            ;941
000eba  f7fffffe          BL       WM_GetDialogItem
000ebe  4606              MOV      r6,r0                 ;941
000ec0  4dca              LDR      r5,|L10.4588|
000ec2  782a              LDRB     r2,[r5,#0]            ;942  ; set_loop_count
000ec4  a1ca              ADR      r1,|L10.4592|
000ec6  4668              MOV      r0,sp                 ;942
000ec8  f7fffffe          BL       __2sprintf
000ecc  4649              MOV      r1,r9                 ;943
000ece  4630              MOV      r0,r6                 ;943
000ed0  f7fffffe          BL       TEXT_SetTextColor
000ed4  49c4              LDR      r1,|L10.4584|
000ed6  4630              MOV      r0,r6                 ;944
000ed8  f7fffffe          BL       TEXT_SetFont
000edc  f7fffffe          BL       GUI_UC_SetEncodeUTF8
000ee0  4669              MOV      r1,sp                 ;946
000ee2  4630              MOV      r0,r6                 ;946
000ee4  f7fffffe          BL       TEXT_SetText
000ee8  f640017b          MOV      r1,#0x87b             ;950
000eec  6860              LDR      r0,[r4,#4]            ;950
000eee  f7fffffe          BL       WM_GetDialogItem
000ef2  4606              MOV      r6,r0                 ;950
000ef4  ee1a0a10          VMOV     r0,s20                ;951
000ef8  f7fffffe          BL       __aeabi_f2d
000efc  ec410b10          VMOV     d0,r0,r1              ;951
000f00  ec532b10          VMOV     r2,r3,d0              ;951
000f04  f6af2180          ADR      r1,|L10.1160|
000f08  4668              MOV      r0,sp                 ;951
000f0a  f7fffffe          BL       __2sprintf
000f0e  4649              MOV      r1,r9                 ;952
000f10  4630              MOV      r0,r6                 ;952
000f12  f7fffffe          BL       TEXT_SetTextColor
000f16  49b4              LDR      r1,|L10.4584|
000f18  4630              MOV      r0,r6                 ;953
000f1a  f7fffffe          BL       TEXT_SetFont
000f1e  f7fffffe          BL       GUI_UC_SetEncodeUTF8
000f22  4669              MOV      r1,sp                 ;955
000f24  4630              MOV      r0,r6                 ;955
000f26  f7fffffe          BL       TEXT_SetText
000f2a  f640017c          MOV      r1,#0x87c             ;957
000f2e  6860              LDR      r0,[r4,#4]            ;957
000f30  f7fffffe          BL       WM_GetDialogItem
000f34  4606              MOV      r6,r0                 ;957
000f36  ee190a90          VMOV     r0,s19                ;958
000f3a  f7fffffe          BL       __aeabi_f2d
000f3e  ec410b10          VMOV     d0,r0,r1              ;958
000f42  ec532b10          VMOV     r2,r3,d0              ;958
000f46  f6af21b4          ADR      r1,|L10.1172|
000f4a  4668              MOV      r0,sp                 ;958
000f4c  f7fffffe          BL       __2sprintf
000f50  4649              MOV      r1,r9                 ;959
000f52  4630              MOV      r0,r6                 ;959
000f54  f7fffffe          BL       TEXT_SetTextColor
000f58  49a3              LDR      r1,|L10.4584|
000f5a  4630              MOV      r0,r6                 ;960
000f5c  f7fffffe          BL       TEXT_SetFont
000f60  f7fffffe          BL       GUI_UC_SetEncodeUTF8
000f64  4669              MOV      r1,sp                 ;962
000f66  4630              MOV      r0,r6                 ;962
000f68  f7fffffe          BL       TEXT_SetText
000f6c  f640017d          MOV      r1,#0x87d             ;964
000f70  6860              LDR      r0,[r4,#4]            ;964
000f72  f7fffffe          BL       WM_GetDialogItem
000f76  4606              MOV      r6,r0                 ;964
000f78  ee190a10          VMOV     r0,s18                ;965
000f7c  f7fffffe          BL       __aeabi_f2d
000f80  ec410b10          VMOV     d0,r0,r1              ;965
000f84  ec532b10          VMOV     r2,r3,d0              ;965
000f88  f6af21f8          ADR      r1,|L10.1172|
000f8c  4668              MOV      r0,sp                 ;965
000f8e  f7fffffe          BL       __2sprintf
000f92  4649              MOV      r1,r9                 ;966
000f94  4630              MOV      r0,r6                 ;966
000f96  f7fffffe          BL       TEXT_SetTextColor
000f9a  4993              LDR      r1,|L10.4584|
000f9c  4630              MOV      r0,r6                 ;967
000f9e  f7fffffe          BL       TEXT_SetFont
000fa2  f7fffffe          BL       GUI_UC_SetEncodeUTF8
000fa6  4669              MOV      r1,sp                 ;969
000fa8  4630              MOV      r0,r6                 ;969
000faa  f7fffffe          BL       TEXT_SetText
000fae  f640017f          MOV      r1,#0x87f             ;978
000fb2  6860              LDR      r0,[r4,#4]            ;978
000fb4  f7fffffe          BL       WM_GetDialogItem
000fb8  4606              MOV      r6,r0                 ;978
000fba  ec532b18          VMOV     r2,r3,d8              ;979
000fbe  f6af3138          ADR      r1,|L10.1160|
000fc2  4668              MOV      r0,sp                 ;979
000fc4  f7fffffe          BL       __2sprintf
000fc8  4651              MOV      r1,r10                ;980
000fca  4630              MOV      r0,r6                 ;980
000fcc  f7fffffe          BL       TEXT_SetTextColor
000fd0  4988              LDR      r1,|L10.4596|
000fd2  4630              MOV      r0,r6                 ;981
000fd4  f7fffffe          BL       TEXT_SetFont
000fd8  f7fffffe          BL       GUI_UC_SetEncodeUTF8
000fdc  4669              MOV      r1,sp                 ;983
000fde  4630              MOV      r0,r6                 ;983
000fe0  f7fffffe          BL       TEXT_SetText
000fe4  f44f6108          MOV      r1,#0x880             ;985
000fe8  6860              LDR      r0,[r4,#4]            ;985
000fea  f7fffffe          BL       WM_GetDialogItem
000fee  4606              MOV      r6,r0                 ;985
000ff0  ec532b18          VMOV     r2,r3,d8              ;986
000ff4  f6af3164          ADR      r1,|L10.1172|
000ff8  4668              MOV      r0,sp                 ;986
000ffa  f7fffffe          BL       __2sprintf
000ffe  4651              MOV      r1,r10                ;987
001000  4630              MOV      r0,r6                 ;987
001002  f7fffffe          BL       TEXT_SetTextColor
001006  497b              LDR      r1,|L10.4596|
001008  4630              MOV      r0,r6                 ;988
00100a  f7fffffe          BL       TEXT_SetFont
00100e  f7fffffe          BL       GUI_UC_SetEncodeUTF8
001012  4669              MOV      r1,sp                 ;990
001014  4630              MOV      r0,r6                 ;990
001016  f7fffffe          BL       TEXT_SetText
00101a  f6400181          MOV      r1,#0x881             ;992
00101e  6860              LDR      r0,[r4,#4]            ;992
001020  f7fffffe          BL       WM_GetDialogItem
001024  4606              MOV      r6,r0                 ;992
001026  2200              MOVS     r2,#0                 ;993
001028  f6af3188          ADR      r1,|L10.1188|
00102c  4668              MOV      r0,sp                 ;993
00102e  f7fffffe          BL       __2sprintf
001032  4651              MOV      r1,r10                ;994
001034  4630              MOV      r0,r6                 ;994
001036  f7fffffe          BL       TEXT_SetTextColor
00103a  496e              LDR      r1,|L10.4596|
00103c  4630              MOV      r0,r6                 ;995
00103e  f7fffffe          BL       TEXT_SetFont
001042  f7fffffe          BL       GUI_UC_SetEncodeUTF8
001046  4669              MOV      r1,sp                 ;997
001048  4630              MOV      r0,r6                 ;997
00104a  f7fffffe          BL       TEXT_SetText
00104e  f6400182          MOV      r1,#0x882             ;999
001052  6860              LDR      r0,[r4,#4]            ;999
001054  f7fffffe          BL       WM_GetDialogItem
001058  4606              MOV      r6,r0                 ;999
00105a  4649              MOV      r1,r9                 ;1000
00105c  4630              MOV      r0,r6                 ;1000
00105e  f7fffffe          BL       TEXT_SetTextColor
001062  4965              LDR      r1,|L10.4600|
001064  4630              MOV      r0,r6                 ;1001
001066  f7fffffe          BL       TEXT_SetFont
00106a  f7fffffe          BL       GUI_UC_SetEncodeUTF8
00106e  f6af411c          ADR      r1,|L10.1108|
001072  4630              MOV      r0,r6                 ;1003
001074  f7fffffe          BL       TEXT_SetText
001078  f640018a          MOV      r1,#0x88a             ;1005
00107c  6860              LDR      r0,[r4,#4]            ;1005
00107e  f7fffffe          BL       WM_GetDialogItem
001082  4606              MOV      r6,r0                 ;1005
001084  4651              MOV      r1,r10                ;1006
001086  4630              MOV      r0,r6                 ;1006
001088  f7fffffe          BL       TEXT_SetTextColor
00108c  4956              LDR      r1,|L10.4584|
00108e  4630              MOV      r0,r6                 ;1007
001090  f7fffffe          BL       TEXT_SetFont
001094  f7fffffe          BL       GUI_UC_SetEncodeUTF8
001098  a152              ADR      r1,|L10.4580|
00109a  4630              MOV      r0,r6                 ;1009
00109c  f7fffffe          BL       TEXT_SetText
0010a0  f640018b          MOV      r1,#0x88b             ;1011
0010a4  6860              LDR      r0,[r4,#4]            ;1011
0010a6  f7fffffe          BL       WM_GetDialogItem
0010aa  4606              MOV      r6,r0                 ;1011
0010ac  4651              MOV      r1,r10                ;1012
0010ae  4630              MOV      r0,r6                 ;1012
0010b0  f7fffffe          BL       TEXT_SetTextColor
0010b4  494c              LDR      r1,|L10.4584|
0010b6  4630              MOV      r0,r6                 ;1013
0010b8  f7fffffe          BL       TEXT_SetFont
0010bc  f7fffffe          BL       GUI_UC_SetEncodeUTF8
0010c0  a148              ADR      r1,|L10.4580|
0010c2  4630              MOV      r0,r6                 ;1015
0010c4  f7fffffe          BL       TEXT_SetText
0010c8  f640018c          MOV      r1,#0x88c             ;1017
0010cc  6860              LDR      r0,[r4,#4]            ;1017
0010ce  f7fffffe          BL       WM_GetDialogItem
0010d2  4606              MOV      r6,r0                 ;1017
0010d4  4651              MOV      r1,r10                ;1018
0010d6  4630              MOV      r0,r6                 ;1018
0010d8  f7fffffe          BL       TEXT_SetTextColor
0010dc  4942              LDR      r1,|L10.4584|
0010de  4630              MOV      r0,r6                 ;1019
0010e0  f7fffffe          BL       TEXT_SetFont
0010e4  f7fffffe          BL       GUI_UC_SetEncodeUTF8
0010e8  a13e              ADR      r1,|L10.4580|
0010ea  4630              MOV      r0,r6                 ;1021
0010ec  f7fffffe          BL       TEXT_SetText
0010f0  f6401113          MOV      r1,#0x913             ;1023
0010f4  6860              LDR      r0,[r4,#4]            ;1023
0010f6  f7fffffe          BL       WM_GetDialogItem
0010fa  4606              MOV      r6,r0                 ;1023
0010fc  21ff              MOVS     r1,#0xff              ;1024
0010fe  4630              MOV      r0,r6                 ;1024
001100  f7fffffe          BL       TEXT_SetTextColor
001104  4933              LDR      r1,|L10.4564|
001106  4630              MOV      r0,r6                 ;1025
001108  f7fffffe          BL       TEXT_SetFont
00110c  f7fffffe          BL       GUI_UC_SetEncodeUTF8
001110  a134              ADR      r1,|L10.4580|
001112  4630              MOV      r0,r6                 ;1027
001114  f7fffffe          BL       TEXT_SetText
001118  f6400183          MOV      r1,#0x883             ;1029
00111c  6860              LDR      r0,[r4,#4]            ;1029
00111e  f7fffffe          BL       WM_GetDialogItem
001122  4606              MOV      r6,r0                 ;1029
001124  4649              MOV      r1,r9                 ;1030
001126  4630              MOV      r0,r6                 ;1030
001128  f7fffffe          BL       TEXT_SetTextColor
00112c  4932              LDR      r1,|L10.4600|
00112e  4630              MOV      r0,r6                 ;1031
001130  f7fffffe          BL       TEXT_SetFont
001134  f7fffffe          BL       GUI_UC_SetEncodeUTF8
001138  f6af41e0          ADR      r1,|L10.1116|
00113c  4630              MOV      r0,r6                 ;1033
00113e  f7fffffe          BL       TEXT_SetText
001142  f6401114          MOV      r1,#0x914             ;1035
001146  6860              LDR      r0,[r4,#4]            ;1035
001148  f7fffffe          BL       WM_GetDialogItem
00114c  4606              MOV      r6,r0                 ;1035
00114e  4651              MOV      r1,r10                ;1036
001150  4630              MOV      r0,r6                 ;1036
001152  f7fffffe          BL       TEXT_SetTextColor
001156  4924              LDR      r1,|L10.4584|
001158  4630              MOV      r0,r6                 ;1037
00115a  f7fffffe          BL       TEXT_SetFont
00115e  4827              LDR      r0,|L10.4604|
001160  6800              LDR      r0,[r0,#0]            ;1038  ; temp
001162  f7fffffe          BL       __aeabi_f2d
001166  ec410b10          VMOV     d0,r0,r1              ;1038
00116a  ec532b10          VMOV     r2,r3,d0              ;1038
00116e  f2af4164          ADR      r1,|L10.3340|
001172  4668              MOV      r0,sp                 ;1038
001174  f7fffffe          BL       __2sprintf
001178  4669              MOV      r1,sp                 ;1039
00117a  4630              MOV      r0,r6                 ;1039
00117c  f7fffffe          BL       TEXT_SetText
001180  4639              MOV      r1,r7                 ;1041
001182  6860              LDR      r0,[r4,#4]            ;1041
001184  f7fffffe          BL       WM_GetDialogItem
001188  4606              MOV      r6,r0                 ;1041
00118a  78ea              LDRB     r2,[r5,#3]            ;1042  ; hour
00118c  f6af511c          ADR      r1,|L10.1140|
001190  4668              MOV      r0,sp                 ;1042
001192  f7fffffe          BL       __2sprintf
001196  4649              MOV      r1,r9                 ;1043
001198  4630              MOV      r0,r6                 ;1043
00119a  f7fffffe          BL       TEXT_SetTextColor
00119e  4912              LDR      r1,|L10.4584|
0011a0  4630              MOV      r0,r6                 ;1044
0011a2  f7fffffe          BL       TEXT_SetFont
0011a6  f7fffffe          BL       GUI_UC_SetEncodeUTF8
0011aa  4669              MOV      r1,sp                 ;1046
0011ac  4630              MOV      r0,r6                 ;1046
0011ae  f7fffffe          BL       TEXT_SetText
0011b2  f6400188          MOV      r1,#0x888             ;1048
0011b6  6860              LDR      r0,[r4,#4]            ;1048
0011b8  f7fffffe          BL       WM_GetDialogItem
0011bc  4606              MOV      r6,r0                 ;1048
0011be  78aa              LDRB     r2,[r5,#2]            ;1049  ; minute
0011c0  f6af5150          ADR      r1,|L10.1140|
0011c4  4668              MOV      r0,sp                 ;1049
0011c6  f7fffffe          BL       __2sprintf
0011ca  4649              MOV      r1,r9                 ;1050
0011cc  4630              MOV      r0,r6                 ;1050
0011ce  f7fffffe          BL       TEXT_SetTextColor
0011d2  e015              B        |L10.4608|
                  |L10.4564|
                          DCD      GUI_Fontset_font
                  |L10.4568|
0011d8  e5beaae7          DCB      229,190,170,231,142,175,230,172,161,230,149,176
0011dc  8eafe6ac
0011e0  a1e695b0
                  |L10.4580|
0011e4  00                DCB      0
0011e5  00                DCB      0
0011e6  00                DCB      0
0011e7  00                DCB      0
                  |L10.4584|
                          DCD      GUI_Font24_1
                  |L10.4588|
                          DCD      ||.data||
                  |L10.4592|
0011f0  25336400          DCB      "%3d",0
                  |L10.4596|
                          DCD      GUI_FontD24x32
                  |L10.4600|
                          DCD      GUI_FontHZ16
                  |L10.4604|
                          DCD      temp
                  |L10.4608|
001200  493b              LDR      r1,|L10.4848|
001202  4630              MOV      r0,r6                 ;1051
001204  f7fffffe          BL       TEXT_SetFont
001208  f7fffffe          BL       GUI_UC_SetEncodeUTF8
00120c  4669              MOV      r1,sp                 ;1053
00120e  4630              MOV      r0,r6                 ;1053
001210  f7fffffe          BL       TEXT_SetText
001214  f6400189          MOV      r1,#0x889             ;1055
001218  6860              LDR      r0,[r4,#4]            ;1055
00121a  f7fffffe          BL       WM_GetDialogItem
00121e  4606              MOV      r6,r0                 ;1055
001220  786a              LDRB     r2,[r5,#1]            ;1056  ; second
001222  f6af51b0          ADR      r1,|L10.1140|
001226  4668              MOV      r0,sp                 ;1056
001228  f7fffffe          BL       __2sprintf
00122c  4649              MOV      r1,r9                 ;1057
00122e  4630              MOV      r0,r6                 ;1057
001230  f7fffffe          BL       TEXT_SetTextColor
001234  492e              LDR      r1,|L10.4848|
001236  4630              MOV      r0,r6                 ;1058
001238  f7fffffe          BL       TEXT_SetFont
00123c  f7fffffe          BL       GUI_UC_SetEncodeUTF8
001240  4669              MOV      r1,sp                 ;1060
001242  4630              MOV      r0,r6                 ;1060
001244  f7fffffe          BL       TEXT_SetText
001248  f6400185          MOV      r1,#0x885             ;1062
00124c  6860              LDR      r0,[r4,#4]            ;1062
00124e  f7fffffe          BL       WM_GetDialogItem
001252  4606              MOV      r6,r0                 ;1062
001254  79aa              LDRB     r2,[r5,#6]            ;1063  ; hour1
001256  f6af51e4          ADR      r1,|L10.1140|
00125a  4668              MOV      r0,sp                 ;1063
00125c  f7fffffe          BL       __2sprintf
001260  4649              MOV      r1,r9                 ;1064
001262  4630              MOV      r0,r6                 ;1064
001264  f7fffffe          BL       TEXT_SetTextColor
001268  4921              LDR      r1,|L10.4848|
00126a  4630              MOV      r0,r6                 ;1065
00126c  f7fffffe          BL       TEXT_SetFont
001270  f7fffffe          BL       GUI_UC_SetEncodeUTF8
001274  4669              MOV      r1,sp                 ;1067
001276  4630              MOV      r0,r6                 ;1067
001278  f7fffffe          BL       TEXT_SetText
00127c  f6400186          MOV      r1,#0x886             ;1069
001280  6860              LDR      r0,[r4,#4]            ;1069
001282  f7fffffe          BL       WM_GetDialogItem
001286  4606              MOV      r6,r0                 ;1069
001288  796a              LDRB     r2,[r5,#5]            ;1070  ; minute1
00128a  f6af6118          ADR      r1,|L10.1140|
00128e  4668              MOV      r0,sp                 ;1070
001290  f7fffffe          BL       __2sprintf
001294  4649              MOV      r1,r9                 ;1071
001296  4630              MOV      r0,r6                 ;1071
001298  f7fffffe          BL       TEXT_SetTextColor
00129c  4914              LDR      r1,|L10.4848|
00129e  4630              MOV      r0,r6                 ;1072
0012a0  f7fffffe          BL       TEXT_SetFont
0012a4  f7fffffe          BL       GUI_UC_SetEncodeUTF8
0012a8  4669              MOV      r1,sp                 ;1074
0012aa  4630              MOV      r0,r6                 ;1074
0012ac  f7fffffe          BL       TEXT_SetText
0012b0  f6401124          MOV      r1,#0x924             ;1076
0012b4  6860              LDR      r0,[r4,#4]            ;1076
0012b6  f7fffffe          BL       WM_GetDialogItem
0012ba  4604              MOV      r4,r0                 ;1076
0012bc  792a              LDRB     r2,[r5,#4]            ;1077  ; second1
0012be  f6af614c          ADR      r1,|L10.1140|
0012c2  4668              MOV      r0,sp                 ;1077
0012c4  f7fffffe          BL       __2sprintf
0012c8  4649              MOV      r1,r9                 ;1078
0012ca  4620              MOV      r0,r4                 ;1078
0012cc  f7fffffe          BL       TEXT_SetTextColor
0012d0  4907              LDR      r1,|L10.4848|
0012d2  4620              MOV      r0,r4                 ;1079
0012d4  f7fffffe          BL       TEXT_SetFont
0012d8  f7fffffe          BL       GUI_UC_SetEncodeUTF8
0012dc  4669              MOV      r1,sp                 ;1081
0012de  4620              MOV      r0,r4                 ;1081
0012e0  f7fffffe          BL       TEXT_SetText
0012e4  b003              ADD      sp,sp,#0xc
0012e6  ecbd8b0a          VPOP     {d8-d12}
0012ea  e8bd8ff0          POP      {r4-r11,pc}
;;;1094   
                          ENDP

0012ee  0000              DCW      0x0000
                  |L10.4848|
                          DCD      GUI_Font24_1

                          AREA ||i.count_num||, CODE, READONLY, ALIGN=1

                  count_num PROC
;;;2414   
;;;2415   int count_num(int data)
000000  2100              MOVS     r1,#0
;;;2416   {
;;;2417       int count = 0;
;;;2418       while(data != 0){
;;;2419           data/=10;
000002  220a              MOVS     r2,#0xa
000004  e002              B        |L11.12|
                  |L11.6|
000006  fb90f0f2          SDIV     r0,r0,r2
;;;2420           count++;
00000a  1c49              ADDS     r1,r1,#1
                  |L11.12|
00000c  2800              CMP      r0,#0                 ;2418
00000e  d1fa              BNE      |L11.6|
;;;2421       }
;;;2422       return count;
000010  4608              MOV      r0,r1
;;;2423   }
000012  4770              BX       lr
;;;2424   
                          ENDP


                          AREA ||.bss||, DATA, NOINIT, ALIGN=1

                  coff
                          %        12

                          AREA ||.constdata||, DATA, READONLY, ALIGN=2

                  _aDialogCreate4
                          DCD      WINDOW_CreateIndirect
                          DCD      ||.conststring||
000008  082a0000          DCW      0x082a,0x0000
00000c  000001e0          DCW      0x0000,0x01e0
000010  01100000          DCW      0x0110,0x0000
                          DCD      0x00000000
                          DCD      0x00000000
                          DCD      BUTTON_CreateIndirect
                          DCD      ||.conststring||+0x4
000024  082d00a3          DCW      0x082d,0x00a3
000028  00e2004d          DCW      0x00e2,0x004d
00002c  002d0000          DCW      0x002d,0x0000
                          DCD      0x00000000
                          DCD      0x00000000
                          DCD      BUTTON_CreateIndirect
                          DCD      ||.conststring||+0x4
000040  082e00f3          DCW      0x082e,0x00f3
000044  00e2004d          DCW      0x00e2,0x004d
000048  002d0000          DCW      0x002d,0x0000
                          DCD      0x00000000
                          DCD      0x00000000
                          DCD      BUTTON_CreateIndirect
                          DCD      ||.conststring||+0x4
00005c  082f0143          DCW      0x082f,0x0143
000060  00e2004d          DCW      0x00e2,0x004d
000064  002d0000          DCW      0x002d,0x0000
                          DCD      0x00000000
                          DCD      0x00000000
                          DCD      BUTTON_CreateIndirect
                          DCD      ||.conststring||+0x4
000078  08300193          DCW      0x0830,0x0193
00007c  00e2004d          DCW      0x00e2,0x004d
000080  002d0000          DCW      0x002d,0x0000
                          DCD      0x00000000
                          DCD      0x00000000
                          DCD      TEXT_CreateIndirect
                          DCD      ||.conststring||+0xc
000094  0831001c          DCW      0x0831,0x001c
000098  00320040          DCW      0x0032,0x0040
00009c  00200000          DCW      0x0020,0x0000
                          DCD      0x00000064
                          DCD      0x00000000
                          DCD      TEXT_CreateIndirect
                          DCD      ||.conststring||+0xc
0000b0  0832001c          DCW      0x0832,0x001c
0000b4  00780040          DCW      0x0078,0x0040
0000b8  00200000          DCW      0x0020,0x0000
                          DCD      0x00000064
                          DCD      0x00000000
                          DCD      TEXT_CreateIndirect
                          DCD      ||.conststring||+0xc
0000cc  083300f0          DCW      0x0833,0x00f0
0000d0  00320020          DCW      0x0032,0x0020
0000d4  001e0000          DCW      0x001e,0x0000
                          DCD      0x00000000
                          DCD      0x00000000
                          DCD      TEXT_CreateIndirect
                          DCD      ||.conststring||+0xc
0000e8  083400f0          DCW      0x0834,0x00f0
0000ec  00790020          DCW      0x0079,0x0020
0000f0  001e0000          DCW      0x001e,0x0000
                          DCD      0x00000000
                          DCD      0x00000000
                          DCD      TEXT_CreateIndirect
                          DCD      ||.conststring||+0xc
000104  086f0140          DCW      0x086f,0x0140
000108  001e005a          DCW      0x001e,0x005a
00010c  00140000          DCW      0x0014,0x0000
                          DCD      0x00000000
                          DCD      0x00000000
                          DCD      TEXT_CreateIndirect
                          DCD      ||.conststring||+0xc
000120  08700140          DCW      0x0870,0x0140
000124  0037005a          DCW      0x0037,0x005a
000128  00140000          DCW      0x0014,0x0000
                          DCD      0x00000000
                          DCD      0x00000000
                          DCD      TEXT_CreateIndirect
                          DCD      ||.conststring||+0xc
00013c  08770140          DCW      0x0877,0x0140
000140  0050005a          DCW      0x0050,0x005a
000144  00140000          DCW      0x0014,0x0000
                          DCD      0x00000000
                          DCD      0x00000000
                          DCD      TEXT_CreateIndirect
                          DCD      ||.conststring||+0xc
000158  08780140          DCW      0x0878,0x0140
00015c  0069005a          DCW      0x0069,0x005a
000160  00140000          DCW      0x0014,0x0000
                          DCD      0x00000000
                          DCD      0x00000000
                          DCD      TEXT_CreateIndirect
                          DCD      ||.conststring||+0xc
000174  08710140          DCW      0x0871,0x0140
000178  008e0050          DCW      0x008e,0x0050
00017c  00140000          DCW      0x0014,0x0000
                          DCD      0x00000000
                          DCD      0x00000000
                          DCD      TEXT_CreateIndirect
                          DCD      ||.conststring||+0xc
000190  08790140          DCW      0x0879,0x0140
000194  00a70050          DCW      0x00a7,0x0050
000198  00140000          DCW      0x0014,0x0000
                          DCD      0x00000000
                          DCD      0x00000000
                          DCD      TEXT_CreateIndirect
                          DCD      ||.conststring||+0xc
0001ac  08720140          DCW      0x0872,0x0140
0001b0  00cd0050          DCW      0x00cd,0x0050
0001b4  00140000          DCW      0x0014,0x0000
                          DCD      0x00000000
                          DCD      0x00000000
                          DCD      TEXT_CreateIndirect
                          DCD      ||.conststring||+0xc
0001c8  0873019f          DCW      0x0873,0x019f
0001cc  001e0041          DCW      0x001e,0x0041
0001d0  00140000          DCW      0x0014,0x0000
                          DCD      0x00000000
                          DCD      0x00000000
                          DCD      TEXT_CreateIndirect
                          DCD      ||.conststring||+0xc
0001e4  0874019f          DCW      0x0874,0x019f
0001e8  00370041          DCW      0x0037,0x0041
0001ec  00140000          DCW      0x0014,0x0000
                          DCD      0x00000000
                          DCD      0x00000000
                          DCD      TEXT_CreateIndirect
                          DCD      ||.conststring||+0xc
000200  0875019f          DCW      0x0875,0x019f
000204  008e0041          DCW      0x008e,0x0041
000208  00140000          DCW      0x0014,0x0000
                          DCD      0x00000000
                          DCD      0x00000000
                          DCD      TEXT_CreateIndirect
                          DCD      ||.conststring||+0xc
00021c  0876019f          DCW      0x0876,0x019f
000220  00cd001a          DCW      0x00cd,0x001a
000224  00140000          DCW      0x0014,0x0000
                          DCD      0x00000000
                          DCD      0x00000000
                          DCD      TEXT_CreateIndirect
                          DCD      ||.conststring||+0xc
000238  087b019f          DCW      0x087b,0x019f
00023c  00500041          DCW      0x0050,0x0041
000240  00140000          DCW      0x0014,0x0000
                          DCD      0x00000000
                          DCD      0x00000000
                          DCD      TEXT_CreateIndirect
                          DCD      ||.conststring||+0xc
000254  087c019f          DCW      0x087c,0x019f
000258  00690041          DCW      0x0069,0x0041
00025c  00140000          DCW      0x0014,0x0000
                          DCD      0x00000000
                          DCD      0x00000000
                          DCD      TEXT_CreateIndirect
                          DCD      ||.conststring||+0xc
000270  087d019f          DCW      0x087d,0x019f
000274  00a70041          DCW      0x00a7,0x0041
000278  00140000          DCW      0x0014,0x0000
                          DCD      0x00000000
                          DCD      0x00000000
                          DCD      TEXT_CreateIndirect
                          DCD      ||.conststring||+0xc
00028c  087f005f          DCW      0x087f,0x005f
000290  00300096          DCW      0x0030,0x0096
000294  00280000          DCW      0x0028,0x0000
                          DCD      0x00000000
                          DCD      0x00000000
                          DCD      TEXT_CreateIndirect
                          DCD      ||.conststring||+0xc
0002a8  0880005f          DCW      0x0880,0x005f
0002ac  00740096          DCW      0x0074,0x0096
0002b0  00280000          DCW      0x0028,0x0000
                          DCD      0x00000000
                          DCD      0x00000000
                          DCD      TEXT_CreateIndirect
                          DCD      ||.conststring||+0xc
0002c4  0881005f          DCW      0x0881,0x005f
0002c8  00b80096          DCW      0x00b8,0x0096
0002cc  00280000          DCW      0x0028,0x0000
                          DCD      0x00000000
                          DCD      0x00000000
                          DCD      TEXT_CreateIndirect
                          DCD      ||.conststring||+0xc
0002e0  0882010e          DCW      0x0882,0x010e
0002e4  00200021          DCW      0x0020,0x0021
0002e8  00140000          DCW      0x0014,0x0000
                          DCD      0x00000000
                          DCD      0x00000000
                          DCD      TEXT_CreateIndirect
                          DCD      ||.conststring||+0xc
0002fc  09130104          DCW      0x0913,0x0104
000300  00380032          DCW      0x0038,0x0032
000304  00140000          DCW      0x0014,0x0000
                          DCD      0x00000000
                          DCD      0x00000000
                          DCD      TEXT_CreateIndirect
                          DCD      ||.conststring||+0xc
000318  0883010e          DCW      0x0883,0x010e
00031c  008e0021          DCW      0x008e,0x0021
000320  00140000          DCW      0x0014,0x0000
                          DCD      0x00000000
                          DCD      0x00000000
                          DCD      TEXT_CreateIndirect
                          DCD      ||.conststring||+0xc
000334  08850127          DCW      0x0885,0x0127
000338  00040021          DCW      0x0004,0x0021
00033c  00140000          DCW      0x0014,0x0000
                          DCD      0x00000000
                          DCD      0x00000000
                          DCD      TEXT_CreateIndirect
                          DCD      ||.conststring||+0xc
000350  08860145          DCW      0x0886,0x0145
000354  00040021          DCW      0x0004,0x0021
000358  00140000          DCW      0x0014,0x0000
                          DCD      0x00000000
                          DCD      0x00000000
                          DCD      TEXT_CreateIndirect
                          DCD      ||.conststring||+0xc
00036c  09240163          DCW      0x0924,0x0163
000370  00040021          DCW      0x0004,0x0021
000374  00140000          DCW      0x0014,0x0000
                          DCD      0x00000000
                          DCD      0x00000000
                          DCD      TEXT_CreateIndirect
                          DCD      ||.conststring||+0xc
000388  0887009b          DCW      0x0887,0x009b
00038c  00040021          DCW      0x0004,0x0021
000390  00140000          DCW      0x0014,0x0000
                          DCD      0x00000000
                          DCD      0x00000000
                          DCD      TEXT_CreateIndirect
                          DCD      ||.conststring||+0xc
0003a4  088800b9          DCW      0x0888,0x00b9
0003a8  00040021          DCW      0x0004,0x0021
0003ac  00140000          DCW      0x0014,0x0000
                          DCD      0x00000000
                          DCD      0x00000000
                          DCD      TEXT_CreateIndirect
                          DCD      ||.conststring||+0xc
0003c0  088900d7          DCW      0x0889,0x00d7
0003c4  00040021          DCW      0x0004,0x0021
0003c8  00140000          DCW      0x0014,0x0000
                          DCD      0x00000000
                          DCD      0x00000000
                          DCD      TEXT_CreateIndirect
                          DCD      ||.conststring||+0xc
0003dc  088a01b8          DCW      0x088a,0x01b8
0003e0  00cb0014          DCW      0x00cb,0x0014
0003e4  00170000          DCW      0x0017,0x0000
                          DCD      0x00000000
                          DCD      0x00000000
                          DCD      TEXT_CreateIndirect
                          DCD      ||.conststring||+0xc
0003f8  088b01d1          DCW      0x088b,0x01d1
0003fc  00cb0014          DCW      0x00cb,0x0014
000400  00170000          DCW      0x0017,0x0000
                          DCD      0x00000000
                          DCD      0x00000000
                          DCD      TEXT_CreateIndirect
                          DCD      ||.conststring||+0xc
000414  088c01bc          DCW      0x088c,0x01bc
000418  00cd0028          DCW      0x00cd,0x0028
00041c  00140000          DCW      0x0014,0x0000
                          DCD      0x00000000
                          DCD      0x00000000
                          DCD      TEXT_CreateIndirect
                          DCD      ||.conststring||+0xc
000430  09140186          DCW      0x0914,0x0186
000434  00040050          DCW      0x0004,0x0050
000438  00140000          DCW      0x0014,0x0000
                          DCD      0x00000000
                          DCD      0x00000000
                          DCD      TEXT_CreateIndirect
                          DCD      ||.conststring||+0xc
00044c  09200005          DCW      0x0920,0x0005
000450  00e10050          DCW      0x00e1,0x0050
000454  001e0000          DCW      0x001e,0x0000
                          DCD      0x00000000
                          DCD      0x00000000
                          DCD      TEXT_CreateIndirect
                          DCD      ||.conststring||+0xc
000468  093e01cc          DCW      0x093e,0x01cc
00046c  00080014          DCW      0x0008,0x0014
000470  000f0000          DCW      0x000f,0x0000
                          DCD      0x00000000
                          DCD      0x00000000

                          AREA ||.conststring||, DATA, READONLY, MERGE=1, STRINGS, ALIGN=2

000000  4700              DCB      "G",0
000002  00                DCB      0
000003  00                DCB      0
000004  42757474          DCB      "Button",0
000008  6f6e00  
00000b  00                DCB      0
00000c  54657874          DCB      "Text",0
000010  00      

                          AREA ||.data||, DATA, ALIGN=2

                  set_loop_count
000000  01                DCB      0x01
                  second
000001  00                DCB      0x00
                  minute
000002  00                DCB      0x00
                  hour
000003  00                DCB      0x00
                  second1
000004  00                DCB      0x00
                  minute1
000005  00                DCB      0x00
                  hour1
000006  00                DCB      0x00
                  cutoff_flag
000007  00                DCB      0x00
                  cdc_sw
000008  00                DCB      0x00
                  count
000009  01                DCB      0x01
                  status_flash
00000a  00                DCB      0x00
                  pause_flag
00000b  00                DCB      0x00
                  paused
00000c  00                DCB      0x00
                  pow_step
00000d  00                DCB      0x00
                  cur_step
00000e  00                DCB      0x00
                  coffv_step
00000f  00                DCB      0x00
                  coffc_step
000010  00                DCB      0x00
                  charge_step
000011  00                DCB      0x00
                  cutoff_time
000012  0000              DCB      0x00,0x00
                  pause_time
000014  00000000          DCB      0x00,0x00,0x00,0x00
                  hWincdc
                          DCD      0x00000000

                          AREA ||area_number.18||, DATA, ALIGN=0

                          EXPORTAS ||area_number.18||, ||.data||
                  c_sw
000000  01                DCB      0x01

                          AREA ||area_number.19||, DATA, ALIGN=0

                          EXPORTAS ||area_number.19||, ||.data||
                  timer_sw
000000  01                DCB      0x01

                          AREA ||area_number.20||, DATA, ALIGN=1

                          EXPORTAS ||area_number.20||, ||.data||
                  restart_time
000000  0000              DCB      0x00,0x00

;*** Start embedded assembler ***

#line 1 "..\\APP\\c_dc.c"
	AREA ||.rev16_text||, CODE
	THUMB
	EXPORT |__asm___6_c_dc_c_8be2d497____REV16|
#line 129 "D:\\Keil_v5\\ARM\\CMSIS\\Include\\core_cmInstr.h"
|__asm___6_c_dc_c_8be2d497____REV16| PROC
#line 130

 rev16 r0, r0
 bx lr
	ENDP
	AREA ||.revsh_text||, CODE
	THUMB
	EXPORT |__asm___6_c_dc_c_8be2d497____REVSH|
#line 144
|__asm___6_c_dc_c_8be2d497____REVSH| PROC
#line 145

 revsh r0, r0
 bx lr
	ENDP

;*** End   embedded assembler ***
