; generated by Component: ARM Compiler 5.06 update 6 (build 750) Tool: ArmCC [4d3637]
; commandline ArmCC [--list --split_sections --debug -c --asm --interleave -o..\output\settings.o --asm_dir=..\Listing\ --list_dir=..\Listing\ --depend=..\output\settings.d --cpu=Cortex-M4.fp --apcs=interwork -O1 --diag_suppress=9931,870 -I..\APP -I..\drive -I..\Include -I..\Libraries\CMSIS\inc -I..\Libraries\CMSIS\src -I..\Libraries\FWlib\inc -I..\Libraries\FWlib\src -I..\Listing -I..\Output -I..\Project -I..\STemWinLibrary522\Config -I..\STemWinLibrary522\emWinTask -I..\STemWinLibrary522\GUILib -I..\STemWinLibrary522\inc -I..\User -I..\USB\STM32_USB_HOST_Library\Class\HID\inc -I..\USB\STM32_USB_HOST_Library\Class\MSC\src -I..\USB\STM32_USB_HOST_Library\Core\src -I..\USB\USB_APP -I..\USB\STM32_USB_HOST_Library\Class\HID\src -I..\USB\STM32_USB_HOST_Library\Class\MSC\inc -I..\USB\STM32_USB_HOST_Library\Core\inc -I..\USB\STM32_USB_OTG_Driver\inc -I..\FATFS\exfuns -I..\FATFS\src\option -I..\FATFS\src -I..\MALLOC -I..\FATFS -I..\IAP -ID:\Keil_v5\ARM\RV31\INC -ID:\Keil_v5\ARM\CMSIS\Include -ID:\Keil_v5\ARM\INC\ST\STM32F4xx -D__UVISION_VERSION=525 -DUSE_STDPERIPH_DRIVER -DSTM32F40XX -DUSE_USB_OTG_FS -DUSE_EMBEDDED_PHY -DUSE_USB_OTG_HS -DSTM32F40XX --omf_browse=..\output\settings.crf --no_multibyte_chars ..\APP\settings.c]
                          THUMB

                          AREA ||i.CreateSET||, CODE, READONLY, ALIGN=2

                  CreateSET PROC
;;;416    WM_HWIN CreateSET(void);
;;;417    WM_HWIN CreateSET(void) {
000000  b51c              PUSH     {r2-r4,lr}
;;;418      page_sw = face_set;
000002  490f              LDR      r1,|L1.64|
000004  2005              MOVS     r0,#5
000006  7008              STRB     r0,[r1,#0]
;;;419      set_sw = set_1;
000008  480e              LDR      r0,|L1.68|
00000a  2400              MOVS     r4,#0
00000c  7004              STRB     r4,[r0,#0]
;;;420      pass = 0;
00000e  480e              LDR      r0,|L1.72|
000010  7004              STRB     r4,[r0,#0]
;;;421      TM1650_SET_LED(0x68,0x70);
000012  2170              MOVS     r1,#0x70
000014  2068              MOVS     r0,#0x68
000016  f7fffffe          BL       TM1650_SET_LED
;;;422      GPIO_ResetBits(GPIOD,GPIO_Pin_12);//√µ∆
00001a  f44f5180          MOV      r1,#0x1000
00001e  480b              LDR      r0,|L1.76|
000020  f7fffffe          BL       GPIO_ResetBits
;;;423      hWinset = GUI_CreateDialogBox(_aDialogCreate5, GUI_COUNTOF(_aDialogCreate5), _cbDialog, WM_HBKWIN, 0, 0);
000024  f7fffffe          BL       WM_GetDesktopWindow
000028  4603              MOV      r3,r0
00002a  9400              STR      r4,[sp,#0]
00002c  4a08              LDR      r2,|L1.80|
00002e  2107              MOVS     r1,#7
000030  4808              LDR      r0,|L1.84|
000032  9401              STR      r4,[sp,#4]
000034  f7fffffe          BL       GUI_CreateDialogBox
000038  4907              LDR      r1,|L1.88|
00003a  6048              STR      r0,[r1,#4]  ; hWinset
;;;424      return hWinset;
;;;425    }
00003c  bd1c              POP      {r2-r4,pc}
;;;426    
                          ENDP

00003e  0000              DCW      0x0000
                  |L1.64|
                          DCD      page_sw
                  |L1.68|
                          DCD      set_sw
                  |L1.72|
                          DCD      pass
                  |L1.76|
                          DCD      0x40020c00
                  |L1.80|
                          DCD      _cbDialog
                  |L1.84|
                          DCD      ||.constdata||
                  |L1.88|
                          DCD      ||.data||

                          AREA ||i.DEL_NUM||, CODE, READONLY, ALIGN=2

                  DEL_NUM PROC
;;;1732   
;;;1733   void DEL_NUM(void){
000000  e92d41f0          PUSH     {r4-r8,lr}
;;;1734       u8 i;
;;;1735       switch(set_sw){
000004  488b              LDR      r0,|L2.564|
000006  7801              LDRB     r1,[r0,#0]  ; set_sw
;;;1736           case set_4:
;;;1737           {
;;;1738               WM_HWIN hItem;
;;;1739   //            WM_InvalidateWindow(hWinset);
;;;1740               hItem = WM_GetDialogItem(hWinset, ID_TEXT_31);
000008  488b              LDR      r0,|L2.568|
;;;1741               if(bit > 1)
;;;1742   			{
;;;1743   				bit --;
;;;1744   				set_limit[bit-1] = '\0';
00000a  4f8c              LDR      r7,|L2.572|
00000c  2400              MOVS     r4,#0                 ;1740
00000e  6840              LDR      r0,[r0,#4]            ;1740
000010  4d8b              LDR      r5,|L2.576|
;;;1745   			}
;;;1746   			if(bit == dot_flag)
000012  4e8c              LDR      r6,|L2.580|
000014  2910              CMP      r1,#0x10              ;1735
000016  d07d              BEQ      |L2.276|
000018  dc3a              BGT      |L2.144|
00001a  290d              CMP      r1,#0xd               ;1735
00001c  d07b              BEQ      |L2.278|
00001e  dc1b              BGT      |L2.88|
000020  2903              CMP      r1,#3                 ;1735
000022  d055              BEQ      |L2.208|
000024  2904              CMP      r1,#4                 ;1735
000026  d177              BNE      |L2.280|
;;;1747   			{
;;;1748   				dot_flag = 0;
;;;1749   			}
;;;1750   			TEXT_SetText(hItem,set_limit);
;;;1751               break;
;;;1752           }
;;;1753           case set_5:
;;;1754           {
;;;1755               WM_HWIN hItem;
;;;1756   //            WM_InvalidateWindow(hWinset);
;;;1757               hItem = WM_GetDialogItem(hWinset, ID_TEXT_32);
000028  f640013c          MOV      r1,#0x83c
00002c  f7fffffe          BL       WM_GetDialogItem
;;;1758               if(bit > 1)
000030  7829              LDRB     r1,[r5,#0]  ; bit
000032  2901              CMP      r1,#1
000034  d906              BLS      |L2.68|
;;;1759   			{
;;;1760   				bit --;
000036  7829              LDRB     r1,[r5,#0]  ; bit
000038  1e49              SUBS     r1,r1,#1
00003a  7029              STRB     r1,[r5,#0]
;;;1761   				set_limit[bit-1] = '\0';
00003c  7829              LDRB     r1,[r5,#0]  ; bit
00003e  4439              ADD      r1,r1,r7
000040  f8014c01          STRB     r4,[r1,#-1]
                  |L2.68|
;;;1762   			}
;;;1763   			if(bit == dot_flag)
000044  7829              LDRB     r1,[r5,#0]  ; bit
000046  7832              LDRB     r2,[r6,#0]  ; dot_flag
000048  4291              CMP      r1,r2
00004a  d100              BNE      |L2.78|
;;;1764   			{
;;;1765   				dot_flag = 0;
00004c  7034              STRB     r4,[r6,#0]
                  |L2.78|
;;;1766   			}
;;;1767   			TEXT_SetText(hItem,set_limit);
00004e  e8bd41f0          POP      {r4-r8,lr}
000052  497a              LDR      r1,|L2.572|
000054  f7ffbffe          B.W      TEXT_SetText
                  |L2.88|
000058  290e              CMP      r1,#0xe               ;1735
00005a  d07d              BEQ      |L2.344|
00005c  290f              CMP      r1,#0xf               ;1735
00005e  d15b              BNE      |L2.280|
;;;1768               break;
;;;1769           }
;;;1770   		case set_82:
;;;1771           {
;;;1772               WM_HWIN hItem;
;;;1773   //            WM_InvalidateWindow(hWinset);
;;;1774               hItem = WM_GetDialogItem(hWinset, ID_TEXT_154);
;;;1775               if(bit > 1)
;;;1776   			{
;;;1777   				bit --;
;;;1778   				set_limit[bit-1] = '\0';
;;;1779   			}
;;;1780   			if(bit == dot_flag)
;;;1781   			{
;;;1782   				dot_flag = 0;
;;;1783   			}
;;;1784   			TEXT_SetText(hItem,set_limit);
;;;1785               break;
;;;1786           }
;;;1787           case set_83:
;;;1788           {
;;;1789               WM_HWIN hItem;
;;;1790   //            WM_InvalidateWindow(hWinset);
;;;1791               hItem = WM_GetDialogItem(hWinset, ID_TEXT_155);
;;;1792              if(bit > 1)
;;;1793   			{
;;;1794   				bit --;
;;;1795   				set_limit[bit-1] = '\0';
;;;1796   			}
;;;1797   			if(bit == dot_flag)
;;;1798   			{
;;;1799   				dot_flag = 0;
;;;1800   			}
;;;1801   			TEXT_SetText(hItem,set_limit);
;;;1802               break;
;;;1803           }
;;;1804   		
;;;1805           case set_14:
;;;1806           {
;;;1807               WM_HWIN hItem;
;;;1808   //            WM_InvalidateWindow(hWinset);
;;;1809               hItem = WM_GetDialogItem(hWinset, ID_TEXT_37);
;;;1810               if(bit > 1)
;;;1811   			{
;;;1812   				bit --;
;;;1813   				set_limit[bit-1] = '\0';
;;;1814   			}
;;;1815   			if(bit == dot_flag)
;;;1816   			{
;;;1817   				dot_flag = 0;
;;;1818   			}
;;;1819   			TEXT_SetText(hItem,set_limit);
;;;1820               break;           
;;;1821           }
;;;1822           case set_15:
;;;1823           {
;;;1824               WM_HWIN hItem;
;;;1825   //            WM_InvalidateWindow(hWinset);
;;;1826               hItem = WM_GetDialogItem(hWinset, ID_TEXT_38);
;;;1827               if(bit > 1)
;;;1828   			{
;;;1829   				bit --;
;;;1830   				set_limit[bit-1] = '\0';
;;;1831   			}
;;;1832   			if(bit == dot_flag)
;;;1833   			{
;;;1834   				dot_flag = 0;
;;;1835   			}
;;;1836   			TEXT_SetText(hItem,set_limit);
;;;1837               break;
;;;1838           }
;;;1839           case set_16:
;;;1840           {
;;;1841               WM_HWIN hItem;
;;;1842   //            WM_InvalidateWindow(hWinset);
;;;1843               hItem = WM_GetDialogItem(hWinset, ID_TEXT_39);
000060  f6400164          MOV      r1,#0x864
000064  f7fffffe          BL       WM_GetDialogItem
;;;1844               if(bit > 1)
000068  7829              LDRB     r1,[r5,#0]  ; bit
00006a  2901              CMP      r1,#1
00006c  d906              BLS      |L2.124|
;;;1845   			{
;;;1846   				bit --;
00006e  7829              LDRB     r1,[r5,#0]  ; bit
000070  1e49              SUBS     r1,r1,#1
000072  7029              STRB     r1,[r5,#0]
;;;1847   				set_limit[bit-1] = '\0';
000074  7829              LDRB     r1,[r5,#0]  ; bit
000076  4439              ADD      r1,r1,r7
000078  f8014c01          STRB     r4,[r1,#-1]
                  |L2.124|
;;;1848   			}
;;;1849   			if(bit == dot_flag)
00007c  7829              LDRB     r1,[r5,#0]  ; bit
00007e  7832              LDRB     r2,[r6,#0]  ; dot_flag
000080  4291              CMP      r1,r2
000082  d100              BNE      |L2.134|
;;;1850   			{
;;;1851   				dot_flag = 0;
000084  7034              STRB     r4,[r6,#0]
                  |L2.134|
;;;1852   			}
;;;1853   			TEXT_SetText(hItem,set_limit);
000086  e8bd41f0          POP      {r4-r8,lr}
00008a  496c              LDR      r1,|L2.572|
00008c  f7ffbffe          B.W      TEXT_SetText
                  |L2.144|
000090  2951              CMP      r1,#0x51              ;1735
000092  d035              BEQ      |L2.256|
000094  2952              CMP      r1,#0x52              ;1735
000096  d04f              BEQ      |L2.312|
000098  2953              CMP      r1,#0x53              ;1735
00009a  d07c              BEQ      |L2.406|
00009c  2954              CMP      r1,#0x54              ;1735
00009e  d13b              BNE      |L2.280|
;;;1854               break;
;;;1855           }
;;;1856           case set_17:
;;;1857           {
;;;1858               WM_HWIN hItem;
;;;1859   //            WM_InvalidateWindow(hWinset);
;;;1860               hItem = WM_GetDialogItem(hWinset, ID_TEXT_40);
;;;1861               if(bit > 1)
;;;1862   			{
;;;1863   				bit --;
;;;1864   				set_limit[bit-1] = '\0';
;;;1865   			}
;;;1866   			if(bit == dot_flag)
;;;1867   			{
;;;1868   				dot_flag = 0;
;;;1869   			}
;;;1870   			TEXT_SetText(hItem,set_limit);
;;;1871               break;
;;;1872   		}
;;;1873   		case set_84:
;;;1874   		{
;;;1875               WM_HWIN hItem;
;;;1876   //            WM_InvalidateWindow(hWinset);
;;;1877               hItem = WM_GetDialogItem(hWinset, ID_TEXT_156);
;;;1878               if(bit > 1)
;;;1879   			{
;;;1880   				bit --;
;;;1881   				set_limit[bit-1] = '\0';
;;;1882   			}
;;;1883   			if(bit == dot_flag)
;;;1884   			{
;;;1885   				dot_flag = 0;
;;;1886   			}
;;;1887   			TEXT_SetText(hItem,set_limit);
;;;1888               break;
;;;1889           }
;;;1890           case set_85:
;;;1891           {
;;;1892               WM_HWIN hItem;
;;;1893   //            WM_InvalidateWindow(hWinset);
;;;1894               hItem = WM_GetDialogItem(hWinset, ID_TEXT_157);
0000a0  f6401138          MOV      r1,#0x938
0000a4  f7fffffe          BL       WM_GetDialogItem
;;;1895               if(bit > 1)
0000a8  7829              LDRB     r1,[r5,#0]  ; bit
0000aa  2901              CMP      r1,#1
0000ac  d906              BLS      |L2.188|
;;;1896   			{
;;;1897   				bit --;
0000ae  7829              LDRB     r1,[r5,#0]  ; bit
0000b0  1e49              SUBS     r1,r1,#1
0000b2  7029              STRB     r1,[r5,#0]
;;;1898   				set_limit[bit-1] = '\0';
0000b4  7829              LDRB     r1,[r5,#0]  ; bit
0000b6  4439              ADD      r1,r1,r7
0000b8  f8014c01          STRB     r4,[r1,#-1]
                  |L2.188|
;;;1899   			}
;;;1900   			if(bit == dot_flag)
0000bc  7829              LDRB     r1,[r5,#0]  ; bit
0000be  7832              LDRB     r2,[r6,#0]  ; dot_flag
0000c0  4291              CMP      r1,r2
0000c2  d100              BNE      |L2.198|
;;;1901   			{
;;;1902   				dot_flag = 0;
0000c4  7034              STRB     r4,[r6,#0]
                  |L2.198|
;;;1903   			}
;;;1904   			TEXT_SetText(hItem,set_limit);
0000c6  e8bd41f0          POP      {r4-r8,lr}
0000ca  495c              LDR      r1,|L2.572|
0000cc  f7ffbffe          B.W      TEXT_SetText
                  |L2.208|
0000d0  f640013b          MOV      r1,#0x83b             ;1740
0000d4  f7fffffe          BL       WM_GetDialogItem
0000d8  7829              LDRB     r1,[r5,#0]            ;1741  ; bit
0000da  2901              CMP      r1,#1                 ;1741
0000dc  d906              BLS      |L2.236|
0000de  7829              LDRB     r1,[r5,#0]            ;1743  ; bit
0000e0  1e49              SUBS     r1,r1,#1              ;1743
0000e2  7029              STRB     r1,[r5,#0]            ;1743
0000e4  7829              LDRB     r1,[r5,#0]            ;1744  ; bit
0000e6  4439              ADD      r1,r1,r7              ;1744
0000e8  f8014c01          STRB     r4,[r1,#-1]           ;1744
                  |L2.236|
0000ec  7829              LDRB     r1,[r5,#0]            ;1746  ; bit
0000ee  7832              LDRB     r2,[r6,#0]            ;1746  ; dot_flag
0000f0  4291              CMP      r1,r2                 ;1746
0000f2  d100              BNE      |L2.246|
0000f4  7034              STRB     r4,[r6,#0]            ;1748
                  |L2.246|
0000f6  e8bd41f0          POP      {r4-r8,lr}            ;1750
0000fa  4950              LDR      r1,|L2.572|
0000fc  f7ffbffe          B.W      TEXT_SetText
                  |L2.256|
000100  f6401135          MOV      r1,#0x935             ;1774
000104  f7fffffe          BL       WM_GetDialogItem
000108  7829              LDRB     r1,[r5,#0]            ;1775  ; bit
00010a  2901              CMP      r1,#1                 ;1775
00010c  d90a              BLS      |L2.292|
00010e  7829              LDRB     r1,[r5,#0]            ;1777  ; bit
000110  1e49              SUBS     r1,r1,#1              ;1777
000112  e002              B        |L2.282|
                  |L2.276|
000114  e05c              B        |L2.464|
                  |L2.278|
000116  e029              B        |L2.364|
                  |L2.280|
000118  e08a              B        |L2.560|
                  |L2.282|
00011a  7029              STRB     r1,[r5,#0]            ;1777
00011c  7829              LDRB     r1,[r5,#0]            ;1778  ; bit
00011e  4439              ADD      r1,r1,r7              ;1778
000120  f8014c01          STRB     r4,[r1,#-1]           ;1778
                  |L2.292|
000124  7829              LDRB     r1,[r5,#0]            ;1780  ; bit
000126  7832              LDRB     r2,[r6,#0]            ;1780  ; dot_flag
000128  4291              CMP      r1,r2                 ;1780
00012a  d100              BNE      |L2.302|
00012c  7034              STRB     r4,[r6,#0]            ;1782
                  |L2.302|
00012e  e8bd41f0          POP      {r4-r8,lr}            ;1784
000132  4942              LDR      r1,|L2.572|
000134  f7ffbffe          B.W      TEXT_SetText
                  |L2.312|
000138  f6401136          MOV      r1,#0x936             ;1791
00013c  f7fffffe          BL       WM_GetDialogItem
000140  7829              LDRB     r1,[r5,#0]            ;1792  ; bit
000142  2901              CMP      r1,#1                 ;1792
000144  d906              BLS      |L2.340|
000146  7829              LDRB     r1,[r5,#0]            ;1794  ; bit
000148  1e49              SUBS     r1,r1,#1              ;1794
00014a  7029              STRB     r1,[r5,#0]            ;1794
00014c  7829              LDRB     r1,[r5,#0]            ;1795  ; bit
00014e  4439              ADD      r1,r1,r7              ;1795
000150  f8014c01          STRB     r4,[r1,#-1]           ;1795
                  |L2.340|
000154  7829              LDRB     r1,[r5,#0]            ;1797  ; bit
000156  e000              B        |L2.346|
                  |L2.344|
000158  e022              B        |L2.416|
                  |L2.346|
00015a  7832              LDRB     r2,[r6,#0]            ;1797  ; dot_flag
00015c  4291              CMP      r1,r2                 ;1797
00015e  d100              BNE      |L2.354|
000160  7034              STRB     r4,[r6,#0]            ;1799
                  |L2.354|
000162  e8bd41f0          POP      {r4-r8,lr}            ;1801
000166  4935              LDR      r1,|L2.572|
000168  f7ffbffe          B.W      TEXT_SetText
                  |L2.364|
00016c  f6400162          MOV      r1,#0x862             ;1809
000170  f7fffffe          BL       WM_GetDialogItem
000174  7829              LDRB     r1,[r5,#0]            ;1810  ; bit
000176  2901              CMP      r1,#1                 ;1810
000178  d906              BLS      |L2.392|
00017a  7829              LDRB     r1,[r5,#0]            ;1812  ; bit
00017c  1e49              SUBS     r1,r1,#1              ;1812
00017e  7029              STRB     r1,[r5,#0]            ;1812
000180  7829              LDRB     r1,[r5,#0]            ;1813  ; bit
000182  4439              ADD      r1,r1,r7              ;1813
000184  f8014c01          STRB     r4,[r1,#-1]           ;1813
                  |L2.392|
000188  7829              LDRB     r1,[r5,#0]            ;1815  ; bit
00018a  7832              LDRB     r2,[r6,#0]            ;1815  ; dot_flag
00018c  4291              CMP      r1,r2                 ;1815
00018e  d100              BNE      |L2.402|
000190  7034              STRB     r4,[r6,#0]            ;1817
                  |L2.402|
000192  492a              LDR      r1,|L2.572|
000194  e000              B        |L2.408|
                  |L2.406|
000196  e033              B        |L2.512|
                  |L2.408|
000198  e8bd41f0          POP      {r4-r8,lr}            ;1819
00019c  f7ffbffe          B.W      TEXT_SetText
                  |L2.416|
0001a0  f6400163          MOV      r1,#0x863             ;1826
0001a4  f7fffffe          BL       WM_GetDialogItem
0001a8  7829              LDRB     r1,[r5,#0]            ;1827  ; bit
0001aa  2901              CMP      r1,#1                 ;1827
0001ac  d906              BLS      |L2.444|
0001ae  7829              LDRB     r1,[r5,#0]            ;1829  ; bit
0001b0  1e49              SUBS     r1,r1,#1              ;1829
0001b2  7029              STRB     r1,[r5,#0]            ;1829
0001b4  7829              LDRB     r1,[r5,#0]            ;1830  ; bit
0001b6  4439              ADD      r1,r1,r7              ;1830
0001b8  f8014c01          STRB     r4,[r1,#-1]           ;1830
                  |L2.444|
0001bc  7829              LDRB     r1,[r5,#0]            ;1832  ; bit
0001be  7832              LDRB     r2,[r6,#0]            ;1832  ; dot_flag
0001c0  4291              CMP      r1,r2                 ;1832
0001c2  d100              BNE      |L2.454|
0001c4  7034              STRB     r4,[r6,#0]            ;1834
                  |L2.454|
0001c6  e8bd41f0          POP      {r4-r8,lr}            ;1836
0001ca  491c              LDR      r1,|L2.572|
0001cc  f7ffbffe          B.W      TEXT_SetText
                  |L2.464|
0001d0  f6400165          MOV      r1,#0x865             ;1860
0001d4  f7fffffe          BL       WM_GetDialogItem
0001d8  7829              LDRB     r1,[r5,#0]            ;1861  ; bit
0001da  2901              CMP      r1,#1                 ;1861
0001dc  d906              BLS      |L2.492|
0001de  7829              LDRB     r1,[r5,#0]            ;1863  ; bit
0001e0  1e49              SUBS     r1,r1,#1              ;1863
0001e2  7029              STRB     r1,[r5,#0]            ;1863
0001e4  7829              LDRB     r1,[r5,#0]            ;1864  ; bit
0001e6  4439              ADD      r1,r1,r7              ;1864
0001e8  f8014c01          STRB     r4,[r1,#-1]           ;1864
                  |L2.492|
0001ec  7829              LDRB     r1,[r5,#0]            ;1866  ; bit
0001ee  7832              LDRB     r2,[r6,#0]            ;1866  ; dot_flag
0001f0  4291              CMP      r1,r2                 ;1866
0001f2  d100              BNE      |L2.502|
0001f4  7034              STRB     r4,[r6,#0]            ;1868
                  |L2.502|
0001f6  e8bd41f0          POP      {r4-r8,lr}            ;1870
0001fa  4910              LDR      r1,|L2.572|
0001fc  f7ffbffe          B.W      TEXT_SetText
                  |L2.512|
000200  f6401137          MOV      r1,#0x937             ;1877
000204  f7fffffe          BL       WM_GetDialogItem
000208  7829              LDRB     r1,[r5,#0]            ;1878  ; bit
00020a  2901              CMP      r1,#1                 ;1878
00020c  d906              BLS      |L2.540|
00020e  7829              LDRB     r1,[r5,#0]            ;1880  ; bit
000210  1e49              SUBS     r1,r1,#1              ;1880
000212  7029              STRB     r1,[r5,#0]            ;1880
000214  7829              LDRB     r1,[r5,#0]            ;1881  ; bit
000216  4439              ADD      r1,r1,r7              ;1881
000218  f8014c01          STRB     r4,[r1,#-1]           ;1881
                  |L2.540|
00021c  7829              LDRB     r1,[r5,#0]            ;1883  ; bit
00021e  7832              LDRB     r2,[r6,#0]            ;1883  ; dot_flag
000220  4291              CMP      r1,r2                 ;1883
000222  d100              BNE      |L2.550|
000224  7034              STRB     r4,[r6,#0]            ;1885
                  |L2.550|
000226  e8bd41f0          POP      {r4-r8,lr}            ;1887
00022a  4904              LDR      r1,|L2.572|
00022c  f7ffbffe          B.W      TEXT_SetText
                  |L2.560|
;;;1905               break;
;;;1906           }
;;;1907   	}
;;;1908           
;;;1909   }
000230  e8bd81f0          POP      {r4-r8,pc}
;;;1910   //Á≥ªÁªüËÆæÁΩÆÁïåÈù¢Êï∞ÊçÆËæìÂÖ•
                          ENDP

                  |L2.564|
                          DCD      set_sw
                  |L2.568|
                          DCD      ||.data||
                  |L2.572|
                          DCD      set_limit
                  |L2.576|
                          DCD      bit
                  |L2.580|
                          DCD      dot_flag

                          AREA ||i.DISP_SET||, CODE, READONLY, ALIGN=2

                          REQUIRE _printf_percent
                          REQUIRE _printf_widthprec
                          REQUIRE _printf_f
                          REQUIRE _printf_fp_dec
                  DISP_SET PROC
;;;435    */
;;;436    void DISP_SET(void)
000000  e92d4ffe          PUSH     {r1-r11,lr}
;;;437    {
;;;438    	char buf[10];
;;;439    	WM_HWIN hItem;
;;;440    		
;;;441    	hItem = WM_GetDialogItem(hWinset, ID_TEXT_28);
000004  4c76              LDR      r4,|L3.480|
000006  f6400132          MOV      r1,#0x832
00000a  6860              LDR      r0,[r4,#4]  ; hWinset
00000c  f7fffffe          BL       WM_GetDialogItem
000010  4607              MOV      r7,r0
;;;442    	TEXT_SetFont(hItem,&GUI_Font24_1);//ËÆæÂÆöÊñáÊú¨Â≠ó‰Ωì
000012  4974              LDR      r1,|L3.484|
000014  4638              MOV      r0,r7
000016  f7fffffe          BL       TEXT_SetFont
;;;443    	if(set_sw == set_1)
00001a  4d73              LDR      r5,|L3.488|
00001c  7828              LDRB     r0,[r5,#0]  ; set_sw
;;;444    	{
;;;445    		TEXT_SetBkColor(hItem,0x00BFFFFF);//ÈÄâÈ°πËÉåÊôØËâ≤ËÆæ‰∏∫Á±≥Ëâ≤
00001e  f8df81cc          LDR      r8,|L3.492|
;;;446    		TEXT_SetTextColor(hItem, GUI_BLACK);
;;;447    	}else{
;;;448    		TEXT_SetBkColor(hItem,GUI_INVALID_COLOR);//ÈÄâÈ°πËÉåÊôØËâ≤ËÆæ‰∏∫ÈÄèÊòé
000022  f06f4970          MVN      r9,#0xf0000000
;;;449            TEXT_SetTextColor(hItem, GUI_WHITE);
000026  f06f4a7f          MVN      r10,#0xff000000
00002a  2800              CMP      r0,#0                 ;443
00002c  d07d              BEQ      |L3.298|
00002e  4649              MOV      r1,r9                 ;448
000030  4638              MOV      r0,r7                 ;448
000032  f7fffffe          BL       TEXT_SetBkColor
000036  4651              MOV      r1,r10
000038  4638              MOV      r0,r7
00003a  f7fffffe          BL       TEXT_SetTextColor
                  |L3.62|
;;;450    	}
;;;451    	TEXT_SetText(hItem,BAUDSET[set_baud]);
00003e  4e6c              LDR      r6,|L3.496|
000040  6ff1              LDR      r1,[r6,#0x7c]  ; Run_Control
000042  eb010041          ADD      r0,r1,r1,LSL #1
000046  4966              LDR      r1,|L3.480|
000048  310e              ADDS     r1,r1,#0xe
00004a  eb010140          ADD      r1,r1,r0,LSL #1
00004e  4638              MOV      r0,r7
000050  f7fffffe          BL       TEXT_SetText
;;;452    	
;;;453    	hItem = WM_GetDialogItem(hWinset, ID_TEXT_29);
000054  f6400133          MOV      r1,#0x833
000058  6860              LDR      r0,[r4,#4]  ; hWinset
00005a  f7fffffe          BL       WM_GetDialogItem
00005e  4607              MOV      r7,r0
;;;454    	TEXT_SetFont(hItem,&GUI_Font24_1);//ËÆæÂÆöÊñáÊú¨Â≠ó‰Ωì
000060  4960              LDR      r1,|L3.484|
000062  4638              MOV      r0,r7
000064  f7fffffe          BL       TEXT_SetFont
;;;455    	if(set_sw == set_2)
000068  7828              LDRB     r0,[r5,#0]  ; set_sw
00006a  2801              CMP      r0,#1
00006c  d07e              BEQ      |L3.364|
;;;456    	{
;;;457    		TEXT_SetBkColor(hItem,0x00BFFFFF);//ÈÄâÈ°πËÉåÊôØËâ≤ËÆæ‰∏∫Á±≥Ëâ≤
;;;458    		TEXT_SetTextColor(hItem, GUI_BLACK);
;;;459    	}else{
;;;460    		TEXT_SetBkColor(hItem,GUI_INVALID_COLOR);//ÈÄâÈ°πËÉåÊôØËâ≤ËÆæ‰∏∫ÈÄèÊòé
00006e  4649              MOV      r1,r9
000070  4638              MOV      r0,r7
000072  f7fffffe          BL       TEXT_SetBkColor
;;;461            TEXT_SetTextColor(hItem, GUI_WHITE);
000076  4651              MOV      r1,r10
000078  4638              MOV      r0,r7
00007a  f7fffffe          BL       TEXT_SetTextColor
                  |L3.126|
;;;462    	}
;;;463    	TEXT_SetText(hItem,BEEPSET[set_beep]);
00007e  f8d61080          LDR      r1,[r6,#0x80]  ; Run_Control
000082  eb010041          ADD      r0,r1,r1,LSL #1
000086  4956              LDR      r1,|L3.480|
000088  3108              ADDS     r1,r1,#8
00008a  4401              ADD      r1,r1,r0
00008c  4638              MOV      r0,r7
00008e  f7fffffe          BL       TEXT_SetText
;;;464    	
;;;465    	
;;;466    	
;;;467    	hItem = WM_GetDialogItem(hWinset, ID_TEXT_30);
000092  f6400134          MOV      r1,#0x834
000096  6860              LDR      r0,[r4,#4]  ; hWinset
000098  f7fffffe          BL       WM_GetDialogItem
00009c  4607              MOV      r7,r0
;;;468    	TEXT_SetFont(hItem,&GUI_Fontset_font);//ËÆæÂÆöÊñáÊú¨Â≠ó‰Ωì
00009e  4955              LDR      r1,|L3.500|
0000a0  4638              MOV      r0,r7
0000a2  f7fffffe          BL       TEXT_SetFont
;;;469    	if(set_sw == set_3)
0000a6  7828              LDRB     r0,[r5,#0]  ; set_sw
0000a8  2802              CMP      r0,#2
0000aa  d07d              BEQ      |L3.424|
;;;470    	{
;;;471    		TEXT_SetBkColor(hItem,0x00BFFFFF);//ÈÄâÈ°πËÉåÊôØËâ≤ËÆæ‰∏∫Á±≥Ëâ≤
;;;472    		TEXT_SetTextColor(hItem, GUI_BLACK);
;;;473    	}else{
;;;474    		TEXT_SetBkColor(hItem,GUI_INVALID_COLOR);//ÈÄâÈ°πËÉåÊôØËâ≤ËÆæ‰∏∫ÈÄèÊòé
0000ac  4649              MOV      r1,r9
0000ae  4638              MOV      r0,r7
0000b0  f7fffffe          BL       TEXT_SetBkColor
;;;475            TEXT_SetTextColor(hItem, GUI_WHITE);
0000b4  4651              MOV      r1,r10
0000b6  4638              MOV      r0,r7
0000b8  f7fffffe          BL       TEXT_SetTextColor
                  |L3.188|
;;;476    	}
;;;477    	TEXT_SetText(hItem,DISPLAY[set_disp]);
0000bc  f8d60084          LDR      r0,[r6,#0x84]  ; Run_Control
0000c0  4947              LDR      r1,|L3.480|
0000c2  313e              ADDS     r1,r1,#0x3e
0000c4  eb0101c0          ADD      r1,r1,r0,LSL #3
0000c8  4638              MOV      r0,r7
0000ca  f7fffffe          BL       TEXT_SetText
;;;478    	
;;;479    	hItem = WM_GetDialogItem(hWinset, ID_TEXT_31);
0000ce  f640013b          MOV      r1,#0x83b
0000d2  6860              LDR      r0,[r4,#4]  ; hWinset
0000d4  f7fffffe          BL       WM_GetDialogItem
0000d8  4607              MOV      r7,r0
;;;480    	if(set_sw == set_4)
0000da  7828              LDRB     r0,[r5,#0]  ; set_sw
0000dc  2803              CMP      r0,#3
0000de  d06c              BEQ      |L3.442|
;;;481    	{
;;;482    		TEXT_SetBkColor(hItem,0x00BFFFFF);//ÈÄâÈ°πËÉåÊôØËâ≤ËÆæ‰∏∫Á±≥Ëâ≤
;;;483    		TEXT_SetTextColor(hItem, GUI_BLACK);
;;;484    	}else{
;;;485    		TEXT_SetBkColor(hItem,GUI_INVALID_COLOR);//ÈÄâÈ°πËÉåÊôØËâ≤ËÆæ‰∏∫ÈÄèÊòé
0000e0  4649              MOV      r1,r9
0000e2  4638              MOV      r0,r7
0000e4  f7fffffe          BL       TEXT_SetBkColor
;;;486            TEXT_SetTextColor(hItem, GUI_WHITE);
0000e8  4651              MOV      r1,r10
0000ea  4638              MOV      r0,r7
0000ec  f7fffffe          BL       TEXT_SetTextColor
                  |L3.240|
;;;487    	}
;;;488    	sprintf(buf,"%.2f",(float)set_max_v/100);
0000f0  6bb0              LDR      r0,[r6,#0x38]  ; Run_Control
0000f2  ee000a10          VMOV     s0,r0
0000f6  eef80a40          VCVT.F32.U32 s1,s0
0000fa  ed9f1a3f          VLDR     s2,|L3.504|
0000fe  ee800a81          VDIV.F32 s0,s1,s2
000102  ee100a10          VMOV     r0,s0
000106  f7fffffe          BL       __aeabi_f2d
00010a  ec410b10          VMOV     d0,r0,r1
00010e  a13b              ADR      r1,|L3.508|
000110  ec532b10          VMOV     r2,r3,d0
000114  4668              MOV      r0,sp
000116  f7fffffe          BL       __2sprintf
;;;489    	TEXT_SetText(hItem,buf);
00011a  4669              MOV      r1,sp
00011c  4638              MOV      r0,r7
00011e  f7fffffe          BL       TEXT_SetText
;;;490    	
;;;491    	hItem = WM_GetDialogItem(hWinset, ID_TEXT_32);
000122  f640013c          MOV      r1,#0x83c
000126  6860              LDR      r0,[r4,#4]  ; hWinset
000128  e000              B        |L3.300|
                  |L3.298|
00012a  e02a              B        |L3.386|
                  |L3.300|
00012c  f7fffffe          BL       WM_GetDialogItem
000130  4604              MOV      r4,r0
;;;492    	
;;;493    	if(set_sw == set_5)
000132  7828              LDRB     r0,[r5,#0]  ; set_sw
000134  2804              CMP      r0,#4
000136  d049              BEQ      |L3.460|
;;;494    	{
;;;495    		TEXT_SetBkColor(hItem,0x00BFFFFF);//ÈÄâÈ°πËÉåÊôØËâ≤ËÆæ‰∏∫Á±≥Ëâ≤
;;;496    		TEXT_SetTextColor(hItem, GUI_BLACK);
;;;497    	}else{
;;;498    		TEXT_SetBkColor(hItem,GUI_INVALID_COLOR);//ÈÄâÈ°πËÉåÊôØËâ≤ËÆæ‰∏∫ÈÄèÊòé
000138  4649              MOV      r1,r9
00013a  4620              MOV      r0,r4
00013c  f7fffffe          BL       TEXT_SetBkColor
;;;499            TEXT_SetTextColor(hItem, GUI_WHITE);
000140  4651              MOV      r1,r10
000142  4620              MOV      r0,r4
000144  f7fffffe          BL       TEXT_SetTextColor
                  |L3.328|
;;;500    	}
;;;501    	sprintf(buf,"%.3f",(float)set_max_c/1000);
000148  6cb0              LDR      r0,[r6,#0x48]  ; Run_Control
00014a  ed9f1a2e          VLDR     s2,|L3.516|
00014e  ee000a10          VMOV     s0,r0
000152  eef80a40          VCVT.F32.U32 s1,s0
000156  ee800a81          VDIV.F32 s0,s1,s2
00015a  ee100a10          VMOV     r0,s0
00015e  f7fffffe          BL       __aeabi_f2d
000162  ec410b10          VMOV     d0,r0,r1
000166  ec532b10          VMOV     r2,r3,d0
00016a  e000              B        |L3.366|
                  |L3.364|
00016c  e013              B        |L3.406|
                  |L3.366|
00016e  a126              ADR      r1,|L3.520|
000170  4668              MOV      r0,sp
000172  f7fffffe          BL       __2sprintf
;;;502    	TEXT_SetText(hItem,buf);
000176  4669              MOV      r1,sp
000178  4620              MOV      r0,r4
00017a  f7fffffe          BL       TEXT_SetText
;;;503    }
00017e  e8bd8ffe          POP      {r1-r11,pc}
                  |L3.386|
000182  4641              MOV      r1,r8                 ;445
000184  4638              MOV      r0,r7                 ;445
000186  f7fffffe          BL       TEXT_SetBkColor
00018a  2100              MOVS     r1,#0                 ;446
00018c  4638              MOV      r0,r7                 ;446
00018e  f7fffffe          BL       TEXT_SetTextColor
000192  e754              B        |L3.62|
000194  e008              B        |L3.424|
                  |L3.406|
000196  4641              MOV      r1,r8                 ;457
000198  4638              MOV      r0,r7                 ;457
00019a  f7fffffe          BL       TEXT_SetBkColor
00019e  2100              MOVS     r1,#0                 ;458
0001a0  4638              MOV      r0,r7                 ;458
0001a2  f7fffffe          BL       TEXT_SetTextColor
0001a6  e76a              B        |L3.126|
                  |L3.424|
0001a8  4641              MOV      r1,r8                 ;471
0001aa  4638              MOV      r0,r7                 ;471
0001ac  f7fffffe          BL       TEXT_SetBkColor
0001b0  2100              MOVS     r1,#0                 ;472
0001b2  4638              MOV      r0,r7                 ;472
0001b4  f7fffffe          BL       TEXT_SetTextColor
0001b8  e780              B        |L3.188|
                  |L3.442|
0001ba  4641              MOV      r1,r8                 ;482
0001bc  4638              MOV      r0,r7                 ;482
0001be  f7fffffe          BL       TEXT_SetBkColor
0001c2  2100              MOVS     r1,#0                 ;483
0001c4  4638              MOV      r0,r7                 ;483
0001c6  f7fffffe          BL       TEXT_SetTextColor
0001ca  e791              B        |L3.240|
                  |L3.460|
0001cc  4641              MOV      r1,r8                 ;495
0001ce  4620              MOV      r0,r4                 ;495
0001d0  f7fffffe          BL       TEXT_SetBkColor
0001d4  2100              MOVS     r1,#0                 ;496
0001d6  4620              MOV      r0,r4                 ;496
0001d8  f7fffffe          BL       TEXT_SetTextColor
0001dc  e7b4              B        |L3.328|
;;;504    
                          ENDP

0001de  0000              DCW      0x0000
                  |L3.480|
                          DCD      ||.data||
                  |L3.484|
                          DCD      GUI_Font24_1
                  |L3.488|
                          DCD      set_sw
                  |L3.492|
                          DCD      0x00bfffff
                  |L3.496|
                          DCD      Run_Control
                  |L3.500|
                          DCD      GUI_Fontset_font
                  |L3.504|
0001f8  42c80000          DCFS     0x42c80000 ; 100
                  |L3.508|
0001fc  252e3266          DCB      "%.2f",0
000200  00      
000201  00                DCB      0
000202  00                DCB      0
000203  00                DCB      0
                  |L3.516|
000204  447a0000          DCFS     0x447a0000 ; 1000
                  |L3.520|
000208  252e3366          DCB      "%.3f",0
00020c  00      
00020d  00                DCB      0
00020e  00                DCB      0
00020f  00                DCB      0

                          AREA ||i.INPUT_NUM||, CODE, READONLY, ALIGN=2

                  INPUT_NUM PROC
;;;1911   void INPUT_NUM(char* num);            
;;;1912   void INPUT_NUM(char* num){
000000  e92d41f0          PUSH     {r4-r8,lr}
000004  4606              MOV      r6,r0
;;;1913       u8 i;
;;;1914       switch(set_sw){
000006  482b              LDR      r0,|L4.180|
000008  7802              LDRB     r2,[r0,#0]  ; set_sw
;;;1915           case set_4:
;;;1916           {
;;;1917               WM_HWIN hItem;
;;;1918   //            WM_InvalidateWindow(hWinset);
;;;1919               hItem = WM_GetDialogItem(hWinset, ID_TEXT_31);
00000a  482b              LDR      r0,|L4.184|
;;;1920               if(bit < 7)
;;;1921   			{
;;;1922   				strcat(set_limit,num);
;;;1923   			}
;;;1924   			if(dot_flag != 0 && strcmp(num,".") == 0)
00000c  4d2b              LDR      r5,|L4.188|
00000e  4c2c              LDR      r4,|L4.192|
000010  6840              LDR      r0,[r0,#4]            ;1919
000012  2a03              CMP      r2,#3                 ;1914
000014  d017              BEQ      |L4.70|
000016  2a04              CMP      r2,#4                 ;1914
000018  d14a              BNE      |L4.176|
;;;1925   			{
;;;1926   				
;;;1927   			}else{			
;;;1928   				
;;;1929   				if(dot_flag == 0 && strcmp(num,".") == 0)
;;;1930   				{
;;;1931   					dot_flag = bit;
;;;1932   				}
;;;1933   				bit ++;
;;;1934   			}
;;;1935   			TEXT_SetText(hItem,set_limit);
;;;1936               break;
;;;1937           }
;;;1938           case set_5:
;;;1939           {
;;;1940               WM_HWIN hItem;
;;;1941   //            WM_InvalidateWindow(hWinset);
;;;1942               hItem = WM_GetDialogItem(hWinset, ID_TEXT_32);
00001a  f640013c          MOV      r1,#0x83c
00001e  f7fffffe          BL       WM_GetDialogItem
000022  4607              MOV      r7,r0
;;;1943               if(bit < 7)
000024  7820              LDRB     r0,[r4,#0]  ; bit
000026  2807              CMP      r0,#7
000028  d203              BCS      |L4.50|
;;;1944   			{
;;;1945   				strcat(set_limit,num);
00002a  4631              MOV      r1,r6
00002c  4825              LDR      r0,|L4.196|
00002e  f7fffffe          BL       strcat
                  |L4.50|
;;;1946   			}
;;;1947   			if(dot_flag != 0 && strcmp(num,".") == 0)
000032  7828              LDRB     r0,[r5,#0]  ; dot_flag
000034  b120              CBZ      r0,|L4.64|
000036  a124              ADR      r1,|L4.200|
000038  4630              MOV      r0,r6
00003a  f7fffffe          BL       strcmp
00003e  b388              CBZ      r0,|L4.164|
                  |L4.64|
;;;1948   			{
;;;1949   				
;;;1950   			}else{			
;;;1951   				
;;;1952   				if(dot_flag == 0 && strcmp(num,".") == 0)
000040  7828              LDRB     r0,[r5,#0]  ; dot_flag
000042  b328              CBZ      r0,|L4.144|
000044  e02b              B        |L4.158|
                  |L4.70|
000046  f640013b          MOV      r1,#0x83b             ;1919
00004a  f7fffffe          BL       WM_GetDialogItem
00004e  4607              MOV      r7,r0                 ;1919
000050  7820              LDRB     r0,[r4,#0]            ;1920  ; bit
000052  2807              CMP      r0,#7                 ;1920
000054  d203              BCS      |L4.94|
000056  4631              MOV      r1,r6                 ;1922
000058  481a              LDR      r0,|L4.196|
00005a  f7fffffe          BL       strcat
                  |L4.94|
00005e  7828              LDRB     r0,[r5,#0]            ;1924  ; dot_flag
000060  b120              CBZ      r0,|L4.108|
000062  a119              ADR      r1,|L4.200|
000064  4630              MOV      r0,r6                 ;1924
000066  f7fffffe          BL       strcmp
00006a  b158              CBZ      r0,|L4.132|
                  |L4.108|
00006c  7828              LDRB     r0,[r5,#0]            ;1929  ; dot_flag
00006e  b930              CBNZ     r0,|L4.126|
000070  a115              ADR      r1,|L4.200|
000072  4630              MOV      r0,r6                 ;1929
000074  f7fffffe          BL       strcmp
000078  b908              CBNZ     r0,|L4.126|
00007a  7820              LDRB     r0,[r4,#0]            ;1931  ; bit
00007c  7028              STRB     r0,[r5,#0]            ;1931
                  |L4.126|
00007e  7820              LDRB     r0,[r4,#0]            ;1933  ; bit
000080  1c40              ADDS     r0,r0,#1              ;1933
000082  7020              STRB     r0,[r4,#0]            ;1933
                  |L4.132|
000084  4638              MOV      r0,r7                 ;1935
000086  e8bd41f0          POP      {r4-r8,lr}            ;1935
00008a  490e              LDR      r1,|L4.196|
00008c  f7ffbffe          B.W      TEXT_SetText
                  |L4.144|
000090  a10d              ADR      r1,|L4.200|
000092  4630              MOV      r0,r6
000094  f7fffffe          BL       strcmp
000098  b908              CBNZ     r0,|L4.158|
;;;1953   				{
;;;1954   					dot_flag = bit;
00009a  7820              LDRB     r0,[r4,#0]  ; bit
00009c  7028              STRB     r0,[r5,#0]
                  |L4.158|
;;;1955   				}
;;;1956   				bit ++;
00009e  7820              LDRB     r0,[r4,#0]  ; bit
0000a0  1c40              ADDS     r0,r0,#1
0000a2  7020              STRB     r0,[r4,#0]
                  |L4.164|
;;;1957   			}
;;;1958   			TEXT_SetText(hItem,set_limit);
0000a4  4638              MOV      r0,r7
0000a6  e8bd41f0          POP      {r4-r8,lr}
0000aa  4906              LDR      r1,|L4.196|
0000ac  f7ffbffe          B.W      TEXT_SetText
                  |L4.176|
;;;1959               break;
;;;1960           }
;;;1961   	}
;;;1962           
;;;1963   }
0000b0  e8bd81f0          POP      {r4-r8,pc}
;;;1964   
                          ENDP

                  |L4.180|
                          DCD      set_sw
                  |L4.184|
                          DCD      ||.data||
                  |L4.188|
                          DCD      dot_flag
                  |L4.192|
                          DCD      bit
                  |L4.196|
                          DCD      set_limit
                  |L4.200|
0000c8  2e00              DCB      ".",0
0000ca  00                DCB      0
0000cb  00                DCB      0

                          AREA ||i.PARA_SET||, CODE, READONLY, ALIGN=2

                          REQUIRE _printf_percent
                          REQUIRE _printf_widthprec
                          REQUIRE _printf_f
                          REQUIRE _printf_fp_dec
                          REQUIRE _printf_pre_padding
                          REQUIRE _printf_d
                          REQUIRE _printf_int_dec
                  PARA_SET PROC
;;;597    
;;;598    void PARA_SET(void) {
000000  e92d4ff0          PUSH     {r4-r11,lr}
000004  ed2d8b06          VPUSH    {d8-d10}
000008  b087              SUB      sp,sp,#0x1c
;;;599                    vu8 i;
;;;600                    char buf[5];
;;;601      
;;;602    
;;;603                    float dis_max_v = (float)set_max_v/1000;
00000a  4dfd              LDR      r5,|L5.1024|
00000c  6ba8              LDR      r0,[r5,#0x38]  ; Run_Control
00000e  ee000a10          VMOV     s0,r0
000012  eeb80a40          VCVT.F32.U32 s0,s0
000016  eddf0afb          VLDR     s1,|L5.1028|
00001a  eec09a20          VDIV.F32 s19,s0,s1
;;;604                    float dis_min_v = (float)set_min_v/1000;
00001e  4628              MOV      r0,r5
000020  6bc0              LDR      r0,[r0,#0x3c]  ; Run_Control
;;;605                    vu16 dis_max_r = set_max_r;
000022  4628              MOV      r0,r5
000024  6c00              LDR      r0,[r0,#0x40]  ; Run_Control
000026  9003              STR      r0,[sp,#0xc]
;;;606                    vu16 dis_min_r = set_min_r;
000028  4628              MOV      r0,r5
00002a  6c40              LDR      r0,[r0,#0x44]  ; Run_Control
00002c  9002              STR      r0,[sp,#8]
;;;607                    float dis_max_c = (float)set_max_c/1000;
00002e  4628              MOV      r0,r5
000030  6c80              LDR      r0,[r0,#0x48]  ; Run_Control
000032  ee000a10          VMOV     s0,r0
000036  eeb80a40          VCVT.F32.U32 s0,s0
00003a  eddf0af2          VLDR     s1,|L5.1028|
00003e  ee80aa20          VDIV.F32 s20,s0,s1
;;;608                    float dis_min_c = (float)set_min_c/1000;
000042  4628              MOV      r0,r5
000044  6cc0              LDR      r0,[r0,#0x4c]  ; Run_Control
000046  ee000a10          VMOV     s0,r0
00004a  eeb80a40          VCVT.F32.U32 s0,s0
00004e  eddf0aed          VLDR     s1,|L5.1028|
000052  ee809a20          VDIV.F32 s18,s0,s1
;;;609        
;;;610                    switch(set_sw){
000056  4eec              LDR      r6,|L5.1032|
000058  7831              LDRB     r1,[r6,#0]  ; set_sw
;;;611                        case set_4:
;;;612                        {
;;;613    						if(dot_flag == 0){
;;;614    							set_max_v = atoi(set_limit)*100;					
;;;615    						}else if(dot_flag != 0){
;;;616    							memset(buf, '\0', sizeof(buf));
;;;617    							strncpy(buf,set_limit,dot_flag + 2);
;;;618    							set_max_v = atof(buf)*100;
;;;619    						}
;;;620    						if(set_max_v > 6000)
;;;621    						{
;;;622    							set_max_v = 6000;
;;;623    						}
;;;624    						memset(set_limit, '\0', sizeof(set_limit));
;;;625                            Write_Limits();
;;;626                            bit = 1;
00005a  f8df83b0          LDR      r8,|L5.1036|
;;;627                            dot_flag = 0;
;;;628                            break;                        
;;;629                        }
;;;630                        case set_5:
;;;631                        {
;;;632                            if(dot_flag == 0){
;;;633    							set_max_c = atoi(set_limit)*1000;					
;;;634    						}else if(dot_flag != 0){
;;;635    							memset(buf, '\0', sizeof(buf));
;;;636    							strncpy(buf,set_limit,dot_flag + 2);
;;;637    							set_max_c = atof(buf)*1000;
00005e  ed9f8bec          VLDR     d8,|L5.1040|
;;;638    						}
;;;639    						if(set_max_c > 5000)
;;;640    						{
;;;641    							set_max_c = 5000;
;;;642    						}
;;;643    						memset(set_limit, '\0', sizeof(set_limit));
;;;644                            Write_Limits();
;;;645                            bit = 1;
;;;646                            dot_flag = 0;
;;;647                            break;
;;;648                        }
;;;649    					 case set_13:
;;;650                        {
;;;651                            WM_HWIN hItem;
;;;652    //                        WM_InvalidateWindow(hWinset);
;;;653    
;;;654                            hItem = WM_GetDialogItem(hWinset, ID_TEXT_35);
000062  48ed              LDR      r0,|L5.1048|
000064  2400              MOVS     r4,#0
000066  2701              MOVS     r7,#1                 ;626
;;;655                            TEXT_SetBkColor(hItem,GUI_INVALID_COLOR);//ÈÄâÈ°πËÉåÊôØËâ≤ËÆæ‰∏∫ÈÄèÊòé
;;;656                            TEXT_SetTextColor(hItem, GUI_WHITE);
;;;657    //                        if(set_max_v > 80000)
;;;658    //                        {
;;;659    //                            set_max_v = 80000;
;;;660    //                            TEXT_SetText(hItem,"80.00");                                                       
;;;661    //                        }
;;;662    						if(dot_flag == 0){
;;;663    							set_min_v = atoi(set_limit)*1000;					
;;;664    						}else if(dot_flag != 0){
;;;665    							memset(buf, '\0', sizeof(buf));
;;;666    							strncpy(buf,set_limit,dot_flag + 2);
;;;667    							set_min_v = atof(buf)*1000;
;;;668    						}
;;;669    						if(set_min_v > 62000)
;;;670    						{
;;;671    							set_min_v = 62000;
;;;672    						}
;;;673    						dis_min_v = (float)set_min_v/1000;
;;;674                            sprintf(buf,"%.3f",dis_max_v);
;;;675                            TEXT_SetText(hItem,buf);
;;;676    						
;;;677    						hItem = WM_GetDialogItem(hWinset, ID_TEXT_36);
;;;678                            TEXT_SetBkColor(hItem,GUI_INVALID_COLOR);//ÈÄâÈ°πËÉåÊôØËâ≤ËÆæ‰∏∫ÈÄèÊòé
;;;679                            TEXT_SetTextColor(hItem, GUI_WHITE);
;;;680                           
;;;681                            sprintf(buf,"%.3f",dis_min_v);
;;;682                            TEXT_SetText(hItem,buf);
;;;683    						
;;;684                        
;;;685                            hItem = WM_GetDialogItem(hWinset, ID_TEXT_24);
;;;686                            TEXT_SetBkColor(hItem,0x00BFFFFF);//ÈÄâÈ°πËÉåÊôØËâ≤ËÆæ‰∏∫Á±≥Ëâ≤
;;;687                            TEXT_SetTextColor(hItem, GUI_BLACK);
;;;688       
;;;689                            Write_Limits();
;;;690                            set_sw = set_4;
;;;691                            bit = 1;
;;;692                            dot_flag = 0;
;;;693    						memset(set_limit, '\0', sizeof(set_limit));
;;;694                            break; 
;;;695                        }
;;;696    					
;;;697    					case set_82:
;;;698                        {
;;;699                            WM_HWIN hItem;
;;;700    //                        WM_InvalidateWindow(hWinset);
;;;701    
;;;702                            hItem = WM_GetDialogItem(hWinset, ID_TEXT_154);
;;;703                            TEXT_SetBkColor(hItem,GUI_INVALID_COLOR);//ÈÄâÈ°πËÉåÊôØËâ≤ËÆæ‰∏∫ÈÄèÊòé
;;;704                            TEXT_SetTextColor(hItem, GUI_WHITE);
;;;705    						if(dot_flag == 0){
;;;706    							set_max_lv = atoi(set_limit)*1000;					
;;;707    						}else if(dot_flag != 0){
;;;708    							memset(buf, '\0', sizeof(buf));
;;;709    							strncpy(buf,set_limit,dot_flag + 3);
;;;710    							set_max_lv = atof(buf)*1000;
;;;711    						}
;;;712                            sprintf(buf,"%.3f",(float)set_max_lv/1000);
;;;713                            TEXT_SetText(hItem,buf);
;;;714    						
;;;715    						hItem = WM_GetDialogItem(hWinset, ID_TEXT_155);
;;;716                            TEXT_SetBkColor(hItem,GUI_INVALID_COLOR);//ÈÄâÈ°πËÉåÊôØËâ≤ËÆæ‰∏∫ÈÄèÊòé
;;;717                            TEXT_SetTextColor(hItem, GUI_WHITE);
;;;718                           
;;;719                            sprintf(buf,"%.3f",(float)set_min_lv/1000);
;;;720                            TEXT_SetText(hItem,buf);
;;;721                            
;;;722                            hItem = WM_GetDialogItem(hWinset, ID_TEXT_25);
;;;723                            TEXT_SetBkColor(hItem,0x00BFFFFF);//ÈÄâÈ°πËÉåÊôØËâ≤ËÆæ‰∏∫Á±≥Ëâ≤
;;;724                            TEXT_SetTextColor(hItem, GUI_BLACK);
;;;725                            Flash_Write32BitDatas(FLASH_USER_START_ADDR,40, InFlashSave);
;;;726                            set_sw = set_5;
;;;727                            bit = 1;
;;;728                            dot_flag = 0;
;;;729                            break; 
;;;730                        }
;;;731    					 case set_83:
;;;732                        {
;;;733                            WM_HWIN hItem;
;;;734    //                        WM_InvalidateWindow(hWinset);
;;;735    
;;;736                            hItem = WM_GetDialogItem(hWinset, ID_TEXT_154);
;;;737                            TEXT_SetBkColor(hItem,GUI_INVALID_COLOR);//ÈÄâÈ°πËÉåÊôØËâ≤ËÆæ‰∏∫ÈÄèÊòé
;;;738                            TEXT_SetTextColor(hItem, GUI_WHITE);
;;;739    						if(dot_flag == 0){
;;;740    							set_min_lv = atoi(set_limit)*1000;					
;;;741    						}else if(dot_flag != 0){
;;;742    							memset(buf, '\0', sizeof(buf));
;;;743    							strncpy(buf,set_limit,dot_flag + 3);
;;;744    							set_min_lv = atof(buf)*1000;
;;;745    						}
;;;746                            sprintf(buf,"%.3f",(float)set_max_lv/1000);
;;;747                            TEXT_SetText(hItem,buf);
;;;748    						
;;;749    						hItem = WM_GetDialogItem(hWinset, ID_TEXT_155);
;;;750                            TEXT_SetBkColor(hItem,GUI_INVALID_COLOR);//ÈÄâÈ°πËÉåÊôØËâ≤ËÆæ‰∏∫ÈÄèÊòé
;;;751                            TEXT_SetTextColor(hItem, GUI_WHITE);
;;;752                           
;;;753                            sprintf(buf,"%.3f",(float)set_min_lv/1000);
;;;754                            TEXT_SetText(hItem,buf);
;;;755    						
;;;756                        
;;;757                            hItem = WM_GetDialogItem(hWinset, ID_TEXT_25);
;;;758                            TEXT_SetBkColor(hItem,0x00BFFFFF);//ÈÄâÈ°πËÉåÊôØËâ≤ËÆæ‰∏∫Á±≥Ëâ≤
;;;759                            TEXT_SetTextColor(hItem, GUI_BLACK);
;;;760       
;;;761                            Flash_Write32BitDatas(FLASH_USER_START_ADDR,40, InFlashSave);
;;;762                            set_sw = set_5;
;;;763                            bit = 1;
;;;764                            dot_flag = 0;
;;;765                            break; 
;;;766                        }
;;;767    					
;;;768                       
;;;769                        case set_6:
;;;770                        {
;;;771                                WM_HWIN hItem;
;;;772    //                            WM_InvalidateWindow(hWinset);
;;;773                                hItem = WM_GetDialogItem(hWinset, ID_TEXT_26);
;;;774                                TEXT_SetBkColor(hItem,GUI_INVALID_COLOR);//ÈÄâÈ°πËÉåÊôØËâ≤ËÆæ‰∏∫ÈÄèÊòé
;;;775                                TEXT_SetTextColor(hItem, GUI_WHITE);
;;;776                   
;;;777                                hItem = WM_GetDialogItem(hWinset, ID_TEXT_37);
;;;778                                TEXT_SetBkColor(hItem,0x00BFFFFF);//ÈÄâÈ°πËÉåÊôØËâ≤ËÆæ‰∏∫Á±≥Ëâ≤
;;;779                                TEXT_SetTextColor(hItem, GUI_BLACK);
;;;780                                
;;;781                                for(i=0;i<6;i++){
;;;782                                    set_limit[i] = '\0';
;;;783                                }
;;;784                                set_sw = set_14;
;;;785                                break;                        
;;;786                        }
;;;787                        case set_14:
;;;788                        {
;;;789                            WM_HWIN hItem;
;;;790    //                        WM_InvalidateWindow(hWinset);
;;;791                            hItem = WM_GetDialogItem(hWinset, ID_TEXT_37);
;;;792                            TEXT_SetBkColor(hItem,GUI_INVALID_COLOR);//ÈÄâÈ°πËÉåÊôØËâ≤ËÆæ‰∏∫ÈÄèÊòé
;;;793                            TEXT_SetTextColor(hItem, GUI_WHITE);
;;;794    						if(dot_flag == 0){
;;;795    							set_max_r = atoi(set_limit);					
;;;796    						}else if(dot_flag != 0){
;;;797    							memset(buf, '\0', sizeof(buf));
;;;798    							strncpy(buf,set_limit,dot_flag);
;;;799    							set_max_r = atof(buf);
;;;800    						}
;;;801                            sprintf(buf,"%4d",set_max_r);
;;;802                            TEXT_SetText(hItem,buf);
;;;803                   
;;;804                            hItem = WM_GetDialogItem(hWinset, ID_TEXT_26);
;;;805                            TEXT_SetBkColor(hItem,0x00BFFFFF);//ÈÄâÈ°πËÉåÊôØËâ≤ËÆæ‰∏∫Á±≥Ëâ≤
;;;806                            TEXT_SetTextColor(hItem, GUI_BLACK);
;;;807    
;;;808                            Write_Limits();
;;;809                            set_sw = set_6;
;;;810                            bit = 1;
;;;811                            dot_flag = 0;
;;;812                            break; 
;;;813                        }
;;;814                        case set_7:
;;;815                        {
;;;816                                WM_HWIN hItem;
;;;817    //                            WM_InvalidateWindow(hWinset);
;;;818                                hItem = WM_GetDialogItem(hWinset, ID_TEXT_27);
;;;819                                TEXT_SetBkColor(hItem,GUI_INVALID_COLOR);//ÈÄâÈ°πËÉåÊôØËâ≤ËÆæ‰∏∫ÈÄèÊòé
;;;820                                TEXT_SetTextColor(hItem, GUI_WHITE);
;;;821                   
;;;822                                hItem = WM_GetDialogItem(hWinset, ID_TEXT_38);
;;;823                                TEXT_SetBkColor(hItem,0x00BFFFFF);//ÈÄâÈ°πËÉåÊôØËâ≤ËÆæ‰∏∫Á±≥Ëâ≤
;;;824                                TEXT_SetTextColor(hItem, GUI_BLACK);
;;;825                                
;;;826                                for(i=0;i<6;i++){
;;;827                                    set_limit[i] = '\0';
;;;828                                }
;;;829                                set_sw = set_15;
;;;830                                break;                        
;;;831                        }
;;;832                        case set_15:
;;;833                        {
;;;834                            WM_HWIN hItem;
;;;835    //                        WM_InvalidateWindow(hWinset);
;;;836                            hItem = WM_GetDialogItem(hWinset, ID_TEXT_38);
;;;837                            TEXT_SetBkColor(hItem,GUI_INVALID_COLOR);//ÈÄâÈ°πËÉåÊôØËâ≤ËÆæ‰∏∫ÈÄèÊòé
;;;838                            TEXT_SetTextColor(hItem, GUI_WHITE);
;;;839                            if(dot_flag == 0){
;;;840    							set_min_r = atoi(set_limit);					
;;;841    						}else if(dot_flag != 0){
;;;842    							memset(buf, '\0', sizeof(buf));
;;;843    							strncpy(buf,set_limit,dot_flag);
;;;844    							set_min_r = atof(buf);
;;;845    						}
;;;846                            sprintf(buf,"%4d",set_min_r);
;;;847                            TEXT_SetText(hItem,buf);
;;;848                            
;;;849                            hItem = WM_GetDialogItem(hWinset, ID_TEXT_27);
;;;850                            TEXT_SetBkColor(hItem,0x00BFFFFF);//ÈÄâÈ°πËÉåÊôØËâ≤ËÆæ‰∏∫Á±≥Ëâ≤
;;;851                            TEXT_SetTextColor(hItem, GUI_BLACK);
;;;852    
;;;853                            Write_Limits();
;;;854                            set_sw = set_7;
;;;855                            bit = 1;
;;;856                            dot_flag = 0;
;;;857                            break; 
;;;858                        }
;;;859                        case set_8:
;;;860                        {
;;;861                                WM_HWIN hItem;
;;;862    //                            WM_InvalidateWindow(hWinset);
;;;863                                hItem = WM_GetDialogItem(hWinset, ID_TEXT_31);
;;;864                                TEXT_SetBkColor(hItem,GUI_INVALID_COLOR);//ÈÄâÈ°πËÉåÊôØËâ≤ËÆæ‰∏∫ÈÄèÊòé
;;;865                                TEXT_SetTextColor(hItem, GUI_WHITE);
;;;866                   
;;;867                                hItem = WM_GetDialogItem(hWinset, ID_TEXT_39);
;;;868                                TEXT_SetBkColor(hItem,0x00BFFFFF);//ÈÄâÈ°πËÉåÊôØËâ≤ËÆæ‰∏∫Á±≥Ëâ≤
;;;869                                TEXT_SetTextColor(hItem, GUI_BLACK);
;;;870    
;;;871                                for(i=0;i<6;i++){
;;;872                                    set_limit[i] = '\0';
;;;873                                }
;;;874                                set_sw = set_16;
;;;875                                break;                        
;;;876                        }
;;;877                        case set_16:
;;;878                        {
;;;879                            WM_HWIN hItem;
;;;880    //                        WM_InvalidateWindow(hWinset);
;;;881                            hItem = WM_GetDialogItem(hWinset, ID_TEXT_39);
;;;882                            TEXT_SetBkColor(hItem,GUI_INVALID_COLOR);//ÈÄâÈ°πËÉåÊôØËâ≤ËÆæ‰∏∫ÈÄèÊòé
;;;883                            TEXT_SetTextColor(hItem, GUI_WHITE);
;;;884    						if(dot_flag == 0){
;;;885    							set_max_c = atoi(set_limit)*1000;					
;;;886    						}else if(dot_flag != 0){
;;;887    							memset(buf, '\0', sizeof(buf));
;;;888    							strncpy(buf,set_limit,dot_flag + 3);
;;;889    							set_max_c = atof(buf)*1000;
;;;890    						}
;;;891                            if(set_max_c > 30000)
;;;892                            {
;;;893                                set_max_c = 30000;
;;;894                            }
;;;895    						dis_max_c = (float)set_max_c/1000;
;;;896                            sprintf(buf,"%.3f",dis_max_c);
;;;897                            TEXT_SetText(hItem,buf);
;;;898    						
;;;899    						 hItem = WM_GetDialogItem(hWinset, ID_TEXT_40);
;;;900                            TEXT_SetBkColor(hItem,GUI_INVALID_COLOR);//ÈÄâÈ°πËÉåÊôØËâ≤ËÆæ‰∏∫ÈÄèÊòé
;;;901                            TEXT_SetTextColor(hItem, GUI_WHITE);
;;;902                            if(set_min_c >= set_max_c)
;;;903                            {
;;;904                                set_min_c = 0;
;;;905                                TEXT_SetText(hItem,"0.000");
;;;906                            }
;;;907                            
;;;908                            sprintf(buf,"%.3f",dis_min_c);
;;;909                            TEXT_SetText(hItem,buf);
;;;910    						
;;;911    						
;;;912                            
;;;913                            hItem = WM_GetDialogItem(hWinset, ID_TEXT_31);
;;;914                            TEXT_SetBkColor(hItem,0x00BFFFFF);//ÈÄâÈ°πËÉåÊôØËâ≤ËÆæ‰∏∫Á±≥Ëâ≤
;;;915                            TEXT_SetTextColor(hItem, GUI_BLACK);
;;;916    
;;;917                            Write_Limits();
;;;918                            set_sw = set_8;
;;;919                            bit = 1;
;;;920                            dot_flag = 0;
;;;921                            break; 
;;;922                        }
;;;923    					
;;;924    					case set_17:
;;;925                        {
;;;926                            WM_HWIN hItem;
;;;927    //                        WM_InvalidateWindow(hWinset);
;;;928                            hItem = WM_GetDialogItem(hWinset, ID_TEXT_39);
;;;929                            TEXT_SetBkColor(hItem,GUI_INVALID_COLOR);//ÈÄâÈ°πËÉåÊôØËâ≤ËÆæ‰∏∫ÈÄèÊòé
;;;930                            TEXT_SetTextColor(hItem, GUI_WHITE);
;;;931    //                        if(set_max_c > 60000)
;;;932    //                        {
;;;933    //                            set_max_c = 60000;
;;;934    //                            TEXT_SetText(hItem,"60.00");
;;;935    //                        }
;;;936                            sprintf(buf,"%.3f",dis_max_c);
;;;937                            TEXT_SetText(hItem,buf);
;;;938    						
;;;939    						 hItem = WM_GetDialogItem(hWinset, ID_TEXT_40);
;;;940                            TEXT_SetBkColor(hItem,GUI_INVALID_COLOR);//ÈÄâÈ°πËÉåÊôØËâ≤ËÆæ‰∏∫ÈÄèÊòé
;;;941                            TEXT_SetTextColor(hItem, GUI_WHITE);
;;;942    						if(dot_flag == 0){
;;;943    							set_min_c = atoi(set_limit)*1000;					
;;;944    						}else if(dot_flag != 0){
;;;945    							memset(buf, '\0', sizeof(buf));
;;;946    							strncpy(buf,set_limit,dot_flag + 3);
;;;947    							set_min_c = atof(buf)*1000;
;;;948    						}
;;;949                            if(set_max_c > 30000)
;;;950                            {
;;;951                                set_max_c = 30000;
;;;952                            }
;;;953                            if(set_min_c >= set_max_c)
;;;954                            {
;;;955                                set_min_c = 0;
;;;956                            }
;;;957                            dis_min_c = (float)set_min_c/1000;
;;;958                            sprintf(buf,"%.3f",dis_min_c);
;;;959                            TEXT_SetText(hItem,buf);
;;;960    						
;;;961                            hItem = WM_GetDialogItem(hWinset, ID_TEXT_31);
;;;962                            TEXT_SetBkColor(hItem,0x00BFFFFF);//ÈÄâÈ°πËÉåÊôØËâ≤ËÆæ‰∏∫Á±≥Ëâ≤
;;;963                            TEXT_SetTextColor(hItem, GUI_BLACK);
;;;964    
;;;965                            Write_Limits();
;;;966                            set_sw = set_8;
;;;967                            bit = 1;
;;;968                            dot_flag = 0;
;;;969                            break; 
;;;970                        }
;;;971    					
;;;972                        case set_9:
;;;973                        {
;;;974                                WM_HWIN hItem;
;;;975    //                            WM_InvalidateWindow(hWinset);
;;;976                                hItem = WM_GetDialogItem(hWinset, ID_TEXT_32);
;;;977                                TEXT_SetBkColor(hItem,GUI_INVALID_COLOR);//ÈÄâÈ°πËÉåÊôØËâ≤ËÆæ‰∏∫ÈÄèÊòé
;;;978                                TEXT_SetTextColor(hItem, GUI_WHITE);
;;;979                                
;;;980                                hItem = WM_GetDialogItem(hWinset, ID_TEXT_156);
;;;981                                TEXT_SetBkColor(hItem,0x00BFFFFF);//ÈÄâÈ°πËÉåÊôØËâ≤ËÆæ‰∏∫Á±≥Ëâ≤
;;;982                                TEXT_SetTextColor(hItem, GUI_BLACK);
;;;983    
;;;984                                for(i=0;i<6;i++){
;;;985                                    set_limit[i] = '\0';
;;;986                                }
;;;987                                set_sw = set_84;
;;;988                                break;                        
;;;989                        }
;;;990    					
;;;991    					case set_84:
;;;992                        {
;;;993                            WM_HWIN hItem;
;;;994    //                        WM_InvalidateWindow(hWinset);
;;;995                            hItem = WM_GetDialogItem(hWinset, ID_TEXT_156);
;;;996                            TEXT_SetBkColor(hItem,GUI_INVALID_COLOR);//ÈÄâÈ°πËÉåÊôØËâ≤ËÆæ‰∏∫ÈÄèÊòé
;;;997                            TEXT_SetTextColor(hItem, GUI_WHITE);
;;;998    						if(dot_flag == 0){
;;;999    							set_max_pc = atoi(set_limit)*1000;					
;;;1000   						}else if(dot_flag != 0){
;;;1001   							memset(buf, '\0', sizeof(buf));
;;;1002   							strncpy(buf,set_limit,dot_flag + 3);
;;;1003   							set_max_pc = atof(buf)*1000;
;;;1004   						}
;;;1005                           if(set_max_pc > 10000)
;;;1006                           {
;;;1007                               set_max_pc = 10000;
;;;1008                           }
;;;1009   //						dis_max_c = (float)set_max_c/1000;
;;;1010   //                        if(set_max_pc > 60000)
;;;1011   //                        {
;;;1012   //                            set_max_pc = 60000;
;;;1013   //                            TEXT_SetText(hItem,"60.000");
;;;1014   //                        }
;;;1015                           sprintf(buf,"%.3f",(float)set_max_pc/1000);
;;;1016                           TEXT_SetText(hItem,buf);
;;;1017   						
;;;1018   						 hItem = WM_GetDialogItem(hWinset, ID_TEXT_157);
;;;1019                           TEXT_SetBkColor(hItem,GUI_INVALID_COLOR);//ÈÄâÈ°πËÉåÊôØËâ≤ËÆæ‰∏∫ÈÄèÊòé
;;;1020                           TEXT_SetTextColor(hItem, GUI_WHITE);
;;;1021                           if(set_min_pc >= set_max_pc)
;;;1022                           {
;;;1023                               set_min_pc = 0;
;;;1024                               TEXT_SetText(hItem,"0.000");
;;;1025                           }
;;;1026                           
;;;1027                           sprintf(buf,"%.3f",(float)set_min_pc/1000);
;;;1028                           TEXT_SetText(hItem,buf);
;;;1029   						
;;;1030   						
;;;1031                           
;;;1032                           hItem = WM_GetDialogItem(hWinset, ID_TEXT_32);
;;;1033                           TEXT_SetBkColor(hItem,0x00BFFFFF);//ÈÄâÈ°πËÉåÊôØËâ≤ËÆæ‰∏∫Á±≥Ëâ≤
;;;1034                           TEXT_SetTextColor(hItem, GUI_BLACK);
;;;1035   
;;;1036                           Flash_Write32BitDatas(FLASH_USER_START_ADDR,40, InFlashSave);
;;;1037                           set_sw = set_9;
;;;1038                           bit = 1;
;;;1039                           dot_flag = 0;
;;;1040                           break; 
;;;1041                       }
;;;1042   					
;;;1043   					case set_85:
;;;1044                       {
;;;1045                           WM_HWIN hItem;
;;;1046   //                        WM_InvalidateWindow(hWinset);
;;;1047                           hItem = WM_GetDialogItem(hWinset, ID_TEXT_156);
;;;1048                           TEXT_SetBkColor(hItem,GUI_INVALID_COLOR);//ÈÄâÈ°πËÉåÊôØËâ≤ËÆæ‰∏∫ÈÄèÊòé
;;;1049                           TEXT_SetTextColor(hItem, GUI_WHITE);
;;;1050   //                        if(set_max_pc > 60000)
;;;1051   //                        {
;;;1052   //                            set_max_pc = 60000;
;;;1053   //                            TEXT_SetText(hItem,"60.000");
;;;1054   //                        }
;;;1055                           sprintf(buf,"%.3f",(float)set_max_pc/1000);
;;;1056                           TEXT_SetText(hItem,buf);
;;;1057   						
;;;1058   						 hItem = WM_GetDialogItem(hWinset, ID_TEXT_157);
;;;1059                           TEXT_SetBkColor(hItem,GUI_INVALID_COLOR);//ÈÄâÈ°πËÉåÊôØËâ≤ËÆæ‰∏∫ÈÄèÊòé
;;;1060                           TEXT_SetTextColor(hItem, GUI_WHITE);
;;;1061   						if(dot_flag == 0){
;;;1062   							set_min_pc = atoi(set_limit)*1000;					
;;;1063   						}else if(dot_flag != 0){
;;;1064   							memset(buf, '\0', sizeof(buf));
;;;1065   							strncpy(buf,set_limit,dot_flag + 3);
;;;1066   							set_min_pc = atof(buf)*1000;
;;;1067   						}
;;;1068                           if(set_min_pc > 10000)
;;;1069                           {
;;;1070                               set_min_pc = 10000;
;;;1071                           }
;;;1072                           if(set_min_pc >= set_max_pc)
;;;1073                           {
;;;1074                               set_min_pc = 0;
;;;1075   //                            TEXT_SetText(hItem,"0.000");
;;;1076                           }
;;;1077                           
;;;1078                           sprintf(buf,"%.3f",(float)set_min_pc/1000);
;;;1079                           TEXT_SetText(hItem,buf);
;;;1080   						
;;;1081                           hItem = WM_GetDialogItem(hWinset, ID_TEXT_32);
;;;1082                           TEXT_SetBkColor(hItem,0x00BFFFFF);//ÈÄâÈ°πËÉåÊôØËâ≤ËÆæ‰∏∫Á±≥Ëâ≤
;;;1083                           TEXT_SetTextColor(hItem, GUI_BLACK);
;;;1084   
;;;1085                           Flash_Write32BitDatas(FLASH_USER_START_ADDR,40, InFlashSave);
;;;1086                           set_sw = set_9;
;;;1087                           bit = 1;
;;;1088                           dot_flag = 0;
;;;1089                           break; 
;;;1090                       }
;;;1091                       
;;;1092                       case set_73:
;;;1093                       {
;;;1094                           if(test_mode > 1)
;;;1095                           {
;;;1096                               test_mode = 1;
;;;1097                           }
;;;1098                           if(test_mode == 1)
;;;1099                           {
;;;1100                               WM_HWIN hItem;
;;;1101                               hItem = WM_GetDialogItem(hWinset, ID_TEXT_134);
;;;1102                               TEXT_SetTextColor(hItem, GUI_WHITE);//ËÆæÁΩÆÂ≠ó‰ΩìÈ¢úËâ≤
;;;1103                               TEXT_SetFont(hItem,&GUI_Fontset_font);//ËÆæÂÆöÊñáÊú¨Â≠ó‰Ωì
;;;1104                               GUI_UC_SetEncodeUTF8();
;;;1105                               TEXT_SetText(hItem,"Âø´ÈÄü");
;;;1106                               test_mode = 0;
;;;1107                               Wrtite_S();
;;;1108                           }else if(test_mode == 0){
;;;1109                               WM_HWIN hItem;
;;;1110                               hItem = WM_GetDialogItem(hWinset, ID_TEXT_134);
;;;1111                               TEXT_SetTextColor(hItem, GUI_WHITE);//ËÆæÁΩÆÂ≠ó‰ΩìÈ¢úËâ≤
;;;1112                               TEXT_SetFont(hItem,&GUI_Fontset_font);//ËÆæÂÆöÊñáÊú¨Â≠ó‰Ωì
;;;1113                               GUI_UC_SetEncodeUTF8();
;;;1114                               TEXT_SetText(hItem,"Á≤æÂáÜ");
;;;1115                               test_mode = 1;
;;;1116                               Wrtite_S();
;;;1117                           }
;;;1118                       }break;
;;;1119                       case set_42:
;;;1120                       {
;;;1121                               WM_HWIN hItem;
;;;1122   //                            WM_InvalidateWindow(hWinset);
;;;1123                               hItem = WM_GetDialogItem(hWinset, ID_TEXT_90);
;;;1124                               TEXT_SetBkColor(hItem,GUI_INVALID_COLOR);//ÈÄâÈ°πËÉåÊôØËâ≤ËÆæ‰∏∫ÈÄèÊòé
;;;1125                               TEXT_SetTextColor(hItem, GUI_WHITE);
;;;1126                  
;;;1127                               hItem = WM_GetDialogItem(hWinset, ID_TEXT_91);
;;;1128                               TEXT_SetBkColor(hItem,0x00BFFFFF);//ÈÄâÈ°πËÉåÊôØËâ≤ËÆæ‰∏∫Á±≥Ëâ≤
;;;1129                               TEXT_SetTextColor(hItem, GUI_BLACK);
;;;1130                           
;;;1131                               hItem = WM_GetDialogItem(hWinset, ID_TEXT_134);
;;;1132                               TEXT_SetText(hItem,"");
;;;1133                               if(b_type > 5)
000068  f8df93b0          LDR      r9,|L5.1052|
00006c  6842              LDR      r2,[r0,#4]            ;610
00006e  f06f4a7f          MVN      r10,#0xff000000       ;656
000072  f06f4b70          MVN      r11,#0xf0000000       ;655
000076  2929              CMP      r1,#0x29              ;610
000078  d07d              BEQ      |L5.374|
00007a  dc0e              BGT      |L5.154|
00007c  f1a10103          SUB      r1,r1,#3              ;610
000080  f8df939c          LDR      r9,|L5.1056|
000084  290e              CMP      r1,#0xe               ;610
                  |L5.134|
000086  d277              BCS      |L5.376|
000088  e8dff001          TBB      [pc,r1]               ;610
00008c  bffee7e6          DCB      0xbf,0xfe,0xe7,0xe6
000090  e5e4baba          DCB      0xe5,0xe4,0xba,0xba
000094  bae3e2e1          DCB      0xba,0xe3,0xe2,0xe1
000098  e0df              DCB      0xe0,0xdf
                  |L5.154|
00009a  2948              CMP      r1,#0x48              ;610
00009c  d06d              BEQ      |L5.378|
00009e  dc0d              BGT      |L5.188|
0000a0  f1a1012a          SUB      r1,r1,#0x2a           ;610
;;;1134                               {
;;;1135                                   b_type = 1;
;;;1136                               }
;;;1137                               
;;;1138                               switch(b_type)
;;;1139                               {
;;;1140                                   case Lion:
;;;1141                                   {
;;;1142                                       hItem = WM_GetDialogItem(hWinset, ID_TEXT_92);
;;;1143                                       TEXT_SetTextColor(hItem, GUI_WHITE);//ËÆæÁΩÆÂ≠ó‰ΩìÈ¢úËâ≤
;;;1144                                       TEXT_SetFont(hItem,&GUI_Fontset_font);//ËÆæÂÆöÊñáÊú¨Â≠ó‰Ωì
;;;1145                                       GUI_UC_SetEncodeUTF8();
;;;1146                                       TEXT_SetText(hItem,"ÈïçÊ∞¢ÁîµÊ±†");
;;;1147                                   
;;;1148                                       hItem = WM_GetDialogItem(hWinset, ID_TEXT_93);
;;;1149                                       TEXT_SetTextColor(hItem, GUI_WHITE);//ËÆæÁΩÆÂ≠ó‰ΩìÈ¢úËâ≤
;;;1150                                       TEXT_SetFont(hItem,&GUI_Fontset_font);//ËÆæÂÆöÊñáÊú¨Â≠ó‰Ωì
;;;1151                                       GUI_UC_SetEncodeUTF8();
;;;1152                                       TEXT_SetText(hItem,"ÈïçÈïâÁîµÊ±†");
;;;1153                                       
;;;1154                                       hItem = WM_GetDialogItem(hWinset, ID_TEXT_94);
;;;1155                                       TEXT_SetTextColor(hItem, GUI_WHITE);//ËÆæÁΩÆÂ≠ó‰ΩìÈ¢úËâ≤
;;;1156                                       TEXT_SetFont(hItem,&GUI_Fontset_font);//ËÆæÂÆöÊñáÊú¨Â≠ó‰Ωì
;;;1157                                       GUI_UC_SetEncodeUTF8();
;;;1158                                       TEXT_SetText(hItem,"Â∞èÂûãÈìÖÈÖ∏ÁîµÊ±†");
;;;1159                                       
;;;1160                                       hItem = WM_GetDialogItem(hWinset, ID_TEXT_95);
;;;1161                                       TEXT_SetTextColor(hItem, GUI_WHITE);//ËÆæÁΩÆÂ≠ó‰ΩìÈ¢úËâ≤
;;;1162                                       TEXT_SetFont(hItem,&GUI_Fontset_font);//ËÆæÂÆöÊñáÊú¨Â≠ó‰Ωì
;;;1163                                       GUI_UC_SetEncodeUTF8();
;;;1164                                       TEXT_SetText(hItem,"ÈîÇÈî∞ÁîµÊ±†");
;;;1165                                       break;
;;;1166                                   }
;;;1167                                   case NiMH:
;;;1168                                   {
;;;1169                                       hItem = WM_GetDialogItem(hWinset, ID_TEXT_92);
;;;1170                                       TEXT_SetTextColor(hItem, GUI_WHITE);//ËÆæÁΩÆÂ≠ó‰ΩìÈ¢úËâ≤
;;;1171                                       TEXT_SetFont(hItem,&GUI_Fontset_font);//ËÆæÂÆöÊñáÊú¨Â≠ó‰Ωì
;;;1172                                       GUI_UC_SetEncodeUTF8();
;;;1173                                       TEXT_SetText(hItem,"ÈîÇÁîµÊ±†");
;;;1174                                   
;;;1175                                       hItem = WM_GetDialogItem(hWinset, ID_TEXT_93);
;;;1176                                       TEXT_SetTextColor(hItem, GUI_WHITE);//ËÆæÁΩÆÂ≠ó‰ΩìÈ¢úËâ≤
;;;1177                                       TEXT_SetFont(hItem,&GUI_Fontset_font);//ËÆæÂÆöÊñáÊú¨Â≠ó‰Ωì
;;;1178                                       GUI_UC_SetEncodeUTF8();
;;;1179                                       TEXT_SetText(hItem,"ÈïçÈïâÁîµÊ±†");
;;;1180                                       
;;;1181                                       hItem = WM_GetDialogItem(hWinset, ID_TEXT_94);
;;;1182                                       TEXT_SetTextColor(hItem, GUI_WHITE);//ËÆæÁΩÆÂ≠ó‰ΩìÈ¢úËâ≤
;;;1183                                       TEXT_SetFont(hItem,&GUI_Fontset_font);//ËÆæÂÆöÊñáÊú¨Â≠ó‰Ωì
;;;1184                                       GUI_UC_SetEncodeUTF8();
;;;1185                                       TEXT_SetText(hItem,"Â∞èÂûãÈìÖÈÖ∏ÁîµÊ±†");
;;;1186                                       
;;;1187                                       hItem = WM_GetDialogItem(hWinset, ID_TEXT_95);
;;;1188                                       TEXT_SetTextColor(hItem, GUI_WHITE);//ËÆæÁΩÆÂ≠ó‰ΩìÈ¢úËâ≤
;;;1189                                       TEXT_SetFont(hItem,&GUI_Fontset_font);//ËÆæÂÆöÊñáÊú¨Â≠ó‰Ωì
;;;1190                                       GUI_UC_SetEncodeUTF8();
;;;1191                                       TEXT_SetText(hItem,"ÈîÇÈî∞ÁîµÊ±†");
;;;1192                                       break;
;;;1193                                   }
;;;1194                                   case NiCd:
;;;1195                                   {
;;;1196                                       hItem = WM_GetDialogItem(hWinset, ID_TEXT_92);
;;;1197                                       TEXT_SetTextColor(hItem, GUI_WHITE);//ËÆæÁΩÆÂ≠ó‰ΩìÈ¢úËâ≤
;;;1198                                       TEXT_SetFont(hItem,&GUI_Fontset_font);//ËÆæÂÆöÊñáÊú¨Â≠ó‰Ωì
;;;1199                                       GUI_UC_SetEncodeUTF8();
;;;1200                                       TEXT_SetText(hItem,"ÈîÇÁîµÊ±†");
;;;1201                                   
;;;1202                                       hItem = WM_GetDialogItem(hWinset, ID_TEXT_93);
;;;1203                                       TEXT_SetTextColor(hItem, GUI_WHITE);//ËÆæÁΩÆÂ≠ó‰ΩìÈ¢úËâ≤
;;;1204                                       TEXT_SetFont(hItem,&GUI_Fontset_font);//ËÆæÂÆöÊñáÊú¨Â≠ó‰Ωì
;;;1205                                       GUI_UC_SetEncodeUTF8();
;;;1206                                       TEXT_SetText(hItem,"ÈïçÊ∞¢ÁîµÊ±†");
;;;1207                                       
;;;1208                                       hItem = WM_GetDialogItem(hWinset, ID_TEXT_94);
;;;1209                                       TEXT_SetTextColor(hItem, GUI_WHITE);//ËÆæÁΩÆÂ≠ó‰ΩìÈ¢úËâ≤
;;;1210                                       TEXT_SetFont(hItem,&GUI_Fontset_font);//ËÆæÂÆöÊñáÊú¨Â≠ó‰Ωì
;;;1211                                       GUI_UC_SetEncodeUTF8();
;;;1212                                       TEXT_SetText(hItem,"Â∞èÂûãÈìÖÈÖ∏ÁîµÊ±†");
;;;1213                                       
;;;1214                                       hItem = WM_GetDialogItem(hWinset, ID_TEXT_95);
;;;1215                                       TEXT_SetTextColor(hItem, GUI_WHITE);//ËÆæÁΩÆÂ≠ó‰ΩìÈ¢úËâ≤
;;;1216                                       TEXT_SetFont(hItem,&GUI_Fontset_font);//ËÆæÂÆöÊñáÊú¨Â≠ó‰Ωì
;;;1217                                       GUI_UC_SetEncodeUTF8();
;;;1218                                       TEXT_SetText(hItem,"ÈîÇÈî∞ÁîµÊ±†");
;;;1219                                       break;
;;;1220                                   }
;;;1221                                   case SLA:
;;;1222                                   {
;;;1223                                       hItem = WM_GetDialogItem(hWinset, ID_TEXT_92);
;;;1224                                       TEXT_SetTextColor(hItem, GUI_WHITE);//ËÆæÁΩÆÂ≠ó‰ΩìÈ¢úËâ≤
;;;1225                                       TEXT_SetFont(hItem,&GUI_Fontset_font);//ËÆæÂÆöÊñáÊú¨Â≠ó‰Ωì
;;;1226                                       GUI_UC_SetEncodeUTF8();
;;;1227                                       TEXT_SetText(hItem,"ÈîÇÁîµÊ±†");
;;;1228                                   
;;;1229                                       hItem = WM_GetDialogItem(hWinset, ID_TEXT_93);
;;;1230                                       TEXT_SetTextColor(hItem, GUI_WHITE);//ËÆæÁΩÆÂ≠ó‰ΩìÈ¢úËâ≤
;;;1231                                       TEXT_SetFont(hItem,&GUI_Fontset_font);//ËÆæÂÆöÊñáÊú¨Â≠ó‰Ωì
;;;1232                                       GUI_UC_SetEncodeUTF8();
;;;1233                                       TEXT_SetText(hItem,"ÈïçÊ∞¢ÁîµÊ±†");
;;;1234                                       
;;;1235                                       hItem = WM_GetDialogItem(hWinset, ID_TEXT_94);
;;;1236                                       TEXT_SetTextColor(hItem, GUI_WHITE);//ËÆæÁΩÆÂ≠ó‰ΩìÈ¢úËâ≤
;;;1237                                       TEXT_SetFont(hItem,&GUI_Fontset_font);//ËÆæÂÆöÊñáÊú¨Â≠ó‰Ωì
;;;1238                                       GUI_UC_SetEncodeUTF8();
;;;1239                                       TEXT_SetText(hItem,"ÈïçÈïâÁîµÊ±†");
;;;1240                                       
;;;1241                                       hItem = WM_GetDialogItem(hWinset, ID_TEXT_95);
;;;1242                                       TEXT_SetTextColor(hItem, GUI_WHITE);//ËÆæÁΩÆÂ≠ó‰ΩìÈ¢úËâ≤
;;;1243                                       TEXT_SetFont(hItem,&GUI_Fontset_font);//ËÆæÂÆöÊñáÊú¨Â≠ó‰Ωì
;;;1244                                       GUI_UC_SetEncodeUTF8();
;;;1245                                       TEXT_SetText(hItem,"ÈîÇÈî∞ÁîµÊ±†");
;;;1246                                       break;
;;;1247                                   }
;;;1248                                   case LiMH:
;;;1249                                   {
;;;1250                                       hItem = WM_GetDialogItem(hWinset, ID_TEXT_92);
;;;1251                                       TEXT_SetTextColor(hItem, GUI_WHITE);//ËÆæÁΩÆÂ≠ó‰ΩìÈ¢úËâ≤
;;;1252                                       TEXT_SetFont(hItem,&GUI_Fontset_font);//ËÆæÂÆöÊñáÊú¨Â≠ó‰Ωì
;;;1253                                       GUI_UC_SetEncodeUTF8();
;;;1254                                       TEXT_SetText(hItem,"ÈîÇÁîµÊ±†");
;;;1255                                   
;;;1256                                       hItem = WM_GetDialogItem(hWinset, ID_TEXT_93);
;;;1257                                       TEXT_SetTextColor(hItem, GUI_WHITE);//ËÆæÁΩÆÂ≠ó‰ΩìÈ¢úËâ≤
;;;1258                                       TEXT_SetFont(hItem,&GUI_Fontset_font);//ËÆæÂÆöÊñáÊú¨Â≠ó‰Ωì
;;;1259                                       GUI_UC_SetEncodeUTF8();
;;;1260                                       TEXT_SetText(hItem,"ÈïçÊ∞¢ÁîµÊ±†");
;;;1261                                       
;;;1262                                       hItem = WM_GetDialogItem(hWinset, ID_TEXT_94);
;;;1263                                       TEXT_SetTextColor(hItem, GUI_WHITE);//ËÆæÁΩÆÂ≠ó‰ΩìÈ¢úËâ≤
;;;1264                                       TEXT_SetFont(hItem,&GUI_Fontset_font);//ËÆæÂÆöÊñáÊú¨Â≠ó‰Ωì
;;;1265                                       GUI_UC_SetEncodeUTF8();
;;;1266                                       TEXT_SetText(hItem,"ÈïçÈïâÁîµÊ±†");
;;;1267                                       
;;;1268                                       hItem = WM_GetDialogItem(hWinset, ID_TEXT_95);
;;;1269                                       TEXT_SetTextColor(hItem, GUI_WHITE);//ËÆæÁΩÆÂ≠ó‰ΩìÈ¢úËâ≤
;;;1270                                       TEXT_SetFont(hItem,&GUI_Fontset_font);//ËÆæÂÆöÊñáÊú¨Â≠ó‰Ωì
;;;1271                                       GUI_UC_SetEncodeUTF8();
;;;1272                                       TEXT_SetText(hItem,"Â∞èÂûãÈìÖÈÖ∏ÁîµÊ±†");
;;;1273                                       break;
;;;1274                                   }
;;;1275                               }
;;;1276                               
;;;1277   
;;;1278                               set_sw = set_43;
;;;1279                               break;                        
;;;1280                       }
;;;1281                       case set_43:
;;;1282                       {
;;;1283                               WM_HWIN hItem;
;;;1284   //                            WM_InvalidateWindow(hWinset);
;;;1285                               
;;;1286                  
;;;1287                               hItem = WM_GetDialogItem(hWinset, ID_TEXT_90);
;;;1288                               TEXT_SetBkColor(hItem,0x00BFFFFF);//ÈÄâÈ°πËÉåÊôØËâ≤ËÆæ‰∏∫Á±≥Ëâ≤
;;;1289                               TEXT_SetTextColor(hItem, GUI_BLACK);
;;;1290                           
;;;1291                               hItem = WM_GetDialogItem(hWinset, ID_TEXT_134);
;;;1292                               if(test_mode == 1)
;;;1293                               {
;;;1294                                   TEXT_SetFont(hItem,&GUI_Fontset_font);//ËÆæÂÆöÊñáÊú¨Â≠ó‰Ωì
;;;1295                                   TEXT_SetText(hItem,"Á≤æÂáÜ");
;;;1296                               }else if(test_mode == 0){
;;;1297                                   TEXT_SetFont(hItem,&GUI_Fontset_font);//ËÆæÂÆöÊñáÊú¨Â≠ó‰Ωì
;;;1298                                   TEXT_SetText(hItem,"Âø´ÈÄü");
;;;1299                               }
;;;1300                                                      
;;;1301                               switch(buffer)
0000a4  4cdf              LDR      r4,|L5.1060|
;;;1302                               {
;;;1303                                   case Lion:
;;;1304                                   {
;;;1305                                       hItem = WM_GetDialogItem(hWinset, ID_TEXT_91);
;;;1306                                       TEXT_SetBkColor(hItem,GUI_INVALID_COLOR);//ÈÄâÈ°πËÉåÊôØËâ≤ËÆæ‰∏∫ÈÄèÊòé
;;;1307                                       TEXT_SetTextColor(hItem, GUI_WHITE);
;;;1308                                       TEXT_SetText(hItem,"ÈîÇÁîµÊ±†");
;;;1309                                       b_type = Lion;      
;;;1310                                       break;
;;;1311                                   }
;;;1312                                   case NiMH:
;;;1313                                   {
;;;1314                                       hItem = WM_GetDialogItem(hWinset, ID_TEXT_91);
;;;1315                                       TEXT_SetBkColor(hItem,GUI_INVALID_COLOR);//ÈÄâÈ°πËÉåÊôØËâ≤ËÆæ‰∏∫ÈÄèÊòé
;;;1316                                       TEXT_SetTextColor(hItem, GUI_WHITE);
;;;1317                                       TEXT_SetText(hItem,"ÈïçÊ∞¢ÁîµÊ±†");
;;;1318                                       b_type = NiMH;
0000a6  f04f0802          MOV      r8,#2
0000aa  2905              CMP      r1,#5                 ;610
0000ac  d2eb              BCS      |L5.134|
0000ae  e8dff011          TBH      [pc,r1,LSL #1]        ;610
0000b2  0899              DCW      0x0899
0000b4  09680a3d          DCW      0x0968,0x0a3d
0000b8  0b170bec          DCW      0x0b17,0x0bec
                  |L5.188|
0000bc  4dda              LDR      r5,|L5.1064|
0000be  f6401335          MOV      r3,#0x935             ;702
0000c2  2951              CMP      r1,#0x51              ;610
0000c4  d07d              BEQ      |L5.450|
0000c6  2952              CMP      r1,#0x52              ;610
0000c8  d07c              BEQ      |L5.452|
0000ca  2953              CMP      r1,#0x53              ;610
0000cc  d07b              BEQ      |L5.454|
0000ce  2954              CMP      r1,#0x54              ;610
0000d0  d152              BNE      |L5.376|
0000d2  1c99              ADDS     r1,r3,#2              ;1047
0000d4  f8df9340          LDR      r9,|L5.1048|
0000d8  4610              MOV      r0,r2                 ;1047
0000da  f7fffffe          BL       WM_GetDialogItem
0000de  9001              STR      r0,[sp,#4]            ;1047
0000e0  4659              MOV      r1,r11                ;1048
0000e2  9801              LDR      r0,[sp,#4]            ;1048
0000e4  f7fffffe          BL       TEXT_SetBkColor
0000e8  4651              MOV      r1,r10                ;1049
0000ea  9801              LDR      r0,[sp,#4]            ;1049
0000ec  f7fffffe          BL       TEXT_SetTextColor
0000f0  ed950a02          VLDR     s0,[r5,#8]            ;1055
0000f4  eef80ac0          VCVT.F32.S32 s1,s0                 ;1055
0000f8  ed9f9ac2          VLDR     s18,|L5.1028|
0000fc  ee800a89          VDIV.F32 s0,s1,s18             ;1055
000100  ee100a10          VMOV     r0,s0                 ;1055
000104  f7fffffe          BL       __aeabi_f2d
000108  ec410b10          VMOV     d0,r0,r1              ;1055
00010c  a1c7              ADR      r1,|L5.1068|
00010e  ec532b10          VMOV     r2,r3,d0              ;1055
000112  a804              ADD      r0,sp,#0x10           ;1055
000114  f7fffffe          BL       __2sprintf
000118  a904              ADD      r1,sp,#0x10           ;1056
00011a  9801              LDR      r0,[sp,#4]            ;1056
00011c  f7fffffe          BL       TEXT_SetText
000120  f6401138          MOV      r1,#0x938             ;1058
000124  f8d90004          LDR      r0,[r9,#4]            ;1058  ; hWinset
000128  f7fffffe          BL       WM_GetDialogItem
00012c  9001              STR      r0,[sp,#4]            ;1058
00012e  4659              MOV      r1,r11                ;1059
000130  9801              LDR      r0,[sp,#4]            ;1059
000132  f7fffffe          BL       TEXT_SetBkColor
000136  4651              MOV      r1,r10                ;1060
000138  9801              LDR      r0,[sp,#4]            ;1060
00013a  f7fffffe          BL       TEXT_SetTextColor
00013e  f8df92f4          LDR      r9,|L5.1076|
000142  f8990000          LDRB     r0,[r9,#0]            ;1061  ; dot_flag
000146  2800              CMP      r0,#0                 ;1061
000148  d07e              BEQ      |L5.584|
00014a  f8990000          LDRB     r0,[r9,#0]            ;1063  ; dot_flag
00014e  b1c0              CBZ      r0,|L5.386|
000150  9404              STR      r4,[sp,#0x10]         ;1064
000152  9405              STR      r4,[sp,#0x14]         ;1064
000154  f8992000          LDRB     r2,[r9,#0]            ;1065  ; dot_flag
000158  49b1              LDR      r1,|L5.1056|
00015a  1cd2              ADDS     r2,r2,#3              ;1065
00015c  a804              ADD      r0,sp,#0x10           ;1065
00015e  f7fffffe          BL       strncpy
000162  a804              ADD      r0,sp,#0x10           ;1066
000164  f7fffffe          BL       __hardfp_atof
000168  ec532b18          VMOV     r2,r3,d8              ;1066
00016c  ec510b10          VMOV     r0,r1,d0              ;1066
000170  f7fffffe          BL       __aeabi_dmul
000174  e002              B        |L5.380|
                  |L5.374|
000176  e3fd              B        |L5.2420|
                  |L5.376|
000178  e042              B        |L5.512|
                  |L5.378|
00017a  e3fc              B        |L5.2422|
                  |L5.380|
00017c  f7fffffe          BL       __aeabi_d2iz
000180  60e8              STR      r0,[r5,#0xc]          ;1066  ; InFlashSave
                  |L5.386|
000182  68e9              LDR      r1,[r5,#0xc]          ;1068  ; InFlashSave
000184  f2427010          MOV      r0,#0x2710            ;1068
000188  4281              CMP      r1,r0                 ;1068
00018a  dd00              BLE      |L5.398|
00018c  60e8              STR      r0,[r5,#0xc]          ;1070  ; InFlashSave
                  |L5.398|
00018e  e9d51002          LDRD     r1,r0,[r5,#8]         ;1072
000192  4288              CMP      r0,r1                 ;1072
000194  db00              BLT      |L5.408|
000196  60ec              STR      r4,[r5,#0xc]          ;1074  ; InFlashSave
                  |L5.408|
000198  ed950a03          VLDR     s0,[r5,#0xc]          ;1078
00019c  eef80ac0          VCVT.F32.S32 s1,s0                 ;1078
0001a0  ee800a89          VDIV.F32 s0,s1,s18             ;1078
0001a4  ee100a10          VMOV     r0,s0                 ;1078
0001a8  f7fffffe          BL       __aeabi_f2d
0001ac  ec410b10          VMOV     d0,r0,r1              ;1078
0001b0  a19e              ADR      r1,|L5.1068|
0001b2  ec532b10          VMOV     r2,r3,d0              ;1078
0001b6  a804              ADD      r0,sp,#0x10           ;1078
0001b8  f7fffffe          BL       __2sprintf
0001bc  a904              ADD      r1,sp,#0x10           ;1079
0001be  9801              LDR      r0,[sp,#4]            ;1079
0001c0  e002              B        |L5.456|
                  |L5.450|
0001c2  e149              B        |L5.1112|
                  |L5.452|
0001c4  e1dc              B        |L5.1408|
                  |L5.454|
0001c6  e3fb              B        |L5.2496|
                  |L5.456|
0001c8  f7fffffe          BL       TEXT_SetText
0001cc  4892              LDR      r0,|L5.1048|
0001ce  f640013c          MOV      r1,#0x83c             ;1081
0001d2  6840              LDR      r0,[r0,#4]            ;1081  ; hWinset
0001d4  f7fffffe          BL       WM_GetDialogItem
0001d8  4605              MOV      r5,r0                 ;1081
0001da  4997              LDR      r1,|L5.1080|
0001dc  4628              MOV      r0,r5                 ;1082
0001de  f7fffffe          BL       TEXT_SetBkColor
0001e2  2100              MOVS     r1,#0                 ;1083
0001e4  4628              MOV      r0,r5                 ;1083
0001e6  f7fffffe          BL       TEXT_SetTextColor
0001ea  4a8f              LDR      r2,|L5.1064|
0001ec  2128              MOVS     r1,#0x28              ;1085
0001ee  4893              LDR      r0,|L5.1084|
0001f0  f7fffffe          BL       Flash_Write32BitDatas
0001f4  2008              MOVS     r0,#8                 ;1086
0001f6  7030              STRB     r0,[r6,#0]            ;1086
0001f8  f8887000          STRB     r7,[r8,#0]            ;1087
0001fc  f8894000          STRB     r4,[r9,#0]            ;1088
                  |L5.512|
;;;1319                                       break;
;;;1320                                   }
;;;1321                                   case NiCd:
;;;1322                                   {
;;;1323                                       hItem = WM_GetDialogItem(hWinset, ID_TEXT_91);
;;;1324                                       TEXT_SetBkColor(hItem,GUI_INVALID_COLOR);//ÈÄâÈ°πËÉåÊôØËâ≤ËÆæ‰∏∫ÈÄèÊòé
;;;1325                                       TEXT_SetTextColor(hItem, GUI_WHITE);
;;;1326                                       TEXT_SetText(hItem,"ÈïçÈïâÁîµÊ±†");
;;;1327                                       b_type = NiCd;
;;;1328                                       break;
;;;1329                                   }
;;;1330                                   case SLA:
;;;1331                                   {
;;;1332                                       hItem = WM_GetDialogItem(hWinset, ID_TEXT_91);
;;;1333                                       TEXT_SetBkColor(hItem,GUI_INVALID_COLOR);//ÈÄâÈ°πËÉåÊôØËâ≤ËÆæ‰∏∫ÈÄèÊòé
;;;1334                                       TEXT_SetTextColor(hItem, GUI_WHITE);
;;;1335                                       TEXT_SetText(hItem,"Â∞èÂûãÈìÖÈÖ∏ÁîµÊ±†");
;;;1336                                       b_type = SLA;
;;;1337                                       break;
;;;1338                                   }
;;;1339                                   case LiMH:
;;;1340                                   {
;;;1341                                       hItem = WM_GetDialogItem(hWinset, ID_TEXT_91);
;;;1342                                       TEXT_SetBkColor(hItem,GUI_INVALID_COLOR);//ÈÄâÈ°πËÉåÊôØËâ≤ËÆæ‰∏∫ÈÄèÊòé
;;;1343                                       TEXT_SetTextColor(hItem, GUI_WHITE);
;;;1344                                       TEXT_SetText(hItem,"ÈîÇÈî∞ÁîµÊ±†");
;;;1345                                       b_type = LiMH;
;;;1346                                       break;
;;;1347                                   }
;;;1348                               }
;;;1349   
;;;1350                               hItem = WM_GetDialogItem(hWinset, ID_TEXT_92);
;;;1351                               TEXT_SetText(hItem,"");
;;;1352                           
;;;1353                               hItem = WM_GetDialogItem(hWinset, ID_TEXT_93);
;;;1354                               TEXT_SetText(hItem,"");
;;;1355                               
;;;1356                               hItem = WM_GetDialogItem(hWinset, ID_TEXT_94);
;;;1357                               TEXT_SetText(hItem,"");
;;;1358                               
;;;1359                               hItem = WM_GetDialogItem(hWinset, ID_TEXT_95);
;;;1360                               TEXT_SetText(hItem,"");
;;;1361                               
;;;1362                               Write_btype();
;;;1363                               set_sw = set_42;
;;;1364                               break;                        
;;;1365                       }
;;;1366                       case set_44:
;;;1367                       {
;;;1368                               WM_HWIN hItem;
;;;1369   //                            WM_InvalidateWindow(hWinset);
;;;1370                  
;;;1371                               hItem = WM_GetDialogItem(hWinset, ID_TEXT_90);
;;;1372                               TEXT_SetBkColor(hItem,0x00BFFFFF);//ÈÄâÈ°πËÉåÊôØËâ≤ËÆæ‰∏∫Á±≥Ëâ≤
;;;1373                               TEXT_SetTextColor(hItem, GUI_BLACK);
;;;1374                           
;;;1375                               hItem = WM_GetDialogItem(hWinset, ID_TEXT_134);
;;;1376                               if(test_mode == 1)
;;;1377                               {
;;;1378                                   TEXT_SetFont(hItem,&GUI_Fontset_font);//ËÆæÂÆöÊñáÊú¨Â≠ó‰Ωì
;;;1379                                   TEXT_SetText(hItem,"Á≤æÂáÜ");
;;;1380                               }else if(test_mode == 0){
;;;1381                                   TEXT_SetFont(hItem,&GUI_Fontset_font);//ËÆæÂÆöÊñáÊú¨Â≠ó‰Ωì
;;;1382                                   TEXT_SetText(hItem,"Âø´ÈÄü");
;;;1383                               }
;;;1384                           
;;;1385                               switch(buffer)
;;;1386                               {
;;;1387                                   case Lion:
;;;1388                                   {
;;;1389                                       hItem = WM_GetDialogItem(hWinset, ID_TEXT_91);
;;;1390                                       TEXT_SetBkColor(hItem,GUI_INVALID_COLOR);//ÈÄâÈ°πËÉåÊôØËâ≤ËÆæ‰∏∫ÈÄèÊòé
;;;1391                                       TEXT_SetTextColor(hItem, GUI_WHITE);
;;;1392                                       TEXT_SetText(hItem,"ÈîÇÁîµÊ±†");
;;;1393                                       b_type = Lion;
;;;1394                                       break;
;;;1395                                   }
;;;1396                                   case NiMH:
;;;1397                                   {
;;;1398                                       hItem = WM_GetDialogItem(hWinset, ID_TEXT_91);
;;;1399                                       TEXT_SetBkColor(hItem,GUI_INVALID_COLOR);//ÈÄâÈ°πËÉåÊôØËâ≤ËÆæ‰∏∫ÈÄèÊòé
;;;1400                                       TEXT_SetTextColor(hItem, GUI_WHITE);
;;;1401                                       TEXT_SetText(hItem,"ÈïçÊ∞¢ÁîµÊ±†");
;;;1402                                       b_type = NiMH;
;;;1403                                       break;
;;;1404                                   }
;;;1405                                   case NiCd:
;;;1406                                   {
;;;1407                                       hItem = WM_GetDialogItem(hWinset, ID_TEXT_91);
;;;1408                                       TEXT_SetBkColor(hItem,GUI_INVALID_COLOR);//ÈÄâÈ°πËÉåÊôØËâ≤ËÆæ‰∏∫ÈÄèÊòé
;;;1409                                       TEXT_SetTextColor(hItem, GUI_WHITE);
;;;1410                                       TEXT_SetText(hItem,"ÈïçÈïâÁîµÊ±†");
;;;1411                                       b_type = NiCd;
;;;1412                                       break;
;;;1413                                   }
;;;1414                                   case SLA:
;;;1415                                   {
;;;1416                                       hItem = WM_GetDialogItem(hWinset, ID_TEXT_91);
;;;1417                                       TEXT_SetBkColor(hItem,GUI_INVALID_COLOR);//ÈÄâÈ°πËÉåÊôØËâ≤ËÆæ‰∏∫ÈÄèÊòé
;;;1418                                       TEXT_SetTextColor(hItem, GUI_WHITE);
;;;1419                                       TEXT_SetText(hItem,"Â∞èÂûãÈìÖÈÖ∏ÁîµÊ±†");
;;;1420                                       b_type = SLA;
;;;1421                                       break;
;;;1422                                   }
;;;1423                                   case LiMH:
;;;1424                                   {
;;;1425                                       hItem = WM_GetDialogItem(hWinset, ID_TEXT_91);
;;;1426                                       TEXT_SetBkColor(hItem,GUI_INVALID_COLOR);//ÈÄâÈ°πËÉåÊôØËâ≤ËÆæ‰∏∫ÈÄèÊòé
;;;1427                                       TEXT_SetTextColor(hItem, GUI_WHITE);
;;;1428                                       TEXT_SetText(hItem,"ÈîÇÈî∞ÁîµÊ±†");
;;;1429                                       b_type = LiMH;
;;;1430                                       break;
;;;1431                                   }
;;;1432                               }
;;;1433                           
;;;1434                               hItem = WM_GetDialogItem(hWinset, ID_TEXT_92);
;;;1435                               TEXT_SetText(hItem,"");
;;;1436                               TEXT_SetBkColor(hItem,GUI_INVALID_COLOR);//ÈÄâÈ°πËÉåÊôØËâ≤ËÆæ‰∏∫ÈÄèÊòé
;;;1437                           
;;;1438                               hItem = WM_GetDialogItem(hWinset, ID_TEXT_93);
;;;1439                               TEXT_SetText(hItem,"");
;;;1440                               
;;;1441                               hItem = WM_GetDialogItem(hWinset, ID_TEXT_94);
;;;1442                               TEXT_SetText(hItem,"");
;;;1443                               
;;;1444                               hItem = WM_GetDialogItem(hWinset, ID_TEXT_95);
;;;1445                               TEXT_SetText(hItem,"");
;;;1446   
;;;1447                               Write_btype();
;;;1448                               set_sw = set_42;
;;;1449                               break;                        
;;;1450                       }
;;;1451                       case set_45:
;;;1452                       {
;;;1453                               WM_HWIN hItem;
;;;1454   //                            WM_InvalidateWindow(hWinset);
;;;1455                  
;;;1456                               hItem = WM_GetDialogItem(hWinset, ID_TEXT_90);
;;;1457                               TEXT_SetBkColor(hItem,0x00BFFFFF);//ÈÄâÈ°πËÉåÊôØËâ≤ËÆæ‰∏∫Á±≥Ëâ≤
;;;1458                               TEXT_SetTextColor(hItem, GUI_BLACK);
;;;1459                           
;;;1460                               hItem = WM_GetDialogItem(hWinset, ID_TEXT_134);
;;;1461                               if(test_mode == 1)
;;;1462                               {
;;;1463                                   TEXT_SetFont(hItem,&GUI_Fontset_font);//ËÆæÂÆöÊñáÊú¨Â≠ó‰Ωì
;;;1464                                   TEXT_SetText(hItem,"Á≤æÂáÜ");
;;;1465                               }else if(test_mode == 0){
;;;1466                                   TEXT_SetFont(hItem,&GUI_Fontset_font);//ËÆæÂÆöÊñáÊú¨Â≠ó‰Ωì
;;;1467                                   TEXT_SetText(hItem,"Âø´ÈÄü");
;;;1468                               }
;;;1469                           
;;;1470                               switch(buffer)
;;;1471                               {
;;;1472                                   case Lion:
;;;1473                                   {
;;;1474                                       hItem = WM_GetDialogItem(hWinset, ID_TEXT_91);
;;;1475                                       TEXT_SetBkColor(hItem,GUI_INVALID_COLOR);//ÈÄâÈ°πËÉåÊôØËâ≤ËÆæ‰∏∫ÈÄèÊòé
;;;1476                                       TEXT_SetTextColor(hItem, GUI_WHITE);
;;;1477                                       TEXT_SetText(hItem,"ÈîÇÁîµÊ±†");
;;;1478                                       b_type = Lion;
;;;1479                                       break;
;;;1480                                   }
;;;1481                                   case NiMH:
;;;1482                                   {
;;;1483                                       hItem = WM_GetDialogItem(hWinset, ID_TEXT_91);
;;;1484                                       TEXT_SetBkColor(hItem,GUI_INVALID_COLOR);//ÈÄâÈ°πËÉåÊôØËâ≤ËÆæ‰∏∫ÈÄèÊòé
;;;1485                                       TEXT_SetTextColor(hItem, GUI_WHITE);
;;;1486                                       TEXT_SetText(hItem,"ÈïçÊ∞¢ÁîµÊ±†");
;;;1487                                       b_type = NiMH;
;;;1488                                       break;
;;;1489                                   }
;;;1490                                   case NiCd:
;;;1491                                   {
;;;1492                                       hItem = WM_GetDialogItem(hWinset, ID_TEXT_91);
;;;1493                                       TEXT_SetBkColor(hItem,GUI_INVALID_COLOR);//ÈÄâÈ°πËÉåÊôØËâ≤ËÆæ‰∏∫ÈÄèÊòé
;;;1494                                       TEXT_SetTextColor(hItem, GUI_WHITE);
;;;1495                                       TEXT_SetText(hItem,"ÈïçÈïâÁîµÊ±†");
;;;1496                                       b_type = NiCd;
;;;1497                                       break;
;;;1498                                   }
;;;1499                                   case SLA:
;;;1500                                   {
;;;1501                                       hItem = WM_GetDialogItem(hWinset, ID_TEXT_91);
;;;1502                                       TEXT_SetBkColor(hItem,GUI_INVALID_COLOR);//ÈÄâÈ°πËÉåÊôØËâ≤ËÆæ‰∏∫ÈÄèÊòé
;;;1503                                       TEXT_SetTextColor(hItem, GUI_WHITE);
;;;1504                                       TEXT_SetText(hItem,"Â∞èÂûãÈìÖÈÖ∏ÁîµÊ±†");
;;;1505                                       b_type = SLA;
;;;1506                                       break;
;;;1507                                   }
;;;1508                                   case LiMH:
;;;1509                                   {
;;;1510                                       hItem = WM_GetDialogItem(hWinset, ID_TEXT_91);
;;;1511                                       TEXT_SetBkColor(hItem,GUI_INVALID_COLOR);//ÈÄâÈ°πËÉåÊôØËâ≤ËÆæ‰∏∫ÈÄèÊòé
;;;1512                                       TEXT_SetTextColor(hItem, GUI_WHITE);
;;;1513                                       TEXT_SetText(hItem,"ÈîÇÈî∞ÁîµÊ±†");
;;;1514                                       b_type = LiMH;
;;;1515                                       break;
;;;1516                                   }
;;;1517                               }
;;;1518                           
;;;1519                               hItem = WM_GetDialogItem(hWinset, ID_TEXT_92);
;;;1520                               TEXT_SetText(hItem,"");
;;;1521                           
;;;1522                               hItem = WM_GetDialogItem(hWinset, ID_TEXT_93);
;;;1523                               TEXT_SetText(hItem,"");
;;;1524                               TEXT_SetBkColor(hItem,GUI_INVALID_COLOR);//ÈÄâÈ°πËÉåÊôØËâ≤ËÆæ‰∏∫ÈÄèÊòé
;;;1525                               
;;;1526                               hItem = WM_GetDialogItem(hWinset, ID_TEXT_94);
;;;1527                               TEXT_SetText(hItem,"");
;;;1528                               
;;;1529                               hItem = WM_GetDialogItem(hWinset, ID_TEXT_95);
;;;1530                               TEXT_SetText(hItem,"");
;;;1531   
;;;1532                               Write_btype();
;;;1533                               set_sw = set_42;
;;;1534                               break;                        
;;;1535                       }
;;;1536                       case set_46:
;;;1537                       {
;;;1538                               WM_HWIN hItem;
;;;1539   //                            WM_InvalidateWindow(hWinset);
;;;1540                  
;;;1541                               hItem = WM_GetDialogItem(hWinset, ID_TEXT_90);
;;;1542                               TEXT_SetBkColor(hItem,0x00BFFFFF);//ÈÄâÈ°πËÉåÊôØËâ≤ËÆæ‰∏∫Á±≥Ëâ≤
;;;1543                               TEXT_SetTextColor(hItem, GUI_BLACK);
;;;1544                           
;;;1545                               hItem = WM_GetDialogItem(hWinset, ID_TEXT_134);
;;;1546                               if(test_mode == 1)
;;;1547                               {
;;;1548                                   TEXT_SetFont(hItem,&GUI_Fontset_font);//ËÆæÂÆöÊñáÊú¨Â≠ó‰Ωì
;;;1549                                   TEXT_SetText(hItem,"Á≤æÂáÜ");
;;;1550                               }else if(test_mode == 0){
;;;1551                                   TEXT_SetFont(hItem,&GUI_Fontset_font);//ËÆæÂÆöÊñáÊú¨Â≠ó‰Ωì
;;;1552                                   TEXT_SetText(hItem,"Âø´ÈÄü");
;;;1553                               }
;;;1554                           
;;;1555                               switch(buffer)
;;;1556                               {
;;;1557                                   case Lion:
;;;1558                                   {
;;;1559                                       hItem = WM_GetDialogItem(hWinset, ID_TEXT_91);
;;;1560                                       TEXT_SetBkColor(hItem,GUI_INVALID_COLOR);//ÈÄâÈ°πËÉåÊôØËâ≤ËÆæ‰∏∫ÈÄèÊòé
;;;1561                                       TEXT_SetTextColor(hItem, GUI_WHITE);
;;;1562                                       TEXT_SetText(hItem,"ÈîÇÁîµÊ±†");
;;;1563                                       b_type = Lion;
;;;1564                                       break;
;;;1565                                   }
;;;1566                                   case NiMH:
;;;1567                                   {
;;;1568                                       hItem = WM_GetDialogItem(hWinset, ID_TEXT_91);
;;;1569                                       TEXT_SetBkColor(hItem,GUI_INVALID_COLOR);//ÈÄâÈ°πËÉåÊôØËâ≤ËÆæ‰∏∫ÈÄèÊòé
;;;1570                                       TEXT_SetTextColor(hItem, GUI_WHITE);
;;;1571                                       TEXT_SetText(hItem,"ÈïçÊ∞¢ÁîµÊ±†");
;;;1572                                       b_type = NiMH;
;;;1573                                       break;
;;;1574                                   }
;;;1575                                   case NiCd:
;;;1576                                   {
;;;1577                                       hItem = WM_GetDialogItem(hWinset, ID_TEXT_91);
;;;1578                                       TEXT_SetBkColor(hItem,GUI_INVALID_COLOR);//ÈÄâÈ°πËÉåÊôØËâ≤ËÆæ‰∏∫ÈÄèÊòé
;;;1579                                       TEXT_SetTextColor(hItem, GUI_WHITE);
;;;1580                                       TEXT_SetText(hItem,"ÈïçÈïâÁîµÊ±†");
;;;1581                                       b_type = NiCd;
;;;1582                                       break;
;;;1583                                   }
;;;1584                                   case SLA:
;;;1585                                   {
;;;1586                                       hItem = WM_GetDialogItem(hWinset, ID_TEXT_91);
;;;1587                                       TEXT_SetBkColor(hItem,GUI_INVALID_COLOR);//ÈÄâÈ°πËÉåÊôØËâ≤ËÆæ‰∏∫ÈÄèÊòé
;;;1588                                       TEXT_SetTextColor(hItem, GUI_WHITE);
;;;1589                                       TEXT_SetText(hItem,"Â∞èÂûãÈìÖÈÖ∏ÁîµÊ±†");
;;;1590                                       b_type = SLA;
;;;1591                                       break;
;;;1592                                   }
;;;1593                                   case LiMH:
;;;1594                                   {
;;;1595                                       hItem = WM_GetDialogItem(hWinset, ID_TEXT_91);
;;;1596                                       TEXT_SetBkColor(hItem,GUI_INVALID_COLOR);//ÈÄâÈ°πËÉåÊôØËâ≤ËÆæ‰∏∫ÈÄèÊòé
;;;1597                                       TEXT_SetTextColor(hItem, GUI_WHITE);
;;;1598                                       TEXT_SetText(hItem,"ÈîÇÈî∞ÁîµÊ±†");
;;;1599                                       b_type = LiMH;
;;;1600                                       break;
;;;1601                                   }
;;;1602                               }
;;;1603                           
;;;1604                               hItem = WM_GetDialogItem(hWinset, ID_TEXT_92);
;;;1605                               TEXT_SetText(hItem,"");
;;;1606                           
;;;1607                               hItem = WM_GetDialogItem(hWinset, ID_TEXT_93);
;;;1608                               TEXT_SetText(hItem,"");
;;;1609                               
;;;1610                               hItem = WM_GetDialogItem(hWinset, ID_TEXT_94);
;;;1611                               TEXT_SetText(hItem,"");
;;;1612                               TEXT_SetBkColor(hItem,GUI_INVALID_COLOR);//ÈÄâÈ°πËÉåÊôØËâ≤ËÆæ‰∏∫ÈÄèÊòé
;;;1613                               
;;;1614                               hItem = WM_GetDialogItem(hWinset, ID_TEXT_95);
;;;1615                               TEXT_SetText(hItem,"");
;;;1616   
;;;1617                               Write_btype();
;;;1618                               set_sw = set_42;
;;;1619                               break;                        
;;;1620                       }
;;;1621                       case set_47:
;;;1622                       {
;;;1623                               WM_HWIN hItem;
;;;1624   //                            WM_InvalidateWindow(hWinset);
;;;1625                  
;;;1626                               hItem = WM_GetDialogItem(hWinset, ID_TEXT_90);
;;;1627                               TEXT_SetBkColor(hItem,0x00BFFFFF);//ÈÄâÈ°πËÉåÊôØËâ≤ËÆæ‰∏∫Á±≥Ëâ≤
;;;1628                               TEXT_SetTextColor(hItem, GUI_BLACK);
;;;1629                           
;;;1630                               hItem = WM_GetDialogItem(hWinset, ID_TEXT_134);
;;;1631                               if(test_mode == 1)
;;;1632                               {
;;;1633                                   TEXT_SetFont(hItem,&GUI_Fontset_font);//ËÆæÂÆöÊñáÊú¨Â≠ó‰Ωì
;;;1634                                   TEXT_SetText(hItem,"Á≤æÂáÜ");
;;;1635                               }else if(test_mode == 0){
;;;1636                                   TEXT_SetFont(hItem,&GUI_Fontset_font);//ËÆæÂÆöÊñáÊú¨Â≠ó‰Ωì
;;;1637                                   TEXT_SetText(hItem,"Âø´ÈÄü");
;;;1638                               }
;;;1639                           
;;;1640                               switch(buffer)
;;;1641                               {
;;;1642                                   case Lion:
;;;1643                                   {
;;;1644                                       hItem = WM_GetDialogItem(hWinset, ID_TEXT_91);
;;;1645                                       TEXT_SetBkColor(hItem,GUI_INVALID_COLOR);//ÈÄâÈ°πËÉåÊôØËâ≤ËÆæ‰∏∫ÈÄèÊòé
;;;1646                                       TEXT_SetTextColor(hItem, GUI_WHITE);
;;;1647                                       TEXT_SetText(hItem,"ÈîÇÁîµÊ±†");
;;;1648                                       b_type = Lion;
;;;1649                                       break;
;;;1650                                   }
;;;1651                                   case NiMH:
;;;1652                                   {
;;;1653                                       hItem = WM_GetDialogItem(hWinset, ID_TEXT_91);
;;;1654                                       TEXT_SetBkColor(hItem,GUI_INVALID_COLOR);//ÈÄâÈ°πËÉåÊôØËâ≤ËÆæ‰∏∫ÈÄèÊòé
;;;1655                                       TEXT_SetTextColor(hItem, GUI_WHITE);
;;;1656                                       TEXT_SetText(hItem,"ÈïçÊ∞¢ÁîµÊ±†");
;;;1657                                       b_type = NiMH;
;;;1658                                       break;
;;;1659                                   }
;;;1660                                   case NiCd:
;;;1661                                   {
;;;1662                                       hItem = WM_GetDialogItem(hWinset, ID_TEXT_91);
;;;1663                                       TEXT_SetBkColor(hItem,GUI_INVALID_COLOR);//ÈÄâÈ°πËÉåÊôØËâ≤ËÆæ‰∏∫ÈÄèÊòé
;;;1664                                       TEXT_SetTextColor(hItem, GUI_WHITE);
;;;1665                                       TEXT_SetText(hItem,"ÈïçÈïâÁîµÊ±†");
;;;1666                                       b_type = NiCd;
;;;1667                                       break;
;;;1668                                   }
;;;1669                                   case SLA:
;;;1670                                   {
;;;1671                                       hItem = WM_GetDialogItem(hWinset, ID_TEXT_91);
;;;1672                                       TEXT_SetBkColor(hItem,GUI_INVALID_COLOR);//ÈÄâÈ°πËÉåÊôØËâ≤ËÆæ‰∏∫ÈÄèÊòé
;;;1673                                       TEXT_SetTextColor(hItem, GUI_WHITE);
;;;1674                                       TEXT_SetText(hItem,"Â∞èÂûãÈìÖÈÖ∏ÁîµÊ±†");
;;;1675                                       b_type = SLA;
;;;1676                                       break;
;;;1677                                   }
;;;1678                                   case LiMH:
;;;1679                                   {
;;;1680                                       hItem = WM_GetDialogItem(hWinset, ID_TEXT_91);
;;;1681                                       TEXT_SetBkColor(hItem,GUI_INVALID_COLOR);//ÈÄâÈ°πËÉåÊôØËâ≤ËÆæ‰∏∫ÈÄèÊòé
;;;1682                                       TEXT_SetTextColor(hItem, GUI_WHITE);
;;;1683                                       TEXT_SetText(hItem,"ÈîÇÈî∞ÁîµÊ±†");
;;;1684                                       b_type = LiMH;
;;;1685                                       break;
;;;1686                                   }
;;;1687                               }
;;;1688                           
;;;1689                               hItem = WM_GetDialogItem(hWinset, ID_TEXT_92);
;;;1690                               TEXT_SetText(hItem,"");
;;;1691                           
;;;1692                               hItem = WM_GetDialogItem(hWinset, ID_TEXT_93);
;;;1693                               TEXT_SetText(hItem,"");
;;;1694                               
;;;1695                               hItem = WM_GetDialogItem(hWinset, ID_TEXT_94);
;;;1696                               TEXT_SetText(hItem,"");
;;;1697                               
;;;1698                               hItem = WM_GetDialogItem(hWinset, ID_TEXT_95);
;;;1699                               TEXT_SetText(hItem,"");
;;;1700                               TEXT_SetBkColor(hItem,GUI_INVALID_COLOR);//ÈÄâÈ°πËÉåÊôØËâ≤ËÆæ‰∏∫ÈÄèÊòé
;;;1701   
;;;1702                               Write_btype();
;;;1703                               set_sw = set_42;
;;;1704                               break;                        
;;;1705                       }
;;;1706                       
;;;1707                       default:break;
;;;1708   //                    return Beep_Flag;
;;;1709                   }
;;;1710               }
000200  b007              ADD      sp,sp,#0x1c
000202  ecbd8b06          VPOP     {d8-d10}
000206  e8bd8ff0          POP      {r4-r11,pc}
00020a  4e8a              LDR      r6,|L5.1076|
00020c  7830              LDRB     r0,[r6,#0]            ;613  ; dot_flag
00020e  b330              CBZ      r0,|L5.606|
000210  7830              LDRB     r0,[r6,#0]            ;615  ; dot_flag
000212  b1a8              CBZ      r0,|L5.576|
000214  9404              STR      r4,[sp,#0x10]         ;616
000216  9405              STR      r4,[sp,#0x14]         ;616
000218  7832              LDRB     r2,[r6,#0]            ;617  ; dot_flag
00021a  4981              LDR      r1,|L5.1056|
00021c  1c92              ADDS     r2,r2,#2              ;617
00021e  a804              ADD      r0,sp,#0x10           ;617
000220  f7fffffe          BL       strncpy
000224  a804              ADD      r0,sp,#0x10           ;618
000226  f7fffffe          BL       __hardfp_atof
00022a  ed9f1b85          VLDR     d1,|L5.1088|
00022e  ec510b10          VMOV     r0,r1,d0              ;618
000232  ec532b11          VMOV     r2,r3,d1              ;618
000236  f7fffffe          BL       __aeabi_dmul
00023a  f7fffffe          BL       __aeabi_d2uiz
00023e  63a8              STR      r0,[r5,#0x38]         ;618  ; Run_Control
                  |L5.576|
000240  6ba9              LDR      r1,[r5,#0x38]         ;620  ; Run_Control
000242  f2417070          MOV      r0,#0x1770            ;620
000246  e00b              B        |L5.608|
                  |L5.584|
000248  e3fd              B        |L5.2630|
00024a  e3fd              B        |L5.2632|
00024c  e364              B        |L5.2328|
00024e  e2d5              B        |L5.2044|
000250  e258              B        |L5.1796|
000252  e04a              B        |L5.746|
000254  e3f9              B        |L5.2634|
000256  e331              B        |L5.2236|
000258  e2a2              B        |L5.1952|
00025a  e225              B        |L5.1704|
00025c  e014              B        |L5.648|
                  |L5.606|
00025e  e00c              B        |L5.634|
                  |L5.608|
000260  4281              CMP      r1,r0                 ;620
000262  d900              BLS      |L5.614|
000264  63a8              STR      r0,[r5,#0x38]         ;622  ; Run_Control
                  |L5.614|
000266  f8c94000          STR      r4,[r9,#0]            ;624  ; set_limit
00026a  f8894004          STRB     r4,[r9,#4]            ;624
00026e  f7fffffe          BL       Write_Limits
000272  f8887000          STRB     r7,[r8,#0]            ;626
000276  7034              STRB     r4,[r6,#0]            ;627
                  |L5.632|
000278  e7c2              B        |L5.512|
                  |L5.634|
00027a  4869              LDR      r0,|L5.1056|
00027c  f7fffffe          BL       atoi
000280  2164              MOVS     r1,#0x64              ;614
000282  4348              MULS     r0,r1,r0              ;614
000284  63a8              STR      r0,[r5,#0x38]         ;614  ; Run_Control
000286  e7db              B        |L5.576|
                  |L5.648|
000288  4e6a              LDR      r6,|L5.1076|
00028a  7830              LDRB     r0,[r6,#0]            ;632  ; dot_flag
00028c  b328              CBZ      r0,|L5.730|
00028e  7830              LDRB     r0,[r6,#0]            ;634  ; dot_flag
000290  b198              CBZ      r0,|L5.698|
000292  9404              STR      r4,[sp,#0x10]         ;635
000294  9405              STR      r4,[sp,#0x14]         ;635
000296  7832              LDRB     r2,[r6,#0]            ;636  ; dot_flag
000298  4961              LDR      r1,|L5.1056|
00029a  1c92              ADDS     r2,r2,#2              ;636
00029c  a804              ADD      r0,sp,#0x10           ;636
00029e  f7fffffe          BL       strncpy
0002a2  a804              ADD      r0,sp,#0x10           ;637
0002a4  f7fffffe          BL       __hardfp_atof
0002a8  ec532b18          VMOV     r2,r3,d8              ;637
0002ac  ec510b10          VMOV     r0,r1,d0              ;637
0002b0  f7fffffe          BL       __aeabi_dmul
0002b4  f7fffffe          BL       __aeabi_d2uiz
0002b8  64a8              STR      r0,[r5,#0x48]         ;637  ; Run_Control
                  |L5.698|
0002ba  6ca9              LDR      r1,[r5,#0x48]         ;639  ; Run_Control
0002bc  f2413088          MOV      r0,#0x1388            ;639
0002c0  4281              CMP      r1,r0                 ;639
0002c2  d900              BLS      |L5.710|
0002c4  64a8              STR      r0,[r5,#0x48]         ;641  ; Run_Control
                  |L5.710|
0002c6  f8c94000          STR      r4,[r9,#0]            ;643  ; set_limit
0002ca  f8894004          STRB     r4,[r9,#4]            ;643
0002ce  f7fffffe          BL       Write_Limits
0002d2  f8887000          STRB     r7,[r8,#0]            ;645
0002d6  7034              STRB     r4,[r6,#0]            ;646
0002d8  e792              B        |L5.512|
                  |L5.730|
0002da  4851              LDR      r0,|L5.1056|
0002dc  f7fffffe          BL       atoi
0002e0  f44f717a          MOV      r1,#0x3e8             ;633
0002e4  4348              MULS     r0,r1,r0              ;633
0002e6  64a8              STR      r0,[r5,#0x48]         ;633  ; Run_Control
0002e8  e7e7              B        |L5.698|
                  |L5.746|
0002ea  f44f6106          MOV      r1,#0x860             ;654
0002ee  4610              MOV      r0,r2                 ;654
0002f0  f7fffffe          BL       WM_GetDialogItem
0002f4  9001              STR      r0,[sp,#4]            ;654
0002f6  f06f4170          MVN      r1,#0xf0000000        ;655
0002fa  9801              LDR      r0,[sp,#4]            ;655
0002fc  f7fffffe          BL       TEXT_SetBkColor
000300  f06f417f          MVN      r1,#0xff000000        ;656
000304  9801              LDR      r0,[sp,#4]            ;656
000306  f7fffffe          BL       TEXT_SetTextColor
00030a  f8dfa128          LDR      r10,|L5.1076|
00030e  f89a0000          LDRB     r0,[r10,#0]           ;662  ; dot_flag
000312  2800              CMP      r0,#0                 ;662
000314  d072              BEQ      |L5.1020|
000316  f89a0000          LDRB     r0,[r10,#0]           ;664  ; dot_flag
00031a  b1a0              CBZ      r0,|L5.838|
00031c  9404              STR      r4,[sp,#0x10]         ;665
00031e  9405              STR      r4,[sp,#0x14]         ;665
000320  f89a2000          LDRB     r2,[r10,#0]           ;666  ; dot_flag
000324  493e              LDR      r1,|L5.1056|
000326  1c92              ADDS     r2,r2,#2              ;666
000328  a804              ADD      r0,sp,#0x10           ;666
00032a  f7fffffe          BL       strncpy
00032e  a804              ADD      r0,sp,#0x10           ;667
000330  f7fffffe          BL       __hardfp_atof
000334  ec532b18          VMOV     r2,r3,d8              ;667
000338  ec510b10          VMOV     r0,r1,d0              ;667
00033c  f7fffffe          BL       __aeabi_dmul
000340  f7fffffe          BL       __aeabi_d2uiz
000344  63e8              STR      r0,[r5,#0x3c]         ;667  ; Run_Control
                  |L5.838|
000346  6be9              LDR      r1,[r5,#0x3c]         ;669  ; Run_Control
000348  f24f2030          MOV      r0,#0xf230            ;669
00034c  4281              CMP      r1,r0                 ;669
00034e  d900              BLS      |L5.850|
000350  63e8              STR      r0,[r5,#0x3c]         ;671  ; Run_Control
                  |L5.850|
000352  6be8              LDR      r0,[r5,#0x3c]         ;673  ; Run_Control
000354  eddf0a2b          VLDR     s1,|L5.1028|
000358  ee000a10          VMOV     s0,r0                 ;673
00035c  eeb80a40          VCVT.F32.U32 s0,s0                 ;673
000360  ee808a20          VDIV.F32 s16,s0,s1             ;673
000364  ee190a90          VMOV     r0,s19                ;674
000368  f7fffffe          BL       __aeabi_f2d
00036c  ec410b10          VMOV     d0,r0,r1              ;674
000370  a12e              ADR      r1,|L5.1068|
000372  ec532b10          VMOV     r2,r3,d0              ;674
000376  a804              ADD      r0,sp,#0x10           ;674
000378  f7fffffe          BL       __2sprintf
00037c  a904              ADD      r1,sp,#0x10           ;675
00037e  9801              LDR      r0,[sp,#4]            ;675
000380  f7fffffe          BL       TEXT_SetText
000384  4d24              LDR      r5,|L5.1048|
000386  f6400161          MOV      r1,#0x861             ;677
00038a  6868              LDR      r0,[r5,#4]            ;677  ; hWinset
00038c  f7fffffe          BL       WM_GetDialogItem
000390  4683              MOV      r11,r0                ;677
000392  f06f4170          MVN      r1,#0xf0000000        ;678
000396  4658              MOV      r0,r11                ;678
000398  f7fffffe          BL       TEXT_SetBkColor
00039c  f06f417f          MVN      r1,#0xff000000        ;679
0003a0  4658              MOV      r0,r11                ;679
0003a2  f7fffffe          BL       TEXT_SetTextColor
0003a6  ee180a10          VMOV     r0,s16                ;681
0003aa  f7fffffe          BL       __aeabi_f2d
0003ae  ec410b10          VMOV     d0,r0,r1              ;681
0003b2  a11e              ADR      r1,|L5.1068|
0003b4  ec532b10          VMOV     r2,r3,d0              ;681
0003b8  a804              ADD      r0,sp,#0x10           ;681
0003ba  f7fffffe          BL       __2sprintf
0003be  a904              ADD      r1,sp,#0x10           ;682
0003c0  4658              MOV      r0,r11                ;682
0003c2  f7fffffe          BL       TEXT_SetText
0003c6  f640012e          MOV      r1,#0x82e             ;685
0003ca  6868              LDR      r0,[r5,#4]            ;685  ; hWinset
0003cc  f7fffffe          BL       WM_GetDialogItem
0003d0  4605              MOV      r5,r0                 ;685
0003d2  4919              LDR      r1,|L5.1080|
0003d4  4628              MOV      r0,r5                 ;686
0003d6  f7fffffe          BL       TEXT_SetBkColor
0003da  2100              MOVS     r1,#0                 ;687
0003dc  4628              MOV      r0,r5                 ;687
0003de  f7fffffe          BL       TEXT_SetTextColor
0003e2  f7fffffe          BL       Write_Limits
0003e6  2003              MOVS     r0,#3                 ;690
0003e8  7030              STRB     r0,[r6,#0]            ;690
0003ea  f8887000          STRB     r7,[r8,#0]            ;691
0003ee  f88a4000          STRB     r4,[r10,#0]           ;692
0003f2  f8c94000          STR      r4,[r9,#0]            ;693  ; set_limit
0003f6  f8894004          STRB     r4,[r9,#4]            ;693
                  |L5.1018|
0003fa  e701              B        |L5.512|
                  |L5.1020|
0003fc  e024              B        |L5.1096|
0003fe  0000              DCW      0x0000
                  |L5.1024|
                          DCD      Run_Control
                  |L5.1028|
000404  447a0000          DCFS     0x447a0000 ; 1000
                  |L5.1032|
                          DCD      set_sw
                  |L5.1036|
                          DCD      bit
                  |L5.1040|
000410  00000000          DCFD     0x408f400000000000 ; 1000
000414  408f4000
                  |L5.1048|
                          DCD      ||.data||
                  |L5.1052|
                          DCD      b_type
                  |L5.1056|
                          DCD      set_limit
                  |L5.1060|
                          DCD      buffer
                  |L5.1064|
                          DCD      ||.bss||
                  |L5.1068|
00042c  252e3366          DCB      "%.3f"
                  |L5.1072|
000430  00                DCB      0
000431  00                DCB      0
000432  00                DCB      0
000433  00                DCB      0
                  |L5.1076|
                          DCD      dot_flag
                  |L5.1080|
                          DCD      0x00bfffff
                  |L5.1084|
                          DCD      0x080e0000
                  |L5.1088|
000440  00000000          DCFD     0x4059000000000000 ; 100
000444  40590000
                  |L5.1096|
000448  48fe              LDR      r0,|L5.2116|
00044a  f7fffffe          BL       atoi
00044e  f44f717a          MOV      r1,#0x3e8             ;663
000452  4348              MULS     r0,r1,r0              ;663
000454  63e8              STR      r0,[r5,#0x3c]         ;663  ; Run_Control
000456  e776              B        |L5.838|
                  |L5.1112|
000458  4619              MOV      r1,r3                 ;702
00045a  4610              MOV      r0,r2                 ;702
00045c  f7fffffe          BL       WM_GetDialogItem
000460  9001              STR      r0,[sp,#4]            ;702
000462  f06f4170          MVN      r1,#0xf0000000        ;703
000466  9801              LDR      r0,[sp,#4]            ;703
000468  f7fffffe          BL       TEXT_SetBkColor
00046c  f06f417f          MVN      r1,#0xff000000        ;704
000470  9801              LDR      r0,[sp,#4]            ;704
000472  f7fffffe          BL       TEXT_SetTextColor
000476  f8df93d0          LDR      r9,|L5.2120|
00047a  f8990000          LDRB     r0,[r9,#0]            ;705  ; dot_flag
00047e  2800              CMP      r0,#0                 ;705
000480  d076              BEQ      |L5.1392|
000482  f8990000          LDRB     r0,[r9,#0]            ;707  ; dot_flag
000486  b1a0              CBZ      r0,|L5.1202|
000488  9404              STR      r4,[sp,#0x10]         ;708
00048a  9405              STR      r4,[sp,#0x14]         ;708
00048c  f8992000          LDRB     r2,[r9,#0]            ;709  ; dot_flag
000490  49ec              LDR      r1,|L5.2116|
000492  1cd2              ADDS     r2,r2,#3              ;709
000494  a804              ADD      r0,sp,#0x10           ;709
000496  f7fffffe          BL       strncpy
00049a  a804              ADD      r0,sp,#0x10           ;710
00049c  f7fffffe          BL       __hardfp_atof
0004a0  ec532b18          VMOV     r2,r3,d8              ;710
0004a4  ec510b10          VMOV     r0,r1,d0              ;710
0004a8  f7fffffe          BL       __aeabi_dmul
0004ac  f7fffffe          BL       __aeabi_d2iz
0004b0  6028              STR      r0,[r5,#0]            ;710  ; InFlashSave
                  |L5.1202|
0004b2  ed950a00          VLDR     s0,[r5,#0]            ;712
0004b6  ed1f8a2d          VLDR     s16,|L5.1028|
0004ba  eef80ac0          VCVT.F32.S32 s1,s0                 ;712
0004be  ee800a88          VDIV.F32 s0,s1,s16             ;712
0004c2  ee100a10          VMOV     r0,s0                 ;712
0004c6  f7fffffe          BL       __aeabi_f2d
0004ca  ec410b10          VMOV     d0,r0,r1              ;712
0004ce  ec532b10          VMOV     r2,r3,d0              ;712
0004d2  f2af01a8          ADR      r1,|L5.1068|
0004d6  a804              ADD      r0,sp,#0x10           ;712
0004d8  f7fffffe          BL       __2sprintf
0004dc  a904              ADD      r1,sp,#0x10           ;713
0004de  9801              LDR      r0,[sp,#4]            ;713
0004e0  f7fffffe          BL       TEXT_SetText
0004e4  f8dfa364          LDR      r10,|L5.2124|
0004e8  f6401136          MOV      r1,#0x936             ;715
0004ec  f8da0004          LDR      r0,[r10,#4]           ;715  ; hWinset
0004f0  f7fffffe          BL       WM_GetDialogItem
0004f4  4683              MOV      r11,r0                ;715
0004f6  f06f4170          MVN      r1,#0xf0000000        ;716
0004fa  4658              MOV      r0,r11                ;716
0004fc  f7fffffe          BL       TEXT_SetBkColor
000500  f06f417f          MVN      r1,#0xff000000        ;717
000504  4658              MOV      r0,r11                ;717
000506  f7fffffe          BL       TEXT_SetTextColor
00050a  ed950a01          VLDR     s0,[r5,#4]            ;719
00050e  eef80ac0          VCVT.F32.S32 s1,s0                 ;719
000512  ee800a88          VDIV.F32 s0,s1,s16             ;719
000516  ee100a10          VMOV     r0,s0                 ;719
00051a  f7fffffe          BL       __aeabi_f2d
00051e  ec410b10          VMOV     d0,r0,r1              ;719
000522  ec532b10          VMOV     r2,r3,d0              ;719
000526  f2af01fc          ADR      r1,|L5.1068|
00052a  a804              ADD      r0,sp,#0x10           ;719
00052c  f7fffffe          BL       __2sprintf
000530  a904              ADD      r1,sp,#0x10           ;720
000532  4658              MOV      r0,r11                ;720
000534  f7fffffe          BL       TEXT_SetText
000538  f640012f          MOV      r1,#0x82f             ;722
00053c  f8da0004          LDR      r0,[r10,#4]           ;722  ; hWinset
000540  f7fffffe          BL       WM_GetDialogItem
000544  4605              MOV      r5,r0                 ;722
000546  49c2              LDR      r1,|L5.2128|
000548  4628              MOV      r0,r5                 ;723
00054a  f7fffffe          BL       TEXT_SetBkColor
00054e  2100              MOVS     r1,#0                 ;724
000550  4628              MOV      r0,r5                 ;724
000552  f7fffffe          BL       TEXT_SetTextColor
000556  4abf              LDR      r2,|L5.2132|
000558  2128              MOVS     r1,#0x28              ;725
00055a  48bf              LDR      r0,|L5.2136|
00055c  f7fffffe          BL       Flash_Write32BitDatas
000560  2004              MOVS     r0,#4                 ;726
000562  7030              STRB     r0,[r6,#0]            ;726
000564  f8887000          STRB     r7,[r8,#0]            ;727
000568  f8894000          STRB     r4,[r9,#0]            ;728
                  |L5.1388|
00056c  e648              B        |L5.512|
00056e  e7ff              B        |L5.1392|
                  |L5.1392|
000570  48b4              LDR      r0,|L5.2116|
000572  f7fffffe          BL       atoi
000576  f44f717a          MOV      r1,#0x3e8             ;706
00057a  4348              MULS     r0,r1,r0              ;706
00057c  6028              STR      r0,[r5,#0]            ;706  ; InFlashSave
00057e  e798              B        |L5.1202|
                  |L5.1408|
000580  4619              MOV      r1,r3                 ;736
000582  4610              MOV      r0,r2                 ;736
000584  f7fffffe          BL       WM_GetDialogItem
000588  9001              STR      r0,[sp,#4]            ;736
00058a  f06f4170          MVN      r1,#0xf0000000        ;737
00058e  9801              LDR      r0,[sp,#4]            ;737
000590  f7fffffe          BL       TEXT_SetBkColor
000594  f06f417f          MVN      r1,#0xff000000        ;738
000598  9801              LDR      r0,[sp,#4]            ;738
00059a  f7fffffe          BL       TEXT_SetTextColor
00059e  f8df92a8          LDR      r9,|L5.2120|
0005a2  f8990000          LDRB     r0,[r9,#0]            ;739  ; dot_flag
0005a6  2800              CMP      r0,#0                 ;739
0005a8  d076              BEQ      |L5.1688|
0005aa  f8990000          LDRB     r0,[r9,#0]            ;741  ; dot_flag
0005ae  b1a0              CBZ      r0,|L5.1498|
0005b0  9404              STR      r4,[sp,#0x10]         ;742
0005b2  9405              STR      r4,[sp,#0x14]         ;742
0005b4  f8992000          LDRB     r2,[r9,#0]            ;743  ; dot_flag
0005b8  49a2              LDR      r1,|L5.2116|
0005ba  1cd2              ADDS     r2,r2,#3              ;743
0005bc  a804              ADD      r0,sp,#0x10           ;743
0005be  f7fffffe          BL       strncpy
0005c2  a804              ADD      r0,sp,#0x10           ;744
0005c4  f7fffffe          BL       __hardfp_atof
0005c8  ec532b18          VMOV     r2,r3,d8              ;744
0005cc  ec510b10          VMOV     r0,r1,d0              ;744
0005d0  f7fffffe          BL       __aeabi_dmul
0005d4  f7fffffe          BL       __aeabi_d2iz
0005d8  6068              STR      r0,[r5,#4]            ;744  ; InFlashSave
                  |L5.1498|
0005da  ed950a00          VLDR     s0,[r5,#0]            ;746
0005de  eef80ac0          VCVT.F32.S32 s1,s0                 ;746
0005e2  ed1f8a78          VLDR     s16,|L5.1028|
0005e6  ee800a88          VDIV.F32 s0,s1,s16             ;746
0005ea  ee100a10          VMOV     r0,s0                 ;746
0005ee  f7fffffe          BL       __aeabi_f2d
0005f2  ec410b10          VMOV     d0,r0,r1              ;746
0005f6  ec532b10          VMOV     r2,r3,d0              ;746
0005fa  f2af11d0          ADR      r1,|L5.1068|
0005fe  a804              ADD      r0,sp,#0x10           ;746
000600  f7fffffe          BL       __2sprintf
000604  a904              ADD      r1,sp,#0x10           ;747
000606  9801              LDR      r0,[sp,#4]            ;747
000608  f7fffffe          BL       TEXT_SetText
00060c  f8dfa23c          LDR      r10,|L5.2124|
000610  f6401136          MOV      r1,#0x936             ;749
000614  f8da0004          LDR      r0,[r10,#4]           ;749  ; hWinset
000618  f7fffffe          BL       WM_GetDialogItem
00061c  4683              MOV      r11,r0                ;749
00061e  f06f4170          MVN      r1,#0xf0000000        ;750
000622  4658              MOV      r0,r11                ;750
000624  f7fffffe          BL       TEXT_SetBkColor
000628  f06f417f          MVN      r1,#0xff000000        ;751
00062c  4658              MOV      r0,r11                ;751
00062e  f7fffffe          BL       TEXT_SetTextColor
000632  ed950a01          VLDR     s0,[r5,#4]            ;753
000636  eef80ac0          VCVT.F32.S32 s1,s0                 ;753
00063a  ee800a88          VDIV.F32 s0,s1,s16             ;753
00063e  ee100a10          VMOV     r0,s0                 ;753
000642  f7fffffe          BL       __aeabi_f2d
000646  ec410b10          VMOV     d0,r0,r1              ;753
00064a  ec532b10          VMOV     r2,r3,d0              ;753
00064e  f2af2124          ADR      r1,|L5.1068|
000652  a804              ADD      r0,sp,#0x10           ;753
000654  f7fffffe          BL       __2sprintf
000658  a904              ADD      r1,sp,#0x10           ;754
00065a  4658              MOV      r0,r11                ;754
00065c  f7fffffe          BL       TEXT_SetText
000660  f640012f          MOV      r1,#0x82f             ;757
000664  f8da0004          LDR      r0,[r10,#4]           ;757  ; hWinset
000668  f7fffffe          BL       WM_GetDialogItem
00066c  4605              MOV      r5,r0                 ;757
00066e  4978              LDR      r1,|L5.2128|
000670  4628              MOV      r0,r5                 ;758
000672  f7fffffe          BL       TEXT_SetBkColor
000676  2100              MOVS     r1,#0                 ;759
000678  4628              MOV      r0,r5                 ;759
00067a  f7fffffe          BL       TEXT_SetTextColor
00067e  4a75              LDR      r2,|L5.2132|
000680  2128              MOVS     r1,#0x28              ;761
000682  4875              LDR      r0,|L5.2136|
000684  f7fffffe          BL       Flash_Write32BitDatas
000688  2004              MOVS     r0,#4                 ;762
00068a  7030              STRB     r0,[r6,#0]            ;762
00068c  f8887000          STRB     r7,[r8,#0]            ;763
000690  f8894000          STRB     r4,[r9,#0]            ;764
                  |L5.1684|
000694  e5b4              B        |L5.512|
000696  e7ff              B        |L5.1688|
                  |L5.1688|
000698  486a              LDR      r0,|L5.2116|
00069a  f7fffffe          BL       atoi
00069e  f44f717a          MOV      r1,#0x3e8             ;740
0006a2  4348              MULS     r0,r1,r0              ;740
0006a4  6068              STR      r0,[r5,#4]            ;740  ; InFlashSave
0006a6  e798              B        |L5.1498|
                  |L5.1704|
0006a8  4605              MOV      r5,r0                 ;773
0006aa  f44f6103          MOV      r1,#0x830             ;773
0006ae  4610              MOV      r0,r2                 ;773
0006b0  f7fffffe          BL       WM_GetDialogItem
0006b4  4607              MOV      r7,r0                 ;773
0006b6  4659              MOV      r1,r11                ;774
0006b8  4638              MOV      r0,r7                 ;774
0006ba  f7fffffe          BL       TEXT_SetBkColor
0006be  4651              MOV      r1,r10                ;775
0006c0  4638              MOV      r0,r7                 ;775
0006c2  f7fffffe          BL       TEXT_SetTextColor
0006c6  f6400162          MOV      r1,#0x862             ;777
0006ca  6868              LDR      r0,[r5,#4]            ;777  ; hWinset
0006cc  f7fffffe          BL       WM_GetDialogItem
0006d0  4605              MOV      r5,r0                 ;777
0006d2  495f              LDR      r1,|L5.2128|
0006d4  4628              MOV      r0,r5                 ;778
0006d6  f7fffffe          BL       TEXT_SetBkColor
0006da  2100              MOVS     r1,#0                 ;779
0006dc  4628              MOV      r0,r5                 ;779
0006de  f7fffffe          BL       TEXT_SetTextColor
0006e2  9406              STR      r4,[sp,#0x18]         ;781
0006e4  e007              B        |L5.1782|
                  |L5.1766|
0006e6  f89d0018          LDRB     r0,[sp,#0x18]         ;782
0006ea  f8094000          STRB     r4,[r9,r0]            ;782
0006ee  f89d0018          LDRB     r0,[sp,#0x18]         ;781
0006f2  1c40              ADDS     r0,r0,#1              ;781
0006f4  9006              STR      r0,[sp,#0x18]         ;781
                  |L5.1782|
0006f6  f89d0018          LDRB     r0,[sp,#0x18]         ;781
0006fa  2806              CMP      r0,#6                 ;781
0006fc  d3f3              BCC      |L5.1766|
0006fe  200d              MOVS     r0,#0xd               ;784
000700  7030              STRB     r0,[r6,#0]            ;784
000702  e57d              B        |L5.512|
                  |L5.1796|
000704  4681              MOV      r9,r0                 ;791
000706  f6400162          MOV      r1,#0x862             ;791
00070a  4610              MOV      r0,r2                 ;791
00070c  f7fffffe          BL       WM_GetDialogItem
000710  9001              STR      r0,[sp,#4]            ;791
000712  4659              MOV      r1,r11                ;792
000714  9801              LDR      r0,[sp,#4]            ;792
000716  f7fffffe          BL       TEXT_SetBkColor
00071a  4651              MOV      r1,r10                ;793
00071c  9801              LDR      r0,[sp,#4]            ;793
00071e  f7fffffe          BL       TEXT_SetTextColor
000722  f8dfa124          LDR      r10,|L5.2120|
000726  f89a0000          LDRB     r0,[r10,#0]           ;794  ; dot_flag
00072a  b398              CBZ      r0,|L5.1940|
00072c  f89a0000          LDRB     r0,[r10,#0]           ;796  ; dot_flag
000730  b178              CBZ      r0,|L5.1874|
000732  9404              STR      r4,[sp,#0x10]         ;797
000734  9405              STR      r4,[sp,#0x14]         ;797
000736  f89a2000          LDRB     r2,[r10,#0]           ;798  ; dot_flag
00073a  4942              LDR      r1,|L5.2116|
00073c  a804              ADD      r0,sp,#0x10           ;798
00073e  f7fffffe          BL       strncpy
000742  a804              ADD      r0,sp,#0x10           ;799
000744  f7fffffe          BL       __hardfp_atof
000748  ec510b10          VMOV     r0,r1,d0              ;799
00074c  f7fffffe          BL       __aeabi_d2uiz
000750  6428              STR      r0,[r5,#0x40]         ;799  ; Run_Control
                  |L5.1874|
000752  6c2a              LDR      r2,[r5,#0x40]         ;801  ; Run_Control
000754  a141              ADR      r1,|L5.2140|
000756  a804              ADD      r0,sp,#0x10           ;801
000758  f7fffffe          BL       __2sprintf
00075c  a904              ADD      r1,sp,#0x10           ;802
00075e  9801              LDR      r0,[sp,#4]            ;802
000760  f7fffffe          BL       TEXT_SetText
000764  f44f6103          MOV      r1,#0x830             ;804
000768  f8d90004          LDR      r0,[r9,#4]            ;804  ; hWinset
00076c  f7fffffe          BL       WM_GetDialogItem
000770  4605              MOV      r5,r0                 ;804
000772  4937              LDR      r1,|L5.2128|
000774  4628              MOV      r0,r5                 ;805
000776  f7fffffe          BL       TEXT_SetBkColor
00077a  2100              MOVS     r1,#0                 ;806
00077c  4628              MOV      r0,r5                 ;806
00077e  f7fffffe          BL       TEXT_SetTextColor
000782  f7fffffe          BL       Write_Limits
000786  2005              MOVS     r0,#5                 ;809
000788  7030              STRB     r0,[r6,#0]            ;809
00078a  f8887000          STRB     r7,[r8,#0]            ;810
00078e  f88a4000          STRB     r4,[r10,#0]           ;811
000792  e535              B        |L5.512|
                  |L5.1940|
000794  e7ff              B        |L5.1942|
                  |L5.1942|
000796  482b              LDR      r0,|L5.2116|
000798  f7fffffe          BL       atoi
00079c  6428              STR      r0,[r5,#0x40]         ;795  ; Run_Control
00079e  e7d8              B        |L5.1874|
                  |L5.1952|
0007a0  4605              MOV      r5,r0                 ;818
0007a2  f6400131          MOV      r1,#0x831             ;818
0007a6  4610              MOV      r0,r2                 ;818
0007a8  f7fffffe          BL       WM_GetDialogItem
0007ac  4607              MOV      r7,r0                 ;818
0007ae  4659              MOV      r1,r11                ;819
0007b0  4638              MOV      r0,r7                 ;819
0007b2  f7fffffe          BL       TEXT_SetBkColor
0007b6  4651              MOV      r1,r10                ;820
0007b8  4638              MOV      r0,r7                 ;820
0007ba  f7fffffe          BL       TEXT_SetTextColor
0007be  f6400163          MOV      r1,#0x863             ;822
0007c2  6868              LDR      r0,[r5,#4]            ;822  ; hWinset
0007c4  f7fffffe          BL       WM_GetDialogItem
0007c8  4605              MOV      r5,r0                 ;822
0007ca  4921              LDR      r1,|L5.2128|
0007cc  4628              MOV      r0,r5                 ;823
0007ce  f7fffffe          BL       TEXT_SetBkColor
0007d2  2100              MOVS     r1,#0                 ;824
0007d4  4628              MOV      r0,r5                 ;824
0007d6  f7fffffe          BL       TEXT_SetTextColor
0007da  9406              STR      r4,[sp,#0x18]         ;826
0007dc  e007              B        |L5.2030|
                  |L5.2014|
0007de  f89d0018          LDRB     r0,[sp,#0x18]         ;827
0007e2  f8094000          STRB     r4,[r9,r0]            ;827
0007e6  f89d0018          LDRB     r0,[sp,#0x18]         ;826
0007ea  1c40              ADDS     r0,r0,#1              ;826
0007ec  9006              STR      r0,[sp,#0x18]         ;826
                  |L5.2030|
0007ee  f89d0018          LDRB     r0,[sp,#0x18]         ;826
0007f2  2806              CMP      r0,#6                 ;826
0007f4  d3f3              BCC      |L5.2014|
0007f6  200e              MOVS     r0,#0xe               ;829
0007f8  7030              STRB     r0,[r6,#0]            ;829
0007fa  e501              B        |L5.512|
                  |L5.2044|
0007fc  4681              MOV      r9,r0                 ;836
0007fe  f6400163          MOV      r1,#0x863             ;836
000802  4610              MOV      r0,r2                 ;836
000804  f7fffffe          BL       WM_GetDialogItem
000808  9001              STR      r0,[sp,#4]            ;836
00080a  4659              MOV      r1,r11                ;837
00080c  9801              LDR      r0,[sp,#4]            ;837
00080e  f7fffffe          BL       TEXT_SetBkColor
000812  4651              MOV      r1,r10                ;838
000814  9801              LDR      r0,[sp,#4]            ;838
000816  f7fffffe          BL       TEXT_SetTextColor
00081a  f8dfa02c          LDR      r10,|L5.2120|
00081e  f89a0000          LDRB     r0,[r10,#0]           ;839  ; dot_flag
000822  b3e0              CBZ      r0,|L5.2206|
000824  f89a0000          LDRB     r0,[r10,#0]           ;841  ; dot_flag
000828  b1f8              CBZ      r0,|L5.2154|
00082a  9404              STR      r4,[sp,#0x10]         ;842
00082c  9405              STR      r4,[sp,#0x14]         ;842
00082e  f89a2000          LDRB     r2,[r10,#0]           ;843  ; dot_flag
000832  4904              LDR      r1,|L5.2116|
000834  a804              ADD      r0,sp,#0x10           ;843
000836  f7fffffe          BL       strncpy
00083a  a804              ADD      r0,sp,#0x10           ;844
00083c  f7fffffe          BL       __hardfp_atof
000840  e00e              B        |L5.2144|
000842  0000              DCW      0x0000
                  |L5.2116|
                          DCD      set_limit
                  |L5.2120|
                          DCD      dot_flag
                  |L5.2124|
                          DCD      ||.data||
                  |L5.2128|
                          DCD      0x00bfffff
                  |L5.2132|
                          DCD      ||.bss||
                  |L5.2136|
                          DCD      0x080e0000
                  |L5.2140|
00085c  25346400          DCB      "%4d",0
                  |L5.2144|
000860  ec510b10          VMOV     r0,r1,d0              ;844
000864  f7fffffe          BL       __aeabi_d2uiz
000868  6468              STR      r0,[r5,#0x44]         ;844  ; Run_Control
                  |L5.2154|
00086a  6c6a              LDR      r2,[r5,#0x44]         ;846  ; Run_Control
00086c  f2af0114          ADR      r1,|L5.2140|
000870  a804              ADD      r0,sp,#0x10           ;846
000872  f7fffffe          BL       __2sprintf
000876  a904              ADD      r1,sp,#0x10           ;847
000878  9801              LDR      r0,[sp,#4]            ;847
00087a  f7fffffe          BL       TEXT_SetText
00087e  f6400131          MOV      r1,#0x831             ;849
000882  f8d90004          LDR      r0,[r9,#4]            ;849  ; hWinset
000886  f7fffffe          BL       WM_GetDialogItem
00088a  4605              MOV      r5,r0                 ;849
00088c  49fd              LDR      r1,|L5.3204|
00088e  4628              MOV      r0,r5                 ;850
000890  f7fffffe          BL       TEXT_SetBkColor
000894  2100              MOVS     r1,#0                 ;851
000896  4628              MOV      r0,r5                 ;851
000898  f7fffffe          BL       TEXT_SetTextColor
00089c  e000              B        |L5.2208|
                  |L5.2206|
00089e  e008              B        |L5.2226|
                  |L5.2208|
0008a0  f7fffffe          BL       Write_Limits
0008a4  2006              MOVS     r0,#6                 ;854
0008a6  7030              STRB     r0,[r6,#0]            ;854
0008a8  f8887000          STRB     r7,[r8,#0]            ;855
0008ac  f88a4000          STRB     r4,[r10,#0]           ;856
0008b0  e4a6              B        |L5.512|
                  |L5.2226|
0008b2  48f5              LDR      r0,|L5.3208|
0008b4  f7fffffe          BL       atoi
0008b8  6468              STR      r0,[r5,#0x44]         ;840  ; Run_Control
0008ba  e7d6              B        |L5.2154|
                  |L5.2236|
0008bc  4605              MOV      r5,r0                 ;863
0008be  f640013b          MOV      r1,#0x83b             ;863
0008c2  4610              MOV      r0,r2                 ;863
0008c4  f7fffffe          BL       WM_GetDialogItem
0008c8  4607              MOV      r7,r0                 ;863
0008ca  4659              MOV      r1,r11                ;864
0008cc  4638              MOV      r0,r7                 ;864
0008ce  f7fffffe          BL       TEXT_SetBkColor
0008d2  4651              MOV      r1,r10                ;865
0008d4  4638              MOV      r0,r7                 ;865
0008d6  f7fffffe          BL       TEXT_SetTextColor
0008da  f6400164          MOV      r1,#0x864             ;867
0008de  6868              LDR      r0,[r5,#4]            ;867  ; hWinset
0008e0  f7fffffe          BL       WM_GetDialogItem
0008e4  4605              MOV      r5,r0                 ;867
0008e6  49e7              LDR      r1,|L5.3204|
0008e8  4628              MOV      r0,r5                 ;868
0008ea  f7fffffe          BL       TEXT_SetBkColor
0008ee  2100              MOVS     r1,#0                 ;869
0008f0  4628              MOV      r0,r5                 ;869
0008f2  f7fffffe          BL       TEXT_SetTextColor
0008f6  9406              STR      r4,[sp,#0x18]         ;871
0008f8  e007              B        |L5.2314|
                  |L5.2298|
0008fa  f89d0018          LDRB     r0,[sp,#0x18]         ;872
0008fe  f8094000          STRB     r4,[r9,r0]            ;872
000902  f89d0018          LDRB     r0,[sp,#0x18]         ;871
000906  1c40              ADDS     r0,r0,#1              ;871
000908  9006              STR      r0,[sp,#0x18]         ;871
                  |L5.2314|
00090a  f89d0018          LDRB     r0,[sp,#0x18]         ;871
00090e  2806              CMP      r0,#6                 ;871
000910  d3f3              BCC      |L5.2298|
000912  200f              MOVS     r0,#0xf               ;874
000914  7030              STRB     r0,[r6,#0]            ;874
000916  e473              B        |L5.512|
                  |L5.2328|
000918  f6400164          MOV      r1,#0x864             ;881
00091c  4610              MOV      r0,r2                 ;881
00091e  f7fffffe          BL       WM_GetDialogItem
000922  9001              STR      r0,[sp,#4]            ;881
000924  f06f4170          MVN      r1,#0xf0000000        ;882
000928  9801              LDR      r0,[sp,#4]            ;882
00092a  f7fffffe          BL       TEXT_SetBkColor
00092e  46d3              MOV      r11,r10               ;883
000930  4659              MOV      r1,r11                ;883
000932  9801              LDR      r0,[sp,#4]            ;883
000934  f7fffffe          BL       TEXT_SetTextColor
000938  f8df9350          LDR      r9,|L5.3212|
00093c  f8990000          LDRB     r0,[r9,#0]            ;884  ; dot_flag
000940  b3e8              CBZ      r0,|L5.2494|
000942  f8990000          LDRB     r0,[r9,#0]            ;886  ; dot_flag
000946  b1a0              CBZ      r0,|L5.2418|
000948  9404              STR      r4,[sp,#0x10]         ;887
00094a  9405              STR      r4,[sp,#0x14]         ;887
00094c  f8992000          LDRB     r2,[r9,#0]            ;888  ; dot_flag
000950  49cd              LDR      r1,|L5.3208|
000952  1cd2              ADDS     r2,r2,#3              ;888
000954  a804              ADD      r0,sp,#0x10           ;888
000956  f7fffffe          BL       strncpy
00095a  a804              ADD      r0,sp,#0x10           ;889
00095c  f7fffffe          BL       __hardfp_atof
000960  ec532b18          VMOV     r2,r3,d8              ;889
000964  ec510b10          VMOV     r0,r1,d0              ;889
000968  f7fffffe          BL       __aeabi_dmul
00096c  f7fffffe          BL       __aeabi_d2uiz
000970  64a8              STR      r0,[r5,#0x48]         ;889  ; Run_Control
                  |L5.2418|
000972  e001              B        |L5.2424|
                  |L5.2420|
000974  e22a              B        |L5.3532|
                  |L5.2422|
000976  e1ee              B        |L5.3414|
                  |L5.2424|
000978  6ca9              LDR      r1,[r5,#0x48]         ;891  ; Run_Control
00097a  f2475030          MOV      r0,#0x7530            ;891
00097e  4281              CMP      r1,r0                 ;891
000980  d900              BLS      |L5.2436|
000982  64a8              STR      r0,[r5,#0x48]         ;893  ; Run_Control
                  |L5.2436|
000984  6ca8              LDR      r0,[r5,#0x48]         ;895  ; Run_Control
000986  ee000a10          VMOV     s0,r0                 ;895
00098a  eef80a40          VCVT.F32.U32 s1,s0                 ;895
00098e  ed9f1ac0          VLDR     s2,|L5.3216|
000992  ee800a81          VDIV.F32 s0,s1,s2              ;895
000996  ee100a10          VMOV     r0,s0                 ;896
00099a  f7fffffe          BL       __aeabi_f2d
00099e  ec410b10          VMOV     d0,r0,r1              ;896
0009a2  ec532b10          VMOV     r2,r3,d0              ;896
0009a6  f2af517c          ADR      r1,|L5.1068|
0009aa  a804              ADD      r0,sp,#0x10           ;896
0009ac  f7fffffe          BL       __2sprintf
0009b0  a904              ADD      r1,sp,#0x10           ;897
0009b2  9801              LDR      r0,[sp,#4]            ;897
0009b4  f7fffffe          BL       TEXT_SetText
0009b8  f6400165          MOV      r1,#0x865             ;899
0009bc  e001              B        |L5.2498|
                  |L5.2494|
0009be  e045              B        |L5.2636|
                  |L5.2496|
0009c0  e10e              B        |L5.3040|
                  |L5.2498|
0009c2  f8dfa2d0          LDR      r10,|L5.3220|
0009c6  f8da0004          LDR      r0,[r10,#4]           ;899  ; hWinset
0009ca  f7fffffe          BL       WM_GetDialogItem
0009ce  9001              STR      r0,[sp,#4]            ;899
0009d0  f06f4170          MVN      r1,#0xf0000000        ;900
0009d4  9801              LDR      r0,[sp,#4]            ;900
0009d6  f7fffffe          BL       TEXT_SetBkColor
0009da  4659              MOV      r1,r11                ;901
0009dc  9801              LDR      r0,[sp,#4]            ;901
0009de  f7fffffe          BL       TEXT_SetTextColor
0009e2  6ce8              LDR      r0,[r5,#0x4c]         ;902  ; Run_Control
0009e4  6ca9              LDR      r1,[r5,#0x48]         ;902  ; Run_Control
0009e6  4288              CMP      r0,r1                 ;902
0009e8  d304              BCC      |L5.2548|
0009ea  64ec              STR      r4,[r5,#0x4c]         ;904  ; Run_Control
0009ec  a1aa              ADR      r1,|L5.3224|
0009ee  9801              LDR      r0,[sp,#4]            ;905
0009f0  f7fffffe          BL       TEXT_SetText
                  |L5.2548|
0009f4  ee190a10          VMOV     r0,s18                ;908
0009f8  f7fffffe          BL       __aeabi_f2d
0009fc  ec410b10          VMOV     d0,r0,r1              ;908
000a00  ec532b10          VMOV     r2,r3,d0              ;908
000a04  f2af51dc          ADR      r1,|L5.1068|
000a08  a804              ADD      r0,sp,#0x10           ;908
000a0a  f7fffffe          BL       __2sprintf
000a0e  a904              ADD      r1,sp,#0x10           ;909
000a10  9801              LDR      r0,[sp,#4]            ;909
000a12  f7fffffe          BL       TEXT_SetText
000a16  f640013b          MOV      r1,#0x83b             ;913
000a1a  f8da0004          LDR      r0,[r10,#4]           ;913  ; hWinset
000a1e  f7fffffe          BL       WM_GetDialogItem
000a22  4605              MOV      r5,r0                 ;913
000a24  4997              LDR      r1,|L5.3204|
000a26  4628              MOV      r0,r5                 ;914
000a28  f7fffffe          BL       TEXT_SetBkColor
000a2c  2100              MOVS     r1,#0                 ;915
000a2e  4628              MOV      r0,r5                 ;915
000a30  f7fffffe          BL       TEXT_SetTextColor
000a34  f7fffffe          BL       Write_Limits
000a38  2007              MOVS     r0,#7                 ;918
000a3a  7030              STRB     r0,[r6,#0]            ;918
000a3c  f8887000          STRB     r7,[r8,#0]            ;919
000a40  f8894000          STRB     r4,[r9,#0]            ;920
                  |L5.2628|
000a44  e418              B        |L5.632|
                  |L5.2630|
000a46  e17d              B        |L5.3396|
                  |L5.2632|
000a48  e008              B        |L5.2652|
                  |L5.2634|
000a4a  e09b              B        |L5.2948|
                  |L5.2636|
000a4c  488e              LDR      r0,|L5.3208|
000a4e  f7fffffe          BL       atoi
000a52  f44f717a          MOV      r1,#0x3e8             ;885
000a56  4348              MULS     r0,r1,r0              ;885
000a58  64a8              STR      r0,[r5,#0x48]         ;885  ; Run_Control
000a5a  e78a              B        |L5.2418|
                  |L5.2652|
000a5c  f6400164          MOV      r1,#0x864             ;928
000a60  f8df9230          LDR      r9,|L5.3220|
000a64  4610              MOV      r0,r2                 ;928
000a66  f7fffffe          BL       WM_GetDialogItem
000a6a  9001              STR      r0,[sp,#4]            ;928
000a6c  4659              MOV      r1,r11                ;929
000a6e  9801              LDR      r0,[sp,#4]            ;929
000a70  f7fffffe          BL       TEXT_SetBkColor
000a74  4651              MOV      r1,r10                ;930
000a76  9801              LDR      r0,[sp,#4]            ;930
000a78  f7fffffe          BL       TEXT_SetTextColor
000a7c  ee1a0a10          VMOV     r0,s20                ;936
000a80  f7fffffe          BL       __aeabi_f2d
000a84  ec410b10          VMOV     d0,r0,r1              ;936
000a88  ec532b10          VMOV     r2,r3,d0              ;936
000a8c  f2af6164          ADR      r1,|L5.1068|
000a90  a804              ADD      r0,sp,#0x10           ;936
000a92  f7fffffe          BL       __2sprintf
000a96  a904              ADD      r1,sp,#0x10           ;937
000a98  9801              LDR      r0,[sp,#4]            ;937
000a9a  f7fffffe          BL       TEXT_SetText
000a9e  f6400165          MOV      r1,#0x865             ;939
000aa2  f8d90004          LDR      r0,[r9,#4]            ;939  ; hWinset
000aa6  f7fffffe          BL       WM_GetDialogItem
000aaa  9001              STR      r0,[sp,#4]            ;939
000aac  4659              MOV      r1,r11                ;940
000aae  9801              LDR      r0,[sp,#4]            ;940
000ab0  f7fffffe          BL       TEXT_SetBkColor
000ab4  4651              MOV      r1,r10                ;941
000ab6  9801              LDR      r0,[sp,#4]            ;941
000ab8  f7fffffe          BL       TEXT_SetTextColor
000abc  f8df91cc          LDR      r9,|L5.3212|
000ac0  f8990000          LDRB     r0,[r9,#0]            ;942  ; dot_flag
000ac4  b3e8              CBZ      r0,|L5.2882|
000ac6  f8990000          LDRB     r0,[r9,#0]            ;944  ; dot_flag
000aca  b1a0              CBZ      r0,|L5.2806|
000acc  9404              STR      r4,[sp,#0x10]         ;945
000ace  9405              STR      r4,[sp,#0x14]         ;945
000ad0  f8992000          LDRB     r2,[r9,#0]            ;946  ; dot_flag
000ad4  496c              LDR      r1,|L5.3208|
000ad6  1cd2              ADDS     r2,r2,#3              ;946
000ad8  a804              ADD      r0,sp,#0x10           ;946
000ada  f7fffffe          BL       strncpy
000ade  a804              ADD      r0,sp,#0x10           ;947
000ae0  f7fffffe          BL       __hardfp_atof
000ae4  ec532b18          VMOV     r2,r3,d8              ;947
000ae8  ec510b10          VMOV     r0,r1,d0              ;947
000aec  f7fffffe          BL       __aeabi_dmul
000af0  f7fffffe          BL       __aeabi_d2uiz
000af4  64e8              STR      r0,[r5,#0x4c]         ;947  ; Run_Control
                  |L5.2806|
000af6  6ca9              LDR      r1,[r5,#0x48]         ;949  ; Run_Control
000af8  f2475030          MOV      r0,#0x7530            ;949
000afc  4281              CMP      r1,r0                 ;949
000afe  d900              BLS      |L5.2818|
000b00  64a8              STR      r0,[r5,#0x48]         ;951  ; Run_Control
                  |L5.2818|
000b02  6ce8              LDR      r0,[r5,#0x4c]         ;953  ; Run_Control
000b04  6ca9              LDR      r1,[r5,#0x48]         ;953  ; Run_Control
000b06  4288              CMP      r0,r1                 ;953
000b08  d300              BCC      |L5.2828|
000b0a  64ec              STR      r4,[r5,#0x4c]         ;955  ; Run_Control
                  |L5.2828|
000b0c  6ce8              LDR      r0,[r5,#0x4c]         ;957  ; Run_Control
000b0e  ee000a10          VMOV     s0,r0                 ;957
000b12  eef80a40          VCVT.F32.U32 s1,s0                 ;957
000b16  ed9f1a5e          VLDR     s2,|L5.3216|
000b1a  ee800a81          VDIV.F32 s0,s1,s2              ;957
000b1e  ee100a10          VMOV     r0,s0                 ;958
000b22  f7fffffe          BL       __aeabi_f2d
000b26  ec410b10          VMOV     d0,r0,r1              ;958
000b2a  ec532b10          VMOV     r2,r3,d0              ;958
000b2e  f2af7104          ADR      r1,|L5.1068|
000b32  a804              ADD      r0,sp,#0x10           ;958
000b34  f7fffffe          BL       __2sprintf
000b38  a904              ADD      r1,sp,#0x10           ;959
000b3a  9801              LDR      r0,[sp,#4]            ;959
000b3c  f7fffffe          BL       TEXT_SetText
000b40  e000              B        |L5.2884|
                  |L5.2882|
000b42  e017              B        |L5.2932|
                  |L5.2884|
000b44  4853              LDR      r0,|L5.3220|
000b46  f640013b          MOV      r1,#0x83b             ;961
000b4a  6840              LDR      r0,[r0,#4]            ;961  ; hWinset
000b4c  f7fffffe          BL       WM_GetDialogItem
000b50  4605              MOV      r5,r0                 ;961
000b52  494c              LDR      r1,|L5.3204|
000b54  4628              MOV      r0,r5                 ;962
000b56  f7fffffe          BL       TEXT_SetBkColor
000b5a  2100              MOVS     r1,#0                 ;963
000b5c  4628              MOV      r0,r5                 ;963
000b5e  f7fffffe          BL       TEXT_SetTextColor
000b62  f7fffffe          BL       Write_Limits
000b66  2007              MOVS     r0,#7                 ;966
000b68  7030              STRB     r0,[r6,#0]            ;966
000b6a  f8887000          STRB     r7,[r8,#0]            ;967
000b6e  f8894000          STRB     r4,[r9,#0]            ;968
000b72  e442              B        |L5.1018|
                  |L5.2932|
000b74  4844              LDR      r0,|L5.3208|
000b76  f7fffffe          BL       atoi
000b7a  f44f717a          MOV      r1,#0x3e8             ;943
000b7e  4348              MULS     r0,r1,r0              ;943
000b80  64e8              STR      r0,[r5,#0x4c]         ;943  ; Run_Control
000b82  e7b8              B        |L5.2806|
                  |L5.2948|
000b84  4605              MOV      r5,r0                 ;976
000b86  f640013c          MOV      r1,#0x83c             ;976
000b8a  4610              MOV      r0,r2                 ;976
000b8c  f7fffffe          BL       WM_GetDialogItem
000b90  4607              MOV      r7,r0                 ;976
000b92  4659              MOV      r1,r11                ;977
000b94  4638              MOV      r0,r7                 ;977
000b96  f7fffffe          BL       TEXT_SetBkColor
000b9a  4651              MOV      r1,r10                ;978
000b9c  4638              MOV      r0,r7                 ;978
000b9e  f7fffffe          BL       TEXT_SetTextColor
000ba2  f6401137          MOV      r1,#0x937             ;980
000ba6  6868              LDR      r0,[r5,#4]            ;980  ; hWinset
000ba8  f7fffffe          BL       WM_GetDialogItem
000bac  4605              MOV      r5,r0                 ;980
000bae  4935              LDR      r1,|L5.3204|
000bb0  4628              MOV      r0,r5                 ;981
000bb2  f7fffffe          BL       TEXT_SetBkColor
000bb6  2100              MOVS     r1,#0                 ;982
000bb8  4628              MOV      r0,r5                 ;982
000bba  f7fffffe          BL       TEXT_SetTextColor
000bbe  9406              STR      r4,[sp,#0x18]         ;984
000bc0  e007              B        |L5.3026|
                  |L5.3010|
000bc2  f89d0018          LDRB     r0,[sp,#0x18]         ;985
000bc6  f8094000          STRB     r4,[r9,r0]            ;985
000bca  f89d0018          LDRB     r0,[sp,#0x18]         ;984
000bce  1c40              ADDS     r0,r0,#1              ;984
000bd0  9006              STR      r0,[sp,#0x18]         ;984
                  |L5.3026|
000bd2  f89d0018          LDRB     r0,[sp,#0x18]         ;984
000bd6  2806              CMP      r0,#6                 ;984
000bd8  d3f3              BCC      |L5.3010|
000bda  2053              MOVS     r0,#0x53              ;987
000bdc  7030              STRB     r0,[r6,#0]            ;987
                  |L5.3038|
000bde  e40c              B        |L5.1018|
                  |L5.3040|
000be0  f6401137          MOV      r1,#0x937             ;995
000be4  4610              MOV      r0,r2                 ;995
000be6  f7fffffe          BL       WM_GetDialogItem
000bea  9001              STR      r0,[sp,#4]            ;995
000bec  f06f4170          MVN      r1,#0xf0000000        ;996
000bf0  9801              LDR      r0,[sp,#4]            ;996
000bf2  f7fffffe          BL       TEXT_SetBkColor
000bf6  46d3              MOV      r11,r10               ;997
000bf8  4659              MOV      r1,r11                ;997
000bfa  9801              LDR      r0,[sp,#4]            ;997
000bfc  f7fffffe          BL       TEXT_SetTextColor
000c00  f8df9088          LDR      r9,|L5.3212|
000c04  f8990000          LDRB     r0,[r9,#0]            ;998  ; dot_flag
000c08  b3d8              CBZ      r0,|L5.3202|
000c0a  f8990000          LDRB     r0,[r9,#0]            ;1000  ; dot_flag
000c0e  b1a0              CBZ      r0,|L5.3130|
000c10  9404              STR      r4,[sp,#0x10]         ;1001
000c12  9405              STR      r4,[sp,#0x14]         ;1001
000c14  f8992000          LDRB     r2,[r9,#0]            ;1002  ; dot_flag
000c18  491b              LDR      r1,|L5.3208|
000c1a  1cd2              ADDS     r2,r2,#3              ;1002
000c1c  a804              ADD      r0,sp,#0x10           ;1002
000c1e  f7fffffe          BL       strncpy
000c22  a804              ADD      r0,sp,#0x10           ;1003
000c24  f7fffffe          BL       __hardfp_atof
000c28  ec532b18          VMOV     r2,r3,d8              ;1003
000c2c  ec510b10          VMOV     r0,r1,d0              ;1003
000c30  f7fffffe          BL       __aeabi_dmul
000c34  f7fffffe          BL       __aeabi_d2iz
000c38  60a8              STR      r0,[r5,#8]            ;1003  ; InFlashSave
                  |L5.3130|
000c3a  68a9              LDR      r1,[r5,#8]            ;1005  ; InFlashSave
000c3c  f2427010          MOV      r0,#0x2710            ;1005
000c40  4281              CMP      r1,r0                 ;1005
000c42  dd00              BLE      |L5.3142|
000c44  60a8              STR      r0,[r5,#8]            ;1007  ; InFlashSave
                  |L5.3142|
000c46  ed950a02          VLDR     s0,[r5,#8]            ;1015
000c4a  ed9f8a11          VLDR     s16,|L5.3216|
000c4e  eef80ac0          VCVT.F32.S32 s1,s0                 ;1015
000c52  ee800a88          VDIV.F32 s0,s1,s16             ;1015
000c56  ee100a10          VMOV     r0,s0                 ;1015
000c5a  f7fffffe          BL       __aeabi_f2d
000c5e  ec410b10          VMOV     d0,r0,r1              ;1015
000c62  ec532b10          VMOV     r2,r3,d0              ;1015
000c66  f6af013c          ADR      r1,|L5.1068|
000c6a  a804              ADD      r0,sp,#0x10           ;1015
000c6c  f7fffffe          BL       __2sprintf
000c70  a904              ADD      r1,sp,#0x10           ;1016
000c72  9801              LDR      r0,[sp,#4]            ;1016
000c74  f7fffffe          BL       TEXT_SetText
000c78  f6401138          MOV      r1,#0x938             ;1018
000c7c  f8dfa014          LDR      r10,|L5.3220|
000c80  e00e              B        |L5.3232|
                  |L5.3202|
000c82  e057              B        |L5.3380|
                  |L5.3204|
                          DCD      0x00bfffff
                  |L5.3208|
                          DCD      set_limit
                  |L5.3212|
                          DCD      dot_flag
                  |L5.3216|
000c90  447a0000          DCFS     0x447a0000 ; 1000
                  |L5.3220|
                          DCD      ||.data||
                  |L5.3224|
000c98  302e3030          DCB      "0.000",0
000c9c  3000    
000c9e  00                DCB      0
000c9f  00                DCB      0
                  |L5.3232|
000ca0  f8da0004          LDR      r0,[r10,#4]           ;1018  ; hWinset
000ca4  f7fffffe          BL       WM_GetDialogItem
000ca8  9001              STR      r0,[sp,#4]            ;1018
000caa  f06f4170          MVN      r1,#0xf0000000        ;1019
000cae  9801              LDR      r0,[sp,#4]            ;1019
000cb0  f7fffffe          BL       TEXT_SetBkColor
000cb4  4659              MOV      r1,r11                ;1020
000cb6  9801              LDR      r0,[sp,#4]            ;1020
000cb8  f7fffffe          BL       TEXT_SetTextColor
000cbc  e9d51002          LDRD     r1,r0,[r5,#8]         ;1021
000cc0  4288              CMP      r0,r1                 ;1021
000cc2  db05              BLT      |L5.3280|
000cc4  60ec              STR      r4,[r5,#0xc]          ;1023  ; InFlashSave
000cc6  f2af0130          ADR      r1,|L5.3224|
000cca  9801              LDR      r0,[sp,#4]            ;1024
000ccc  f7fffffe          BL       TEXT_SetText
                  |L5.3280|
000cd0  ed950a03          VLDR     s0,[r5,#0xc]          ;1027
000cd4  eef80ac0          VCVT.F32.S32 s1,s0                 ;1027
000cd8  ee800a88          VDIV.F32 s0,s1,s16             ;1027
000cdc  ee100a10          VMOV     r0,s0                 ;1027
000ce0  f7fffffe          BL       __aeabi_f2d
000ce4  ec410b10          VMOV     d0,r0,r1              ;1027
000ce8  ec532b10          VMOV     r2,r3,d0              ;1027
000cec  f6af01c4          ADR      r1,|L5.1068|
000cf0  a804              ADD      r0,sp,#0x10           ;1027
000cf2  f7fffffe          BL       __2sprintf
000cf6  a904              ADD      r1,sp,#0x10           ;1028
000cf8  9801              LDR      r0,[sp,#4]            ;1028
000cfa  f7fffffe          BL       TEXT_SetText
000cfe  f640013c          MOV      r1,#0x83c             ;1032
000d02  f8da0004          LDR      r0,[r10,#4]           ;1032  ; hWinset
000d06  f7fffffe          BL       WM_GetDialogItem
000d0a  4605              MOV      r5,r0                 ;1032
000d0c  49fe              LDR      r1,|L5.4360|
000d0e  4628              MOV      r0,r5                 ;1033
000d10  f7fffffe          BL       TEXT_SetBkColor
000d14  2100              MOVS     r1,#0                 ;1034
000d16  4628              MOV      r0,r5                 ;1034
000d18  f7fffffe          BL       TEXT_SetTextColor
000d1c  4afb              LDR      r2,|L5.4364|
000d1e  2128              MOVS     r1,#0x28              ;1036
000d20  48fb              LDR      r0,|L5.4368|
000d22  f7fffffe          BL       Flash_Write32BitDatas
000d26  2008              MOVS     r0,#8                 ;1037
000d28  7030              STRB     r0,[r6,#0]            ;1037
000d2a  f8887000          STRB     r7,[r8,#0]            ;1038
000d2e  f8894000          STRB     r4,[r9,#0]            ;1039
                  |L5.3378|
000d32  e41b              B        |L5.1388|
                  |L5.3380|
000d34  48f7              LDR      r0,|L5.4372|
000d36  f7fffffe          BL       atoi
000d3a  f44f717a          MOV      r1,#0x3e8             ;999
000d3e  4348              MULS     r0,r1,r0              ;999
000d40  60a8              STR      r0,[r5,#8]            ;999  ; InFlashSave
000d42  e77a              B        |L5.3130|
                  |L5.3396|
000d44  48f3              LDR      r0,|L5.4372|
000d46  f7fffffe          BL       atoi
000d4a  f44f717a          MOV      r1,#0x3e8             ;1062
000d4e  4348              MULS     r0,r1,r0              ;1062
000d50  60e8              STR      r0,[r5,#0xc]          ;1062  ; InFlashSave
000d52  f7ffba16          B        |L5.386|
                  |L5.3414|
000d56  7801              LDRB     r1,[r0,#0]            ;1094  ; test_mode
000d58  2901              CMP      r1,#1                 ;1094
000d5a  d900              BLS      |L5.3422|
000d5c  7007              STRB     r7,[r0,#0]            ;1096
                  |L5.3422|
000d5e  4605              MOV      r5,r0                 ;1098
000d60  7800              LDRB     r0,[r0,#0]            ;1098  ; test_mode
000d62  2801              CMP      r0,#1                 ;1098
000d64  d01a              BEQ      |L5.3484|
000d66  7828              LDRB     r0,[r5,#0]            ;1108  ; test_mode
000d68  2800              CMP      r0,#0                 ;1108
000d6a  d1e2              BNE      |L5.3378|
000d6c  f6401123          MOV      r1,#0x923             ;1110
000d70  4610              MOV      r0,r2                 ;1110
000d72  f7fffffe          BL       WM_GetDialogItem
000d76  4604              MOV      r4,r0                 ;1110
000d78  4651              MOV      r1,r10                ;1111
000d7a  4620              MOV      r0,r4                 ;1111
000d7c  f7fffffe          BL       TEXT_SetTextColor
000d80  49e5              LDR      r1,|L5.4376|
000d82  4620              MOV      r0,r4                 ;1112
000d84  f7fffffe          BL       TEXT_SetFont
000d88  f7fffffe          BL       GUI_UC_SetEncodeUTF8
000d8c  a1e3              ADR      r1,|L5.4380|
000d8e  4620              MOV      r0,r4                 ;1114
000d90  f7fffffe          BL       TEXT_SetText
000d94  702f              STRB     r7,[r5,#0]            ;1115
000d96  f7fffffe          BL       Wrtite_S
                  |L5.3482|
000d9a  e47b              B        |L5.1684|
                  |L5.3484|
000d9c  f6401123          MOV      r1,#0x923             ;1101
000da0  4610              MOV      r0,r2                 ;1101
000da2  f7fffffe          BL       WM_GetDialogItem
000da6  4606              MOV      r6,r0                 ;1101
000da8  4651              MOV      r1,r10                ;1102
000daa  4630              MOV      r0,r6                 ;1102
000dac  f7fffffe          BL       TEXT_SetTextColor
000db0  49d9              LDR      r1,|L5.4376|
000db2  4630              MOV      r0,r6                 ;1103
000db4  f7fffffe          BL       TEXT_SetFont
000db8  f7fffffe          BL       GUI_UC_SetEncodeUTF8
000dbc  a1d9              ADR      r1,|L5.4388|
000dbe  4630              MOV      r0,r6                 ;1105
000dc0  f7fffffe          BL       TEXT_SetText
000dc4  702c              STRB     r4,[r5,#0]            ;1106
000dc6  f7fffffe          BL       Wrtite_S
000dca  e463              B        |L5.1684|
                  |L5.3532|
000dcc  4604              MOV      r4,r0                 ;1123
000dce  f640019e          MOV      r1,#0x89e             ;1123
000dd2  4610              MOV      r0,r2                 ;1123
000dd4  f7fffffe          BL       WM_GetDialogItem
000dd8  4605              MOV      r5,r0                 ;1123
000dda  4659              MOV      r1,r11                ;1124
000ddc  4628              MOV      r0,r5                 ;1124
000dde  f7fffffe          BL       TEXT_SetBkColor
000de2  4651              MOV      r1,r10                ;1125
000de4  4628              MOV      r0,r5                 ;1125
000de6  f7fffffe          BL       TEXT_SetTextColor
000dea  f640019f          MOV      r1,#0x89f             ;1127
000dee  6860              LDR      r0,[r4,#4]            ;1127  ; hWinset
000df0  f7fffffe          BL       WM_GetDialogItem
000df4  4605              MOV      r5,r0                 ;1127
000df6  49c4              LDR      r1,|L5.4360|
000df8  4628              MOV      r0,r5                 ;1128
000dfa  f7fffffe          BL       TEXT_SetBkColor
000dfe  2100              MOVS     r1,#0                 ;1129
000e00  4628              MOV      r0,r5                 ;1129
000e02  f7fffffe          BL       TEXT_SetTextColor
000e06  f6401123          MOV      r1,#0x923             ;1131
000e0a  6860              LDR      r0,[r4,#4]            ;1131  ; hWinset
000e0c  f7fffffe          BL       WM_GetDialogItem
000e10  f6af11e4          ADR      r1,|L5.1072|
000e14  f7fffffe          BL       TEXT_SetText
000e18  f8990000          LDRB     r0,[r9,#0]            ;1133  ; b_type
000e1c  2805              CMP      r0,#5                 ;1133
000e1e  d901              BLS      |L5.3620|
000e20  f8897000          STRB     r7,[r9,#0]            ;1135
                  |L5.3620|
000e24  f8990000          LDRB     r0,[r9,#0]            ;1138  ; b_type
000e28  2806              CMP      r0,#6                 ;1138
000e2a  d254              BCS      |L5.3798|
000e2c  e8dff000          TBB      [pc,r0]               ;1138
000e30  530354a5          DCB      0x53,0x03,0x54,0xa5
000e34  f8f6              DCB      0xf8,0xf6
000e36  f44f6110          MOV      r1,#0x900             ;1142
000e3a  6860              LDR      r0,[r4,#4]            ;1142  ; hWinset
000e3c  f7fffffe          BL       WM_GetDialogItem
000e40  4605              MOV      r5,r0                 ;1142
000e42  4651              MOV      r1,r10                ;1143
000e44  4628              MOV      r0,r5                 ;1143
000e46  f7fffffe          BL       TEXT_SetTextColor
000e4a  49b3              LDR      r1,|L5.4376|
000e4c  4628              MOV      r0,r5                 ;1144
000e4e  f7fffffe          BL       TEXT_SetFont
000e52  f7fffffe          BL       GUI_UC_SetEncodeUTF8
000e56  a1b5              ADR      r1,|L5.4396|
000e58  4628              MOV      r0,r5                 ;1146
000e5a  f7fffffe          BL       TEXT_SetText
000e5e  f6401101          MOV      r1,#0x901             ;1148
000e62  6860              LDR      r0,[r4,#4]            ;1148  ; hWinset
000e64  f7fffffe          BL       WM_GetDialogItem
000e68  4605              MOV      r5,r0                 ;1148
000e6a  4651              MOV      r1,r10                ;1149
000e6c  4628              MOV      r0,r5                 ;1149
000e6e  f7fffffe          BL       TEXT_SetTextColor
000e72  49a9              LDR      r1,|L5.4376|
000e74  4628              MOV      r0,r5                 ;1150
000e76  f7fffffe          BL       TEXT_SetFont
000e7a  f7fffffe          BL       GUI_UC_SetEncodeUTF8
000e7e  a1af              ADR      r1,|L5.4412|
000e80  4628              MOV      r0,r5                 ;1152
000e82  f7fffffe          BL       TEXT_SetText
000e86  f6401102          MOV      r1,#0x902             ;1154
000e8a  6860              LDR      r0,[r4,#4]            ;1154  ; hWinset
000e8c  f7fffffe          BL       WM_GetDialogItem
000e90  4605              MOV      r5,r0                 ;1154
000e92  4651              MOV      r1,r10                ;1155
000e94  4628              MOV      r0,r5                 ;1155
000e96  f7fffffe          BL       TEXT_SetTextColor
000e9a  499f              LDR      r1,|L5.4376|
000e9c  4628              MOV      r0,r5                 ;1156
000e9e  f7fffffe          BL       TEXT_SetFont
000ea2  f7fffffe          BL       GUI_UC_SetEncodeUTF8
000ea6  a1a9              ADR      r1,|L5.4428|
000ea8  4628              MOV      r0,r5                 ;1158
000eaa  f7fffffe          BL       TEXT_SetText
000eae  f6401103          MOV      r1,#0x903             ;1160
000eb2  6860              LDR      r0,[r4,#4]            ;1160  ; hWinset
000eb4  f7fffffe          BL       WM_GetDialogItem
000eb8  4604              MOV      r4,r0                 ;1160
000eba  4651              MOV      r1,r10                ;1161
000ebc  4620              MOV      r0,r4                 ;1161
000ebe  f7fffffe          BL       TEXT_SetTextColor
000ec2  4995              LDR      r1,|L5.4376|
000ec4  4620              MOV      r0,r4                 ;1162
000ec6  f7fffffe          BL       TEXT_SetFont
000eca  f7fffffe          BL       GUI_UC_SetEncodeUTF8
000ece  a1a4              ADR      r1,|L5.4448|
000ed0  4620              MOV      r0,r4                 ;1164
000ed2  f7fffffe          BL       TEXT_SetText
                  |L5.3798|
000ed6  e182              B        |L5.4574|
000ed8  f44f6110          MOV      r1,#0x900             ;1169
000edc  6860              LDR      r0,[r4,#4]            ;1169  ; hWinset
000ede  f7fffffe          BL       WM_GetDialogItem
000ee2  4605              MOV      r5,r0                 ;1169
000ee4  4651              MOV      r1,r10                ;1170
000ee6  4628              MOV      r0,r5                 ;1170
000ee8  f7fffffe          BL       TEXT_SetTextColor
000eec  498a              LDR      r1,|L5.4376|
000eee  4628              MOV      r0,r5                 ;1171
000ef0  f7fffffe          BL       TEXT_SetFont
000ef4  f7fffffe          BL       GUI_UC_SetEncodeUTF8
000ef8  a19d              ADR      r1,|L5.4464|
000efa  4628              MOV      r0,r5                 ;1173
000efc  f7fffffe          BL       TEXT_SetText
000f00  f6401101          MOV      r1,#0x901             ;1175
000f04  6860              LDR      r0,[r4,#4]            ;1175  ; hWinset
000f06  f7fffffe          BL       WM_GetDialogItem
000f0a  4605              MOV      r5,r0                 ;1175
000f0c  4651              MOV      r1,r10                ;1176
000f0e  4628              MOV      r0,r5                 ;1176
000f10  f7fffffe          BL       TEXT_SetTextColor
000f14  4980              LDR      r1,|L5.4376|
000f16  4628              MOV      r0,r5                 ;1177
000f18  f7fffffe          BL       TEXT_SetFont
000f1c  f7fffffe          BL       GUI_UC_SetEncodeUTF8
000f20  a186              ADR      r1,|L5.4412|
000f22  4628              MOV      r0,r5                 ;1179
000f24  f7fffffe          BL       TEXT_SetText
000f28  f6401102          MOV      r1,#0x902             ;1181
000f2c  6860              LDR      r0,[r4,#4]            ;1181  ; hWinset
000f2e  f7fffffe          BL       WM_GetDialogItem
000f32  4605              MOV      r5,r0                 ;1181
000f34  4651              MOV      r1,r10                ;1182
000f36  4628              MOV      r0,r5                 ;1182
000f38  f7fffffe          BL       TEXT_SetTextColor
000f3c  4976              LDR      r1,|L5.4376|
000f3e  4628              MOV      r0,r5                 ;1183
000f40  f7fffffe          BL       TEXT_SetFont
000f44  f7fffffe          BL       GUI_UC_SetEncodeUTF8
000f48  a180              ADR      r1,|L5.4428|
000f4a  4628              MOV      r0,r5                 ;1185
000f4c  f7fffffe          BL       TEXT_SetText
000f50  f6401103          MOV      r1,#0x903             ;1187
000f54  6860              LDR      r0,[r4,#4]            ;1187  ; hWinset
000f56  f7fffffe          BL       WM_GetDialogItem
000f5a  4604              MOV      r4,r0                 ;1187
000f5c  4651              MOV      r1,r10                ;1188
000f5e  4620              MOV      r0,r4                 ;1188
000f60  f7fffffe          BL       TEXT_SetTextColor
000f64  496c              LDR      r1,|L5.4376|
000f66  4620              MOV      r0,r4                 ;1189
000f68  f7fffffe          BL       TEXT_SetFont
000f6c  f7fffffe          BL       GUI_UC_SetEncodeUTF8
000f70  a17b              ADR      r1,|L5.4448|
000f72  4620              MOV      r0,r4                 ;1191
000f74  f7fffffe          BL       TEXT_SetText
000f78  e131              B        |L5.4574|
000f7a  f44f6110          MOV      r1,#0x900             ;1196
000f7e  6860              LDR      r0,[r4,#4]            ;1196  ; hWinset
000f80  f7fffffe          BL       WM_GetDialogItem
000f84  4605              MOV      r5,r0                 ;1196
000f86  4651              MOV      r1,r10                ;1197
000f88  4628              MOV      r0,r5                 ;1197
000f8a  f7fffffe          BL       TEXT_SetTextColor
000f8e  4962              LDR      r1,|L5.4376|
000f90  4628              MOV      r0,r5                 ;1198
000f92  f7fffffe          BL       TEXT_SetFont
000f96  f7fffffe          BL       GUI_UC_SetEncodeUTF8
000f9a  a175              ADR      r1,|L5.4464|
000f9c  4628              MOV      r0,r5                 ;1200
000f9e  f7fffffe          BL       TEXT_SetText
000fa2  f6401101          MOV      r1,#0x901             ;1202
000fa6  6860              LDR      r0,[r4,#4]            ;1202  ; hWinset
000fa8  f7fffffe          BL       WM_GetDialogItem
000fac  4605              MOV      r5,r0                 ;1202
000fae  4651              MOV      r1,r10                ;1203
000fb0  4628              MOV      r0,r5                 ;1203
000fb2  f7fffffe          BL       TEXT_SetTextColor
000fb6  4958              LDR      r1,|L5.4376|
000fb8  4628              MOV      r0,r5                 ;1204
000fba  f7fffffe          BL       TEXT_SetFont
000fbe  f7fffffe          BL       GUI_UC_SetEncodeUTF8
000fc2  a15a              ADR      r1,|L5.4396|
000fc4  4628              MOV      r0,r5                 ;1206
000fc6  f7fffffe          BL       TEXT_SetText
000fca  f6401102          MOV      r1,#0x902             ;1208
000fce  6860              LDR      r0,[r4,#4]            ;1208  ; hWinset
000fd0  f7fffffe          BL       WM_GetDialogItem
000fd4  4605              MOV      r5,r0                 ;1208
000fd6  4651              MOV      r1,r10                ;1209
000fd8  4628              MOV      r0,r5                 ;1209
000fda  f7fffffe          BL       TEXT_SetTextColor
000fde  494e              LDR      r1,|L5.4376|
000fe0  4628              MOV      r0,r5                 ;1210
000fe2  f7fffffe          BL       TEXT_SetFont
000fe6  f7fffffe          BL       GUI_UC_SetEncodeUTF8
000fea  a158              ADR      r1,|L5.4428|
000fec  4628              MOV      r0,r5                 ;1212
000fee  f7fffffe          BL       TEXT_SetText
000ff2  f6401103          MOV      r1,#0x903             ;1214
000ff6  6860              LDR      r0,[r4,#4]            ;1214  ; hWinset
000ff8  f7fffffe          BL       WM_GetDialogItem
000ffc  4604              MOV      r4,r0                 ;1214
000ffe  4651              MOV      r1,r10                ;1215
001000  4620              MOV      r0,r4                 ;1215
001002  f7fffffe          BL       TEXT_SetTextColor
001006  4944              LDR      r1,|L5.4376|
001008  4620              MOV      r0,r4                 ;1216
00100a  f7fffffe          BL       TEXT_SetFont
00100e  f7fffffe          BL       GUI_UC_SetEncodeUTF8
001012  a153              ADR      r1,|L5.4448|
001014  4620              MOV      r0,r4                 ;1218
001016  f7fffffe          BL       TEXT_SetText
00101a  e0e0              B        |L5.4574|
00101c  e051              B        |L5.4290|
00101e  e7ff              B        |L5.4128|
                  |L5.4128|
001020  f44f6110          MOV      r1,#0x900             ;1223
001024  6860              LDR      r0,[r4,#4]            ;1223  ; hWinset
001026  f7fffffe          BL       WM_GetDialogItem
00102a  4605              MOV      r5,r0                 ;1223
00102c  4651              MOV      r1,r10                ;1224
00102e  4628              MOV      r0,r5                 ;1224
001030  f7fffffe          BL       TEXT_SetTextColor
001034  4938              LDR      r1,|L5.4376|
001036  4628              MOV      r0,r5                 ;1225
001038  f7fffffe          BL       TEXT_SetFont
00103c  f7fffffe          BL       GUI_UC_SetEncodeUTF8
001040  a14b              ADR      r1,|L5.4464|
001042  4628              MOV      r0,r5                 ;1227
001044  f7fffffe          BL       TEXT_SetText
001048  f6401101          MOV      r1,#0x901             ;1229
00104c  6860              LDR      r0,[r4,#4]            ;1229  ; hWinset
00104e  f7fffffe          BL       WM_GetDialogItem
001052  4605              MOV      r5,r0                 ;1229
001054  4651              MOV      r1,r10                ;1230
001056  4628              MOV      r0,r5                 ;1230
001058  f7fffffe          BL       TEXT_SetTextColor
00105c  492e              LDR      r1,|L5.4376|
00105e  4628              MOV      r0,r5                 ;1231
001060  f7fffffe          BL       TEXT_SetFont
001064  f7fffffe          BL       GUI_UC_SetEncodeUTF8
001068  a130              ADR      r1,|L5.4396|
00106a  4628              MOV      r0,r5                 ;1233
00106c  f7fffffe          BL       TEXT_SetText
001070  f6401102          MOV      r1,#0x902             ;1235
001074  6860              LDR      r0,[r4,#4]            ;1235  ; hWinset
001076  f7fffffe          BL       WM_GetDialogItem
00107a  4605              MOV      r5,r0                 ;1235
00107c  4651              MOV      r1,r10                ;1236
00107e  4628              MOV      r0,r5                 ;1236
001080  f7fffffe          BL       TEXT_SetTextColor
001084  4924              LDR      r1,|L5.4376|
001086  4628              MOV      r0,r5                 ;1237
001088  f7fffffe          BL       TEXT_SetFont
00108c  f7fffffe          BL       GUI_UC_SetEncodeUTF8
001090  a12a              ADR      r1,|L5.4412|
001092  4628              MOV      r0,r5                 ;1239
001094  f7fffffe          BL       TEXT_SetText
001098  f6401103          MOV      r1,#0x903             ;1241
00109c  6860              LDR      r0,[r4,#4]            ;1241  ; hWinset
00109e  f7fffffe          BL       WM_GetDialogItem
0010a2  4604              MOV      r4,r0                 ;1241
0010a4  4651              MOV      r1,r10                ;1242
0010a6  4620              MOV      r0,r4                 ;1242
0010a8  f7fffffe          BL       TEXT_SetTextColor
0010ac  491a              LDR      r1,|L5.4376|
0010ae  4620              MOV      r0,r4                 ;1243
0010b0  f7fffffe          BL       TEXT_SetFont
0010b4  f7fffffe          BL       GUI_UC_SetEncodeUTF8
0010b8  a129              ADR      r1,|L5.4448|
0010ba  4620              MOV      r0,r4                 ;1245
0010bc  f7fffffe          BL       TEXT_SetText
0010c0  e08d              B        |L5.4574|
                  |L5.4290|
0010c2  f44f6110          MOV      r1,#0x900             ;1250
0010c6  6860              LDR      r0,[r4,#4]            ;1250  ; hWinset
0010c8  f7fffffe          BL       WM_GetDialogItem
0010cc  4605              MOV      r5,r0                 ;1250
0010ce  4651              MOV      r1,r10                ;1251
0010d0  4628              MOV      r0,r5                 ;1251
0010d2  f7fffffe          BL       TEXT_SetTextColor
0010d6  4910              LDR      r1,|L5.4376|
0010d8  4628              MOV      r0,r5                 ;1252
0010da  f7fffffe          BL       TEXT_SetFont
0010de  f7fffffe          BL       GUI_UC_SetEncodeUTF8
0010e2  a123              ADR      r1,|L5.4464|
0010e4  4628              MOV      r0,r5                 ;1254
0010e6  f7fffffe          BL       TEXT_SetText
0010ea  f6401101          MOV      r1,#0x901             ;1256
0010ee  6860              LDR      r0,[r4,#4]            ;1256  ; hWinset
0010f0  f7fffffe          BL       WM_GetDialogItem
0010f4  4605              MOV      r5,r0                 ;1256
0010f6  4651              MOV      r1,r10                ;1257
0010f8  4628              MOV      r0,r5                 ;1257
0010fa  f7fffffe          BL       TEXT_SetTextColor
0010fe  4906              LDR      r1,|L5.4376|
001100  4628              MOV      r0,r5                 ;1258
001102  f7fffffe          BL       TEXT_SetFont
001106  e039              B        |L5.4476|
                  |L5.4360|
                          DCD      0x00bfffff
                  |L5.4364|
                          DCD      ||.bss||
                  |L5.4368|
                          DCD      0x080e0000
                  |L5.4372|
                          DCD      set_limit
                  |L5.4376|
                          DCD      GUI_Fontset_font
                  |L5.4380|
00111c  e7b2bee5          DCB      231,178,190,229,135,134,0
001120  878600  
001123  00                DCB      0
                  |L5.4388|
001124  e5bfabe9          DCB      229,191,171,233,128,159,0
001128  809f00  
00112b  00                DCB      0
                  |L5.4396|
00112c  e9958de6          DCB      233,149,141,230,176,162,231,148,181,230,177,160
001130  b0a2e794
001134  b5e6b1a0
                  |L5.4408|
001138  00                DCB      0
001139  00                DCB      0
00113a  00                DCB      0
00113b  00                DCB      0
                  |L5.4412|
00113c  e9958de9          DCB      233,149,141,233,149,137,231,148,181,230,177,160,0
001140  9589e794
001144  b5e6b1a0
001148  00      
001149  00                DCB      0
00114a  00                DCB      0
00114b  00                DCB      0
                  |L5.4428|
00114c  e5b08fe5          DCB      229,176,143,229,158,139,233,147,133,233,133,184,231,148,181
001150  9e8be993
001154  85e985b8
001158  e794b5  
00115b  e6b1a000          DCB      230,177,160,0
00115f  00                DCB      0
                  |L5.4448|
001160  e99482e9          DCB      233,148,130,233,148,176,231,148,181,230,177,160,0
001164  94b0e794
001168  b5e6b1a0
00116c  00      
00116d  00                DCB      0
00116e  00                DCB      0
00116f  00                DCB      0
                  |L5.4464|
001170  e99482e7          DCB      233,148,130,231,148,181,230,177,160,0
001174  94b5e6b1
001178  a000    
00117a  00                DCB      0
00117b  00                DCB      0
                  |L5.4476|
00117c  f7fffffe          BL       GUI_UC_SetEncodeUTF8
001180  f2af0158          ADR      r1,|L5.4396|
001184  4628              MOV      r0,r5                 ;1260
001186  f7fffffe          BL       TEXT_SetText
00118a  f6401102          MOV      r1,#0x902             ;1262
00118e  6860              LDR      r0,[r4,#4]            ;1262  ; hWinset
001190  f7fffffe          BL       WM_GetDialogItem
001194  4605              MOV      r5,r0                 ;1262
001196  4651              MOV      r1,r10                ;1263
001198  4628              MOV      r0,r5                 ;1263
00119a  f7fffffe          BL       TEXT_SetTextColor
00119e  49fc              LDR      r1,|L5.5520|
0011a0  4628              MOV      r0,r5                 ;1264
0011a2  f7fffffe          BL       TEXT_SetFont
0011a6  f7fffffe          BL       GUI_UC_SetEncodeUTF8
0011aa  f2af0170          ADR      r1,|L5.4412|
0011ae  4628              MOV      r0,r5                 ;1266
0011b0  f7fffffe          BL       TEXT_SetText
0011b4  f6401103          MOV      r1,#0x903             ;1268
0011b8  6860              LDR      r0,[r4,#4]            ;1268  ; hWinset
0011ba  f7fffffe          BL       WM_GetDialogItem
0011be  4604              MOV      r4,r0                 ;1268
0011c0  4651              MOV      r1,r10                ;1269
0011c2  4620              MOV      r0,r4                 ;1269
0011c4  f7fffffe          BL       TEXT_SetTextColor
0011c8  49f1              LDR      r1,|L5.5520|
0011ca  4620              MOV      r0,r4                 ;1270
0011cc  f7fffffe          BL       TEXT_SetFont
0011d0  f7fffffe          BL       GUI_UC_SetEncodeUTF8
0011d4  f2af018c          ADR      r1,|L5.4428|
0011d8  4620              MOV      r0,r4                 ;1272
0011da  f7fffffe          BL       TEXT_SetText
                  |L5.4574|
0011de  202a              MOVS     r0,#0x2a              ;1278
0011e0  7030              STRB     r0,[r6,#0]            ;1278
                  |L5.4578|
0011e2  e42f              B        |L5.2628|
0011e4  4605              MOV      r5,r0                 ;1287
0011e6  f640019e          MOV      r1,#0x89e             ;1287
0011ea  4610              MOV      r0,r2                 ;1287
0011ec  f7fffffe          BL       WM_GetDialogItem
0011f0  9001              STR      r0,[sp,#4]            ;1287
0011f2  49e8              LDR      r1,|L5.5524|
0011f4  9801              LDR      r0,[sp,#4]            ;1288
0011f6  f7fffffe          BL       TEXT_SetBkColor
0011fa  2100              MOVS     r1,#0                 ;1289
0011fc  9801              LDR      r0,[sp,#4]            ;1289
0011fe  f7fffffe          BL       TEXT_SetTextColor
001202  f6401123          MOV      r1,#0x923             ;1291
001206  6868              LDR      r0,[r5,#4]            ;1291  ; hWinset
001208  f7fffffe          BL       WM_GetDialogItem
00120c  9001              STR      r0,[sp,#4]            ;1291
00120e  7828              LDRB     r0,[r5,#0]            ;1292  ; test_mode
001210  2801              CMP      r0,#1                 ;1292
001212  d002              BEQ      |L5.4634|
001214  7828              LDRB     r0,[r5,#0]            ;1296  ; test_mode
001216  b150              CBZ      r0,|L5.4654|
001218  e012              B        |L5.4672|
                  |L5.4634|
00121a  49dd              LDR      r1,|L5.5520|
00121c  9801              LDR      r0,[sp,#4]            ;1294
00121e  f7fffffe          BL       TEXT_SetFont
001222  f2af1108          ADR      r1,|L5.4380|
001226  9801              LDR      r0,[sp,#4]            ;1295
001228  f7fffffe          BL       TEXT_SetText
00122c  e008              B        |L5.4672|
                  |L5.4654|
00122e  49d8              LDR      r1,|L5.5520|
001230  9801              LDR      r0,[sp,#4]            ;1297
001232  f7fffffe          BL       TEXT_SetFont
001236  f2af1114          ADR      r1,|L5.4388|
00123a  9801              LDR      r0,[sp,#4]            ;1298
00123c  f7fffffe          BL       TEXT_SetText
                  |L5.4672|
001240  7820              LDRB     r0,[r4,#0]            ;1301  ; buffer
001242  2806              CMP      r0,#6                 ;1301
001244  d274              BCS      |L5.4912|
001246  e8dff000          TBB      [pc,r0]               ;1301
00124a  7303              DCB      0x73,0x03
00124c  192f465d          DCB      0x19,0x2f,0x46,0x5d
001250  f640019f          MOV      r1,#0x89f             ;1305
001254  6868              LDR      r0,[r5,#4]            ;1305  ; hWinset
001256  f7fffffe          BL       WM_GetDialogItem
00125a  4604              MOV      r4,r0                 ;1305
00125c  4659              MOV      r1,r11                ;1306
00125e  4620              MOV      r0,r4                 ;1306
001260  f7fffffe          BL       TEXT_SetBkColor
001264  4651              MOV      r1,r10                ;1307
001266  4620              MOV      r0,r4                 ;1307
001268  f7fffffe          BL       TEXT_SetTextColor
00126c  f2af1100          ADR      r1,|L5.4464|
001270  4620              MOV      r0,r4                 ;1308
001272  f7fffffe          BL       TEXT_SetText
001276  f8897000          STRB     r7,[r9,#0]            ;1309
00127a  e059              B        |L5.4912|
00127c  f640019f          MOV      r1,#0x89f             ;1314
001280  6868              LDR      r0,[r5,#4]            ;1314  ; hWinset
001282  f7fffffe          BL       WM_GetDialogItem
001286  4604              MOV      r4,r0                 ;1314
001288  4659              MOV      r1,r11                ;1315
00128a  4620              MOV      r0,r4                 ;1315
00128c  f7fffffe          BL       TEXT_SetBkColor
001290  4651              MOV      r1,r10                ;1316
001292  4620              MOV      r0,r4                 ;1316
001294  f7fffffe          BL       TEXT_SetTextColor
001298  f2af1170          ADR      r1,|L5.4396|
00129c  4620              MOV      r0,r4                 ;1317
00129e  f7fffffe          BL       TEXT_SetText
0012a2  f8898000          STRB     r8,[r9,#0]            ;1318
0012a6  e043              B        |L5.4912|
0012a8  f640019f          MOV      r1,#0x89f             ;1323
0012ac  6868              LDR      r0,[r5,#4]            ;1323  ; hWinset
0012ae  f7fffffe          BL       WM_GetDialogItem
0012b2  4604              MOV      r4,r0                 ;1323
0012b4  4659              MOV      r1,r11                ;1324
0012b6  4620              MOV      r0,r4                 ;1324
0012b8  f7fffffe          BL       TEXT_SetBkColor
0012bc  4651              MOV      r1,r10                ;1325
0012be  4620              MOV      r0,r4                 ;1325
0012c0  f7fffffe          BL       TEXT_SetTextColor
0012c4  f2af118c          ADR      r1,|L5.4412|
0012c8  4620              MOV      r0,r4                 ;1326
0012ca  f7fffffe          BL       TEXT_SetText
0012ce  2003              MOVS     r0,#3                 ;1327
0012d0  f8890000          STRB     r0,[r9,#0]            ;1327
0012d4  e02c              B        |L5.4912|
0012d6  f640019f          MOV      r1,#0x89f             ;1332
0012da  6868              LDR      r0,[r5,#4]            ;1332  ; hWinset
0012dc  f7fffffe          BL       WM_GetDialogItem
0012e0  4604              MOV      r4,r0                 ;1332
0012e2  4659              MOV      r1,r11                ;1333
0012e4  4620              MOV      r0,r4                 ;1333
0012e6  f7fffffe          BL       TEXT_SetBkColor
0012ea  4651              MOV      r1,r10                ;1334
0012ec  4620              MOV      r0,r4                 ;1334
0012ee  f7fffffe          BL       TEXT_SetTextColor
0012f2  f2af11a8          ADR      r1,|L5.4428|
0012f6  4620              MOV      r0,r4                 ;1335
0012f8  f7fffffe          BL       TEXT_SetText
0012fc  2004              MOVS     r0,#4                 ;1336
0012fe  f8890000          STRB     r0,[r9,#0]            ;1336
001302  e015              B        |L5.4912|
001304  f640019f          MOV      r1,#0x89f             ;1341
001308  6868              LDR      r0,[r5,#4]            ;1341  ; hWinset
00130a  f7fffffe          BL       WM_GetDialogItem
00130e  4604              MOV      r4,r0                 ;1341
001310  4659              MOV      r1,r11                ;1342
001312  4620              MOV      r0,r4                 ;1342
001314  f7fffffe          BL       TEXT_SetBkColor
001318  4651              MOV      r1,r10                ;1343
00131a  4620              MOV      r0,r4                 ;1343
00131c  f7fffffe          BL       TEXT_SetTextColor
001320  f2af11c4          ADR      r1,|L5.4448|
001324  4620              MOV      r0,r4                 ;1344
001326  f7fffffe          BL       TEXT_SetText
00132a  2005              MOVS     r0,#5                 ;1345
00132c  f8890000          STRB     r0,[r9,#0]            ;1345
                  |L5.4912|
001330  f44f6110          MOV      r1,#0x900             ;1350
001334  6868              LDR      r0,[r5,#4]            ;1350  ; hWinset
001336  f7fffffe          BL       WM_GetDialogItem
00133a  f2af2104          ADR      r1,|L5.4408|
00133e  f7fffffe          BL       TEXT_SetText
001342  f6401101          MOV      r1,#0x901             ;1353
001346  6868              LDR      r0,[r5,#4]            ;1353  ; hWinset
001348  f7fffffe          BL       WM_GetDialogItem
00134c  f2af2118          ADR      r1,|L5.4408|
001350  f7fffffe          BL       TEXT_SetText
001354  f6401102          MOV      r1,#0x902             ;1356
001358  6868              LDR      r0,[r5,#4]            ;1356  ; hWinset
00135a  f7fffffe          BL       WM_GetDialogItem
00135e  f2af2128          ADR      r1,|L5.4408|
001362  f7fffffe          BL       TEXT_SetText
001366  f6401103          MOV      r1,#0x903             ;1359
00136a  6868              LDR      r0,[r5,#4]            ;1359  ; hWinset
00136c  f7fffffe          BL       WM_GetDialogItem
001370  f2af213c          ADR      r1,|L5.4408|
001374  f7fffffe          BL       TEXT_SetText
001378  f7fffffe          BL       Write_btype
00137c  2029              MOVS     r0,#0x29              ;1363
00137e  7030              STRB     r0,[r6,#0]            ;1363
                  |L5.4992|
001380  e42d              B        |L5.3038|
001382  4605              MOV      r5,r0                 ;1371
001384  f640019e          MOV      r1,#0x89e             ;1371
001388  4610              MOV      r0,r2                 ;1371
00138a  f7fffffe          BL       WM_GetDialogItem
00138e  9001              STR      r0,[sp,#4]            ;1371
001390  4980              LDR      r1,|L5.5524|
001392  9801              LDR      r0,[sp,#4]            ;1372
001394  f7fffffe          BL       TEXT_SetBkColor
001398  2100              MOVS     r1,#0                 ;1373
00139a  9801              LDR      r0,[sp,#4]            ;1373
00139c  f7fffffe          BL       TEXT_SetTextColor
0013a0  f6401123          MOV      r1,#0x923             ;1375
0013a4  6868              LDR      r0,[r5,#4]            ;1375  ; hWinset
0013a6  f7fffffe          BL       WM_GetDialogItem
0013aa  9001              STR      r0,[sp,#4]            ;1375
0013ac  7828              LDRB     r0,[r5,#0]            ;1376  ; test_mode
0013ae  2801              CMP      r0,#1                 ;1376
0013b0  d002              BEQ      |L5.5048|
0013b2  7828              LDRB     r0,[r5,#0]            ;1380  ; test_mode
0013b4  b150              CBZ      r0,|L5.5068|
0013b6  e012              B        |L5.5086|
                  |L5.5048|
0013b8  4975              LDR      r1,|L5.5520|
0013ba  9801              LDR      r0,[sp,#4]            ;1378
0013bc  f7fffffe          BL       TEXT_SetFont
0013c0  f2af21a8          ADR      r1,|L5.4380|
0013c4  9801              LDR      r0,[sp,#4]            ;1379
0013c6  f7fffffe          BL       TEXT_SetText
0013ca  e008              B        |L5.5086|
                  |L5.5068|
0013cc  4970              LDR      r1,|L5.5520|
0013ce  9801              LDR      r0,[sp,#4]            ;1381
0013d0  f7fffffe          BL       TEXT_SetFont
0013d4  f2af21b4          ADR      r1,|L5.4388|
0013d8  9801              LDR      r0,[sp,#4]            ;1382
0013da  f7fffffe          BL       TEXT_SetText
                  |L5.5086|
0013de  7820              LDRB     r0,[r4,#0]            ;1385  ; buffer
0013e0  2806              CMP      r0,#6                 ;1385
0013e2  d274              BCS      |L5.5326|
0013e4  e8dff000          TBB      [pc,r0]               ;1385
0013e8  7303192f          DCB      0x73,0x03,0x19,0x2f
0013ec  465d              DCB      0x46,0x5d
0013ee  f640019f          MOV      r1,#0x89f             ;1389
0013f2  6868              LDR      r0,[r5,#4]            ;1389  ; hWinset
0013f4  f7fffffe          BL       WM_GetDialogItem
0013f8  4604              MOV      r4,r0                 ;1389
0013fa  4659              MOV      r1,r11                ;1390
0013fc  4620              MOV      r0,r4                 ;1390
0013fe  f7fffffe          BL       TEXT_SetBkColor
001402  4651              MOV      r1,r10                ;1391
001404  4620              MOV      r0,r4                 ;1391
001406  f7fffffe          BL       TEXT_SetTextColor
00140a  f2af219c          ADR      r1,|L5.4464|
00140e  4620              MOV      r0,r4                 ;1392
001410  f7fffffe          BL       TEXT_SetText
001414  f8897000          STRB     r7,[r9,#0]            ;1393
001418  e059              B        |L5.5326|
00141a  f640019f          MOV      r1,#0x89f             ;1398
00141e  6868              LDR      r0,[r5,#4]            ;1398  ; hWinset
001420  f7fffffe          BL       WM_GetDialogItem
001424  4604              MOV      r4,r0                 ;1398
001426  4659              MOV      r1,r11                ;1399
001428  4620              MOV      r0,r4                 ;1399
00142a  f7fffffe          BL       TEXT_SetBkColor
00142e  4651              MOV      r1,r10                ;1400
001430  4620              MOV      r0,r4                 ;1400
001432  f7fffffe          BL       TEXT_SetTextColor
001436  f2af310c          ADR      r1,|L5.4396|
00143a  4620              MOV      r0,r4                 ;1401
00143c  f7fffffe          BL       TEXT_SetText
001440  f8898000          STRB     r8,[r9,#0]            ;1402
001444  e043              B        |L5.5326|
001446  f640019f          MOV      r1,#0x89f             ;1407
00144a  6868              LDR      r0,[r5,#4]            ;1407  ; hWinset
00144c  f7fffffe          BL       WM_GetDialogItem
001450  4604              MOV      r4,r0                 ;1407
001452  4659              MOV      r1,r11                ;1408
001454  4620              MOV      r0,r4                 ;1408
001456  f7fffffe          BL       TEXT_SetBkColor
00145a  4651              MOV      r1,r10                ;1409
00145c  4620              MOV      r0,r4                 ;1409
00145e  f7fffffe          BL       TEXT_SetTextColor
001462  f2af3128          ADR      r1,|L5.4412|
001466  4620              MOV      r0,r4                 ;1410
001468  f7fffffe          BL       TEXT_SetText
00146c  2003              MOVS     r0,#3                 ;1411
00146e  f8890000          STRB     r0,[r9,#0]            ;1411
001472  e02c              B        |L5.5326|
001474  f640019f          MOV      r1,#0x89f             ;1416
001478  6868              LDR      r0,[r5,#4]            ;1416  ; hWinset
00147a  f7fffffe          BL       WM_GetDialogItem
00147e  4604              MOV      r4,r0                 ;1416
001480  4659              MOV      r1,r11                ;1417
001482  4620              MOV      r0,r4                 ;1417
001484  f7fffffe          BL       TEXT_SetBkColor
001488  4651              MOV      r1,r10                ;1418
00148a  4620              MOV      r0,r4                 ;1418
00148c  f7fffffe          BL       TEXT_SetTextColor
001490  f2af3148          ADR      r1,|L5.4428|
001494  4620              MOV      r0,r4                 ;1419
001496  f7fffffe          BL       TEXT_SetText
00149a  2004              MOVS     r0,#4                 ;1420
00149c  f8890000          STRB     r0,[r9,#0]            ;1420
0014a0  e015              B        |L5.5326|
0014a2  f640019f          MOV      r1,#0x89f             ;1425
0014a6  6868              LDR      r0,[r5,#4]            ;1425  ; hWinset
0014a8  f7fffffe          BL       WM_GetDialogItem
0014ac  4604              MOV      r4,r0                 ;1425
0014ae  4659              MOV      r1,r11                ;1426
0014b0  4620              MOV      r0,r4                 ;1426
0014b2  f7fffffe          BL       TEXT_SetBkColor
0014b6  4651              MOV      r1,r10                ;1427
0014b8  4620              MOV      r0,r4                 ;1427
0014ba  f7fffffe          BL       TEXT_SetTextColor
0014be  f2af3160          ADR      r1,|L5.4448|
0014c2  4620              MOV      r0,r4                 ;1428
0014c4  f7fffffe          BL       TEXT_SetText
0014c8  2005              MOVS     r0,#5                 ;1429
0014ca  f8890000          STRB     r0,[r9,#0]            ;1429
                  |L5.5326|
0014ce  f44f6110          MOV      r1,#0x900             ;1434
0014d2  6868              LDR      r0,[r5,#4]            ;1434  ; hWinset
0014d4  f7fffffe          BL       WM_GetDialogItem
0014d8  4604              MOV      r4,r0                 ;1434
0014da  f2af31a4          ADR      r1,|L5.4408|
0014de  4620              MOV      r0,r4                 ;1435
0014e0  f7fffffe          BL       TEXT_SetText
0014e4  4659              MOV      r1,r11                ;1436
0014e6  4620              MOV      r0,r4                 ;1436
0014e8  f7fffffe          BL       TEXT_SetBkColor
0014ec  f6401101          MOV      r1,#0x901             ;1438
0014f0  6868              LDR      r0,[r5,#4]            ;1438  ; hWinset
0014f2  f7fffffe          BL       WM_GetDialogItem
0014f6  f2af31c0          ADR      r1,|L5.4408|
0014fa  f7fffffe          BL       TEXT_SetText
0014fe  f6401102          MOV      r1,#0x902             ;1441
001502  6868              LDR      r0,[r5,#4]            ;1441  ; hWinset
001504  f7fffffe          BL       WM_GetDialogItem
001508  f2af31d4          ADR      r1,|L5.4408|
00150c  f7fffffe          BL       TEXT_SetText
001510  f6401103          MOV      r1,#0x903             ;1444
001514  6868              LDR      r0,[r5,#4]            ;1444  ; hWinset
001516  f7fffffe          BL       WM_GetDialogItem
00151a  f2af31e4          ADR      r1,|L5.4408|
00151e  f7fffffe          BL       TEXT_SetText
001522  f7fffffe          BL       Write_btype
001526  2029              MOVS     r0,#0x29              ;1448
001528  7030              STRB     r0,[r6,#0]            ;1448
00152a  e436              B        |L5.3482|
00152c  4605              MOV      r5,r0                 ;1456
00152e  f640019e          MOV      r1,#0x89e             ;1456
001532  4610              MOV      r0,r2                 ;1456
001534  f7fffffe          BL       WM_GetDialogItem
001538  9001              STR      r0,[sp,#4]            ;1456
00153a  4916              LDR      r1,|L5.5524|
00153c  9801              LDR      r0,[sp,#4]            ;1457
00153e  f7fffffe          BL       TEXT_SetBkColor
001542  2100              MOVS     r1,#0                 ;1458
001544  9801              LDR      r0,[sp,#4]            ;1458
001546  f7fffffe          BL       TEXT_SetTextColor
00154a  f6401123          MOV      r1,#0x923             ;1460
00154e  6868              LDR      r0,[r5,#4]            ;1460  ; hWinset
001550  f7fffffe          BL       WM_GetDialogItem
001554  9001              STR      r0,[sp,#4]            ;1460
001556  7828              LDRB     r0,[r5,#0]            ;1461  ; test_mode
001558  2801              CMP      r0,#1                 ;1461
00155a  d002              BEQ      |L5.5474|
00155c  7828              LDRB     r0,[r5,#0]            ;1465  ; test_mode
00155e  b150              CBZ      r0,|L5.5494|
001560  e012              B        |L5.5512|
                  |L5.5474|
001562  490b              LDR      r1,|L5.5520|
001564  9801              LDR      r0,[sp,#4]            ;1463
001566  f7fffffe          BL       TEXT_SetFont
00156a  f2af4150          ADR      r1,|L5.4380|
00156e  9801              LDR      r0,[sp,#4]            ;1464
001570  f7fffffe          BL       TEXT_SetText
001574  e008              B        |L5.5512|
                  |L5.5494|
001576  4906              LDR      r1,|L5.5520|
001578  9801              LDR      r0,[sp,#4]            ;1466
00157a  f7fffffe          BL       TEXT_SetFont
00157e  f2af415c          ADR      r1,|L5.4388|
001582  9801              LDR      r0,[sp,#4]            ;1467
001584  f7fffffe          BL       TEXT_SetText
                  |L5.5512|
001588  7820              LDRB     r0,[r4,#0]            ;1470  ; buffer
00158a  2806              CMP      r0,#6                 ;1470
00158c  d279              BCS      |L5.5762|
00158e  e003              B        |L5.5528|
                  |L5.5520|
                          DCD      GUI_Fontset_font
                  |L5.5524|
                          DCD      0x00bfffff
                  |L5.5528|
001598  e8dff000          TBB      [pc,r0]               ;1470
00159c  7303192f          DCB      0x73,0x03,0x19,0x2f
0015a0  465d              DCB      0x46,0x5d
0015a2  f640019f          MOV      r1,#0x89f             ;1474
0015a6  6868              LDR      r0,[r5,#4]            ;1474  ; hWinset
0015a8  f7fffffe          BL       WM_GetDialogItem
0015ac  4604              MOV      r4,r0                 ;1474
0015ae  4659              MOV      r1,r11                ;1475
0015b0  4620              MOV      r0,r4                 ;1475
0015b2  f7fffffe          BL       TEXT_SetBkColor
0015b6  4651              MOV      r1,r10                ;1476
0015b8  4620              MOV      r0,r4                 ;1476
0015ba  f7fffffe          BL       TEXT_SetTextColor
0015be  f2af4150          ADR      r1,|L5.4464|
0015c2  4620              MOV      r0,r4                 ;1477
0015c4  f7fffffe          BL       TEXT_SetText
0015c8  f8897000          STRB     r7,[r9,#0]            ;1478
0015cc  e059              B        |L5.5762|
0015ce  f640019f          MOV      r1,#0x89f             ;1483
0015d2  6868              LDR      r0,[r5,#4]            ;1483  ; hWinset
0015d4  f7fffffe          BL       WM_GetDialogItem
0015d8  4604              MOV      r4,r0                 ;1483
0015da  4659              MOV      r1,r11                ;1484
0015dc  4620              MOV      r0,r4                 ;1484
0015de  f7fffffe          BL       TEXT_SetBkColor
0015e2  4651              MOV      r1,r10                ;1485
0015e4  4620              MOV      r0,r4                 ;1485
0015e6  f7fffffe          BL       TEXT_SetTextColor
0015ea  f2af41c0          ADR      r1,|L5.4396|
0015ee  4620              MOV      r0,r4                 ;1486
0015f0  f7fffffe          BL       TEXT_SetText
0015f4  f8898000          STRB     r8,[r9,#0]            ;1487
0015f8  e043              B        |L5.5762|
0015fa  f640019f          MOV      r1,#0x89f             ;1492
0015fe  6868              LDR      r0,[r5,#4]            ;1492  ; hWinset
001600  f7fffffe          BL       WM_GetDialogItem
001604  4604              MOV      r4,r0                 ;1492
001606  4659              MOV      r1,r11                ;1493
001608  4620              MOV      r0,r4                 ;1493
00160a  f7fffffe          BL       TEXT_SetBkColor
00160e  4651              MOV      r1,r10                ;1494
001610  4620              MOV      r0,r4                 ;1494
001612  f7fffffe          BL       TEXT_SetTextColor
001616  f2af41dc          ADR      r1,|L5.4412|
00161a  4620              MOV      r0,r4                 ;1495
00161c  f7fffffe          BL       TEXT_SetText
001620  2003              MOVS     r0,#3                 ;1496
001622  f8890000          STRB     r0,[r9,#0]            ;1496
001626  e02c              B        |L5.5762|
001628  f640019f          MOV      r1,#0x89f             ;1501
00162c  6868              LDR      r0,[r5,#4]            ;1501  ; hWinset
00162e  f7fffffe          BL       WM_GetDialogItem
001632  4604              MOV      r4,r0                 ;1501
001634  4659              MOV      r1,r11                ;1502
001636  4620              MOV      r0,r4                 ;1502
001638  f7fffffe          BL       TEXT_SetBkColor
00163c  4651              MOV      r1,r10                ;1503
00163e  4620              MOV      r0,r4                 ;1503
001640  f7fffffe          BL       TEXT_SetTextColor
001644  f2af41fc          ADR      r1,|L5.4428|
001648  4620              MOV      r0,r4                 ;1504
00164a  f7fffffe          BL       TEXT_SetText
00164e  2004              MOVS     r0,#4                 ;1505
001650  f8890000          STRB     r0,[r9,#0]            ;1505
001654  e015              B        |L5.5762|
001656  f640019f          MOV      r1,#0x89f             ;1510
00165a  6868              LDR      r0,[r5,#4]            ;1510  ; hWinset
00165c  f7fffffe          BL       WM_GetDialogItem
001660  4604              MOV      r4,r0                 ;1510
001662  4659              MOV      r1,r11                ;1511
001664  4620              MOV      r0,r4                 ;1511
001666  f7fffffe          BL       TEXT_SetBkColor
00166a  4651              MOV      r1,r10                ;1512
00166c  4620              MOV      r0,r4                 ;1512
00166e  f7fffffe          BL       TEXT_SetTextColor
001672  f2af5114          ADR      r1,|L5.4448|
001676  4620              MOV      r0,r4                 ;1513
001678  f7fffffe          BL       TEXT_SetText
00167c  2005              MOVS     r0,#5                 ;1514
00167e  f8890000          STRB     r0,[r9,#0]            ;1514
                  |L5.5762|
001682  f44f6110          MOV      r1,#0x900             ;1519
001686  6868              LDR      r0,[r5,#4]            ;1519  ; hWinset
001688  f7fffffe          BL       WM_GetDialogItem
00168c  f2af5158          ADR      r1,|L5.4408|
001690  f7fffffe          BL       TEXT_SetText
001694  f6401101          MOV      r1,#0x901             ;1522
001698  6868              LDR      r0,[r5,#4]            ;1522  ; hWinset
00169a  f7fffffe          BL       WM_GetDialogItem
00169e  4604              MOV      r4,r0                 ;1522
0016a0  f2af516c          ADR      r1,|L5.4408|
0016a4  4620              MOV      r0,r4                 ;1523
0016a6  f7fffffe          BL       TEXT_SetText
0016aa  4659              MOV      r1,r11                ;1524
0016ac  4620              MOV      r0,r4                 ;1524
0016ae  f7fffffe          BL       TEXT_SetBkColor
0016b2  f6401102          MOV      r1,#0x902             ;1526
0016b6  6868              LDR      r0,[r5,#4]            ;1526  ; hWinset
0016b8  f7fffffe          BL       WM_GetDialogItem
0016bc  f2af5188          ADR      r1,|L5.4408|
0016c0  f7fffffe          BL       TEXT_SetText
0016c4  f6401103          MOV      r1,#0x903             ;1529
0016c8  6868              LDR      r0,[r5,#4]            ;1529  ; hWinset
0016ca  f7fffffe          BL       WM_GetDialogItem
0016ce  f2af5198          ADR      r1,|L5.4408|
0016d2  f7fffffe          BL       TEXT_SetText
0016d6  f7fffffe          BL       Write_btype
0016da  2029              MOVS     r0,#0x29              ;1533
0016dc  7030              STRB     r0,[r6,#0]            ;1533
0016de  e580              B        |L5.4578|
0016e0  4605              MOV      r5,r0                 ;1541
0016e2  f640019e          MOV      r1,#0x89e             ;1541
0016e6  4610              MOV      r0,r2                 ;1541
0016e8  f7fffffe          BL       WM_GetDialogItem
0016ec  9001              STR      r0,[sp,#4]            ;1541
0016ee  49d1              LDR      r1,|L5.6708|
0016f0  9801              LDR      r0,[sp,#4]            ;1542
0016f2  f7fffffe          BL       TEXT_SetBkColor
0016f6  2100              MOVS     r1,#0                 ;1543
0016f8  9801              LDR      r0,[sp,#4]            ;1543
0016fa  f7fffffe          BL       TEXT_SetTextColor
0016fe  f6401123          MOV      r1,#0x923             ;1545
001702  6868              LDR      r0,[r5,#4]            ;1545  ; hWinset
001704  f7fffffe          BL       WM_GetDialogItem
001708  9001              STR      r0,[sp,#4]            ;1545
00170a  7828              LDRB     r0,[r5,#0]            ;1546  ; test_mode
00170c  2801              CMP      r0,#1                 ;1546
00170e  d002              BEQ      |L5.5910|
001710  7828              LDRB     r0,[r5,#0]            ;1550  ; test_mode
001712  b150              CBZ      r0,|L5.5930|
001714  e012              B        |L5.5948|
                  |L5.5910|
001716  49c8              LDR      r1,|L5.6712|
001718  9801              LDR      r0,[sp,#4]            ;1548
00171a  f7fffffe          BL       TEXT_SetFont
00171e  f2af6104          ADR      r1,|L5.4380|
001722  9801              LDR      r0,[sp,#4]            ;1549
001724  f7fffffe          BL       TEXT_SetText
001728  e008              B        |L5.5948|
                  |L5.5930|
00172a  49c3              LDR      r1,|L5.6712|
00172c  9801              LDR      r0,[sp,#4]            ;1551
00172e  f7fffffe          BL       TEXT_SetFont
001732  f2af6110          ADR      r1,|L5.4388|
001736  9801              LDR      r0,[sp,#4]            ;1552
001738  f7fffffe          BL       TEXT_SetText
                  |L5.5948|
00173c  7820              LDRB     r0,[r4,#0]            ;1555  ; buffer
00173e  2806              CMP      r0,#6                 ;1555
001740  d274              BCS      |L5.6188|
001742  e8dff000          TBB      [pc,r0]               ;1555
001746  7303              DCB      0x73,0x03
001748  192f465d          DCB      0x19,0x2f,0x46,0x5d
00174c  f640019f          MOV      r1,#0x89f             ;1559
001750  6868              LDR      r0,[r5,#4]            ;1559  ; hWinset
001752  f7fffffe          BL       WM_GetDialogItem
001756  4604              MOV      r4,r0                 ;1559
001758  4659              MOV      r1,r11                ;1560
00175a  4620              MOV      r0,r4                 ;1560
00175c  f7fffffe          BL       TEXT_SetBkColor
001760  4651              MOV      r1,r10                ;1561
001762  4620              MOV      r0,r4                 ;1561
001764  f7fffffe          BL       TEXT_SetTextColor
001768  f2af51fc          ADR      r1,|L5.4464|
00176c  4620              MOV      r0,r4                 ;1562
00176e  f7fffffe          BL       TEXT_SetText
001772  f8897000          STRB     r7,[r9,#0]            ;1563
001776  e059              B        |L5.6188|
001778  f640019f          MOV      r1,#0x89f             ;1568
00177c  6868              LDR      r0,[r5,#4]            ;1568  ; hWinset
00177e  f7fffffe          BL       WM_GetDialogItem
001782  4604              MOV      r4,r0                 ;1568
001784  4659              MOV      r1,r11                ;1569
001786  4620              MOV      r0,r4                 ;1569
001788  f7fffffe          BL       TEXT_SetBkColor
00178c  4651              MOV      r1,r10                ;1570
00178e  4620              MOV      r0,r4                 ;1570
001790  f7fffffe          BL       TEXT_SetTextColor
001794  f2af616c          ADR      r1,|L5.4396|
001798  4620              MOV      r0,r4                 ;1571
00179a  f7fffffe          BL       TEXT_SetText
00179e  f8898000          STRB     r8,[r9,#0]            ;1572
0017a2  e043              B        |L5.6188|
0017a4  f640019f          MOV      r1,#0x89f             ;1577
0017a8  6868              LDR      r0,[r5,#4]            ;1577  ; hWinset
0017aa  f7fffffe          BL       WM_GetDialogItem
0017ae  4604              MOV      r4,r0                 ;1577
0017b0  4659              MOV      r1,r11                ;1578
0017b2  4620              MOV      r0,r4                 ;1578
0017b4  f7fffffe          BL       TEXT_SetBkColor
0017b8  4651              MOV      r1,r10                ;1579
0017ba  4620              MOV      r0,r4                 ;1579
0017bc  f7fffffe          BL       TEXT_SetTextColor
0017c0  f2af6188          ADR      r1,|L5.4412|
0017c4  4620              MOV      r0,r4                 ;1580
0017c6  f7fffffe          BL       TEXT_SetText
0017ca  2003              MOVS     r0,#3                 ;1581
0017cc  f8890000          STRB     r0,[r9,#0]            ;1581
0017d0  e02c              B        |L5.6188|
0017d2  f640019f          MOV      r1,#0x89f             ;1586
0017d6  6868              LDR      r0,[r5,#4]            ;1586  ; hWinset
0017d8  f7fffffe          BL       WM_GetDialogItem
0017dc  4604              MOV      r4,r0                 ;1586
0017de  4659              MOV      r1,r11                ;1587
0017e0  4620              MOV      r0,r4                 ;1587
0017e2  f7fffffe          BL       TEXT_SetBkColor
0017e6  4651              MOV      r1,r10                ;1588
0017e8  4620              MOV      r0,r4                 ;1588
0017ea  f7fffffe          BL       TEXT_SetTextColor
0017ee  f2af61a4          ADR      r1,|L5.4428|
0017f2  4620              MOV      r0,r4                 ;1589
0017f4  f7fffffe          BL       TEXT_SetText
0017f8  2004              MOVS     r0,#4                 ;1590
0017fa  f8890000          STRB     r0,[r9,#0]            ;1590
0017fe  e015              B        |L5.6188|
001800  f640019f          MOV      r1,#0x89f             ;1595
001804  6868              LDR      r0,[r5,#4]            ;1595  ; hWinset
001806  f7fffffe          BL       WM_GetDialogItem
00180a  4604              MOV      r4,r0                 ;1595
00180c  4659              MOV      r1,r11                ;1596
00180e  4620              MOV      r0,r4                 ;1596
001810  f7fffffe          BL       TEXT_SetBkColor
001814  4651              MOV      r1,r10                ;1597
001816  4620              MOV      r0,r4                 ;1597
001818  f7fffffe          BL       TEXT_SetTextColor
00181c  f2af61c0          ADR      r1,|L5.4448|
001820  4620              MOV      r0,r4                 ;1598
001822  f7fffffe          BL       TEXT_SetText
001826  2005              MOVS     r0,#5                 ;1599
001828  f8890000          STRB     r0,[r9,#0]            ;1599
                  |L5.6188|
00182c  f44f6110          MOV      r1,#0x900             ;1604
001830  6868              LDR      r0,[r5,#4]            ;1604  ; hWinset
001832  f7fffffe          BL       WM_GetDialogItem
001836  f2af7100          ADR      r1,|L5.4408|
00183a  f7fffffe          BL       TEXT_SetText
00183e  f6401101          MOV      r1,#0x901             ;1607
001842  6868              LDR      r0,[r5,#4]            ;1607  ; hWinset
001844  f7fffffe          BL       WM_GetDialogItem
001848  f2af7114          ADR      r1,|L5.4408|
00184c  f7fffffe          BL       TEXT_SetText
001850  f6401102          MOV      r1,#0x902             ;1610
001854  6868              LDR      r0,[r5,#4]            ;1610  ; hWinset
001856  f7fffffe          BL       WM_GetDialogItem
00185a  4604              MOV      r4,r0                 ;1610
00185c  f2af7128          ADR      r1,|L5.4408|
001860  4620              MOV      r0,r4                 ;1611
001862  f7fffffe          BL       TEXT_SetText
001866  4659              MOV      r1,r11                ;1612
001868  4620              MOV      r0,r4                 ;1612
00186a  f7fffffe          BL       TEXT_SetBkColor
00186e  f6401103          MOV      r1,#0x903             ;1614
001872  6868              LDR      r0,[r5,#4]            ;1614  ; hWinset
001874  f7fffffe          BL       WM_GetDialogItem
001878  f2af7144          ADR      r1,|L5.4408|
00187c  f7fffffe          BL       TEXT_SetText
001880  f7fffffe          BL       Write_btype
001884  2029              MOVS     r0,#0x29              ;1618
001886  7030              STRB     r0,[r6,#0]            ;1618
001888  e4ab              B        |L5.4578|
00188a  4605              MOV      r5,r0                 ;1626
00188c  f640019e          MOV      r1,#0x89e             ;1626
001890  4610              MOV      r0,r2                 ;1626
001892  f7fffffe          BL       WM_GetDialogItem
001896  9001              STR      r0,[sp,#4]            ;1626
001898  4966              LDR      r1,|L5.6708|
00189a  9801              LDR      r0,[sp,#4]            ;1627
00189c  f7fffffe          BL       TEXT_SetBkColor
0018a0  2100              MOVS     r1,#0                 ;1628
0018a2  9801              LDR      r0,[sp,#4]            ;1628
0018a4  f7fffffe          BL       TEXT_SetTextColor
0018a8  f6401123          MOV      r1,#0x923             ;1630
0018ac  6868              LDR      r0,[r5,#4]            ;1630  ; hWinset
0018ae  f7fffffe          BL       WM_GetDialogItem
0018b2  9001              STR      r0,[sp,#4]            ;1630
0018b4  7828              LDRB     r0,[r5,#0]            ;1631  ; test_mode
0018b6  2801              CMP      r0,#1                 ;1631
0018b8  d002              BEQ      |L5.6336|
0018ba  7828              LDRB     r0,[r5,#0]            ;1635  ; test_mode
0018bc  b150              CBZ      r0,|L5.6356|
0018be  e012              B        |L5.6374|
                  |L5.6336|
0018c0  495d              LDR      r1,|L5.6712|
0018c2  9801              LDR      r0,[sp,#4]            ;1633
0018c4  f7fffffe          BL       TEXT_SetFont
0018c8  f2af71b0          ADR      r1,|L5.4380|
0018cc  9801              LDR      r0,[sp,#4]            ;1634
0018ce  f7fffffe          BL       TEXT_SetText
0018d2  e008              B        |L5.6374|
                  |L5.6356|
0018d4  4958              LDR      r1,|L5.6712|
0018d6  9801              LDR      r0,[sp,#4]            ;1636
0018d8  f7fffffe          BL       TEXT_SetFont
0018dc  f2af71bc          ADR      r1,|L5.4388|
0018e0  9801              LDR      r0,[sp,#4]            ;1637
0018e2  f7fffffe          BL       TEXT_SetText
                  |L5.6374|
0018e6  7820              LDRB     r0,[r4,#0]            ;1640  ; buffer
0018e8  2806              CMP      r0,#6                 ;1640
0018ea  d274              BCS      |L5.6614|
0018ec  e8dff000          TBB      [pc,r0]               ;1640
0018f0  7303192f          DCB      0x73,0x03,0x19,0x2f
0018f4  465d              DCB      0x46,0x5d
0018f6  f640019f          MOV      r1,#0x89f             ;1644
0018fa  6868              LDR      r0,[r5,#4]            ;1644  ; hWinset
0018fc  f7fffffe          BL       WM_GetDialogItem
001900  4604              MOV      r4,r0                 ;1644
001902  4659              MOV      r1,r11                ;1645
001904  4620              MOV      r0,r4                 ;1645
001906  f7fffffe          BL       TEXT_SetBkColor
00190a  4651              MOV      r1,r10                ;1646
00190c  4620              MOV      r0,r4                 ;1646
00190e  f7fffffe          BL       TEXT_SetTextColor
001912  f2af71a4          ADR      r1,|L5.4464|
001916  4620              MOV      r0,r4                 ;1647
001918  f7fffffe          BL       TEXT_SetText
00191c  f8897000          STRB     r7,[r9,#0]            ;1648
001920  e059              B        |L5.6614|
001922  f640019f          MOV      r1,#0x89f             ;1653
001926  6868              LDR      r0,[r5,#4]            ;1653  ; hWinset
001928  f7fffffe          BL       WM_GetDialogItem
00192c  4604              MOV      r4,r0                 ;1653
00192e  4659              MOV      r1,r11                ;1654
001930  4620              MOV      r0,r4                 ;1654
001932  f7fffffe          BL       TEXT_SetBkColor
001936  4651              MOV      r1,r10                ;1655
001938  4620              MOV      r0,r4                 ;1655
00193a  f7fffffe          BL       TEXT_SetTextColor
00193e  f6af0114          ADR      r1,|L5.4396|
001942  4620              MOV      r0,r4                 ;1656
001944  f7fffffe          BL       TEXT_SetText
001948  f8898000          STRB     r8,[r9,#0]            ;1657
00194c  e043              B        |L5.6614|
00194e  f640019f          MOV      r1,#0x89f             ;1662
001952  6868              LDR      r0,[r5,#4]            ;1662  ; hWinset
001954  f7fffffe          BL       WM_GetDialogItem
001958  4604              MOV      r4,r0                 ;1662
00195a  4659              MOV      r1,r11                ;1663
00195c  4620              MOV      r0,r4                 ;1663
00195e  f7fffffe          BL       TEXT_SetBkColor
001962  4651              MOV      r1,r10                ;1664
001964  4620              MOV      r0,r4                 ;1664
001966  f7fffffe          BL       TEXT_SetTextColor
00196a  f6af0130          ADR      r1,|L5.4412|
00196e  4620              MOV      r0,r4                 ;1665
001970  f7fffffe          BL       TEXT_SetText
001974  2003              MOVS     r0,#3                 ;1666
001976  f8890000          STRB     r0,[r9,#0]            ;1666
00197a  e02c              B        |L5.6614|
00197c  f640019f          MOV      r1,#0x89f             ;1671
001980  6868              LDR      r0,[r5,#4]            ;1671  ; hWinset
001982  f7fffffe          BL       WM_GetDialogItem
001986  4604              MOV      r4,r0                 ;1671
001988  4659              MOV      r1,r11                ;1672
00198a  4620              MOV      r0,r4                 ;1672
00198c  f7fffffe          BL       TEXT_SetBkColor
001990  4651              MOV      r1,r10                ;1673
001992  4620              MOV      r0,r4                 ;1673
001994  f7fffffe          BL       TEXT_SetTextColor
001998  f6af0150          ADR      r1,|L5.4428|
00199c  4620              MOV      r0,r4                 ;1674
00199e  f7fffffe          BL       TEXT_SetText
0019a2  2004              MOVS     r0,#4                 ;1675
0019a4  f8890000          STRB     r0,[r9,#0]            ;1675
0019a8  e015              B        |L5.6614|
0019aa  f640019f          MOV      r1,#0x89f             ;1680
0019ae  6868              LDR      r0,[r5,#4]            ;1680  ; hWinset
0019b0  f7fffffe          BL       WM_GetDialogItem
0019b4  4604              MOV      r4,r0                 ;1680
0019b6  4659              MOV      r1,r11                ;1681
0019b8  4620              MOV      r0,r4                 ;1681
0019ba  f7fffffe          BL       TEXT_SetBkColor
0019be  4651              MOV      r1,r10                ;1682
0019c0  4620              MOV      r0,r4                 ;1682
0019c2  f7fffffe          BL       TEXT_SetTextColor
0019c6  f6af0168          ADR      r1,|L5.4448|
0019ca  4620              MOV      r0,r4                 ;1683
0019cc  f7fffffe          BL       TEXT_SetText
0019d0  2005              MOVS     r0,#5                 ;1684
0019d2  f8890000          STRB     r0,[r9,#0]            ;1684
                  |L5.6614|
0019d6  f44f6110          MOV      r1,#0x900             ;1689
0019da  6868              LDR      r0,[r5,#4]            ;1689  ; hWinset
0019dc  f7fffffe          BL       WM_GetDialogItem
0019e0  f6af01ac          ADR      r1,|L5.4408|
0019e4  f7fffffe          BL       TEXT_SetText
0019e8  f6401101          MOV      r1,#0x901             ;1692
0019ec  6868              LDR      r0,[r5,#4]            ;1692  ; hWinset
0019ee  f7fffffe          BL       WM_GetDialogItem
0019f2  f6af01bc          ADR      r1,|L5.4408|
0019f6  f7fffffe          BL       TEXT_SetText
0019fa  f6401102          MOV      r1,#0x902             ;1695
0019fe  6868              LDR      r0,[r5,#4]            ;1695  ; hWinset
001a00  f7fffffe          BL       WM_GetDialogItem
001a04  f6af01d0          ADR      r1,|L5.4408|
001a08  f7fffffe          BL       TEXT_SetText
001a0c  f6401103          MOV      r1,#0x903             ;1698
001a10  6868              LDR      r0,[r5,#4]            ;1698  ; hWinset
001a12  f7fffffe          BL       WM_GetDialogItem
001a16  4604              MOV      r4,r0                 ;1698
001a18  f6af01e4          ADR      r1,|L5.4408|
001a1c  4620              MOV      r0,r4                 ;1699
001a1e  f7fffffe          BL       TEXT_SetText
001a22  4659              MOV      r1,r11                ;1700
001a24  4620              MOV      r0,r4                 ;1700
001a26  f7fffffe          BL       TEXT_SetBkColor
001a2a  f7fffffe          BL       Write_btype
001a2e  2029              MOVS     r0,#0x29              ;1703
001a30  7030              STRB     r0,[r6,#0]            ;1703
001a32  e4a5              B        |L5.4992|
;;;1711   
                          ENDP

                  |L5.6708|
                          DCD      0x00bfffff
                  |L5.6712|
                          DCD      GUI_Fontset_font

                          AREA ||i.ResetSET||, CODE, READONLY, ALIGN=2

                  ResetSET PROC
;;;426    
;;;427    WM_HWIN ResetSET(void) {
000000  b51c              PUSH     {r2-r4,lr}
;;;428      hWinset = GUI_CreateDialogBox(_aDialogCreate5, GUI_COUNTOF(_aDialogCreate5), _cbDialog, WM_HBKWIN, 0, 0);
000002  f7fffffe          BL       WM_GetDesktopWindow
000006  4603              MOV      r3,r0
000008  2000              MOVS     r0,#0
00000a  9000              STR      r0,[sp,#0]
00000c  9001              STR      r0,[sp,#4]
00000e  4a04              LDR      r2,|L6.32|
000010  2107              MOVS     r1,#7
000012  4804              LDR      r0,|L6.36|
000014  f7fffffe          BL       GUI_CreateDialogBox
000018  4903              LDR      r1,|L6.40|
00001a  6048              STR      r0,[r1,#4]  ; hWinset
;;;429      return hWinset;
;;;430    }
00001c  bd1c              POP      {r2-r4,pc}
;;;431    
                          ENDP

00001e  0000              DCW      0x0000
                  |L6.32|
                          DCD      _cbDialog
                  |L6.36|
                          DCD      ||.constdata||
                  |L6.40|
                          DCD      ||.data||

                          AREA ||i.SET_OP_DOWN||, CODE, READONLY, ALIGN=2

                  SET_OP_DOWN PROC
;;;504    
;;;505    void SET_OP_DOWN(void) {
000000  490a              LDR      r1,|L7.44|
;;;506    	 switch(set_sw){
000002  7808              LDRB     r0,[r1,#0]  ; set_sw
000004  2800              CMP      r0,#0
000006  d008              BEQ      |L7.26|
000008  2801              CMP      r0,#1
00000a  d009              BEQ      |L7.32|
00000c  2802              CMP      r0,#2
00000e  d00a              BEQ      |L7.38|
000010  2803              CMP      r0,#3
000012  d101              BNE      |L7.24|
;;;507    		case set_1:
;;;508    		{
;;;509    			set_sw = set_2;
;;;510    			break;
;;;511    		}
;;;512    		case set_2:
;;;513    		{
;;;514    			set_sw = set_3;
;;;515    			break;
;;;516    		}
;;;517    		case set_3:
;;;518    		{
;;;519    			set_sw = set_4;
;;;520    			break;
;;;521    		}
;;;522    		case set_4:
;;;523    		{
;;;524    			set_sw = set_5;
000014  2004              MOVS     r0,#4
000016  7008              STRB     r0,[r1,#0]
                  |L7.24|
;;;525    			break;
;;;526    		}
;;;527    	 }
;;;528    }
000018  4770              BX       lr
                  |L7.26|
00001a  2001              MOVS     r0,#1                 ;509
00001c  7008              STRB     r0,[r1,#0]            ;509
00001e  4770              BX       lr
                  |L7.32|
000020  2002              MOVS     r0,#2                 ;514
000022  7008              STRB     r0,[r1,#0]            ;514
000024  4770              BX       lr
                  |L7.38|
000026  2003              MOVS     r0,#3                 ;519
000028  7008              STRB     r0,[r1,#0]            ;519
00002a  4770              BX       lr
;;;529    
                          ENDP

                  |L7.44|
                          DCD      set_sw

                          AREA ||i.SET_OP_LEFT||, CODE, READONLY, ALIGN=1

                  SET_OP_LEFT PROC
;;;591    
;;;592    void SET_OP_LEFT(void) {
000000  4770              BX       lr
;;;593                   
;;;594    }
;;;595    
                          ENDP


                          AREA ||i.SET_OP_RIGHT||, CODE, READONLY, ALIGN=2

                  SET_OP_RIGHT PROC
;;;555    
;;;556    void SET_OP_RIGHT(void) {
000000  b510              PUSH     {r4,lr}
;;;557                    switch(set_sw){
000002  4815              LDR      r0,|L9.88|
000004  7800              LDRB     r0,[r0,#0]  ; set_sw
000006  2200              MOVS     r2,#0
;;;558                        case set_1:
;;;559                        {
;;;560    						if(set_baud ++ >6)
000008  4914              LDR      r1,|L9.92|
00000a  2800              CMP      r0,#0                 ;557
00000c  d004              BEQ      |L9.24|
00000e  2801              CMP      r0,#1                 ;557
000010  d00c              BEQ      |L9.44|
000012  2802              CMP      r0,#2                 ;557
000014  d11b              BNE      |L9.78|
000016  e012              B        |L9.62|
                  |L9.24|
000018  6fc8              LDR      r0,[r1,#0x7c]  ; Run_Control
00001a  4603              MOV      r3,r0
00001c  1c40              ADDS     r0,r0,#1
00001e  67c8              STR      r0,[r1,#0x7c]  ; Run_Control
000020  2b06              CMP      r3,#6
000022  d900              BLS      |L9.38|
;;;561    						{
;;;562    							set_baud = 0;
000024  67ca              STR      r2,[r1,#0x7c]  ; Run_Control
                  |L9.38|
;;;563    						}
;;;564    						USART_Configuration();
000026  f7fffffe          BL       USART_Configuration
;;;565                            break;
00002a  e010              B        |L9.78|
                  |L9.44|
;;;566                        }                        
;;;567                        case set_2:
;;;568                        {
;;;569                           if(set_beep ++ >0)
00002c  f8d10080          LDR      r0,[r1,#0x80]  ; Run_Control
000030  1c43              ADDS     r3,r0,#1
000032  f8c13080          STR      r3,[r1,#0x80]  ; Run_Control
000036  b150              CBZ      r0,|L9.78|
;;;570    						{
;;;571    							set_beep = 0;
000038  f8c12080          STR      r2,[r1,#0x80]  ; Run_Control
00003c  e007              B        |L9.78|
                  |L9.62|
;;;572    						}
;;;573                            break;
;;;574                        }
;;;575    					case set_3:
;;;576                        {
;;;577                           if(set_disp ++ >0)
00003e  f8d10084          LDR      r0,[r1,#0x84]  ; Run_Control
000042  1c43              ADDS     r3,r0,#1
000044  f8c13084          STR      r3,[r1,#0x84]  ; Run_Control
000048  b108              CBZ      r0,|L9.78|
;;;578    						{
;;;579    							set_disp = 0;
00004a  f8c12084          STR      r2,[r1,#0x84]  ; Run_Control
                  |L9.78|
;;;580    						}
;;;581                            break;
;;;582                        }
;;;583                        
;;;584                        default: break;
;;;585                    }
;;;586    				Write_Limits();
00004e  e8bd4010          POP      {r4,lr}
000052  f7ffbffe          B.W      Write_Limits
;;;587    //                return set_sw;
;;;588    }
;;;589    
                          ENDP

000056  0000              DCW      0x0000
                  |L9.88|
                          DCD      set_sw
                  |L9.92|
                          DCD      Run_Control

                          AREA ||i.SET_OP_UP||, CODE, READONLY, ALIGN=2

                  SET_OP_UP PROC
;;;529    
;;;530    void SET_OP_UP(void) {
000000  490a              LDR      r1,|L10.44|
;;;531    	 switch(set_sw){
000002  7808              LDRB     r0,[r1,#0]  ; set_sw
000004  2801              CMP      r0,#1
000006  d008              BEQ      |L10.26|
000008  2802              CMP      r0,#2
00000a  d009              BEQ      |L10.32|
00000c  2803              CMP      r0,#3
00000e  d00a              BEQ      |L10.38|
000010  2804              CMP      r0,#4
000012  d101              BNE      |L10.24|
;;;532    		case set_2:
;;;533    		{
;;;534    			set_sw = set_1;
;;;535    			break;
;;;536    		}
;;;537    		case set_3:
;;;538    		{
;;;539    			set_sw = set_2;
;;;540    			break;
;;;541    		}
;;;542    		case set_4:
;;;543    		{
;;;544    			set_sw = set_3;
;;;545    			break;
;;;546    		}
;;;547    		case set_5:
;;;548    		{
;;;549    			set_sw = set_4;
000014  2003              MOVS     r0,#3
000016  7008              STRB     r0,[r1,#0]
                  |L10.24|
;;;550    			break;
;;;551    		}
;;;552    	 }
;;;553    }
000018  4770              BX       lr
                  |L10.26|
00001a  2000              MOVS     r0,#0                 ;534
00001c  7008              STRB     r0,[r1,#0]            ;534
00001e  4770              BX       lr
                  |L10.32|
000020  2001              MOVS     r0,#1                 ;539
000022  7008              STRB     r0,[r1,#0]            ;539
000024  4770              BX       lr
                  |L10.38|
000026  2002              MOVS     r0,#2                 ;544
000028  7008              STRB     r0,[r1,#0]            ;544
00002a  4770              BX       lr
;;;554    //ÂêëÂè≥ÈÄâÊã©
                          ENDP

                  |L10.44|
                          DCD      set_sw

                          AREA ||i._cbDialog||, CODE, READONLY, ALIGN=2

                          REQUIRE _printf_percent
                          REQUIRE _printf_widthprec
                          REQUIRE _printf_f
                          REQUIRE _printf_fp_dec
                  _cbDialog PROC
;;;166    */
;;;167    static void _cbDialog(WM_MESSAGE * pMsg) {
000000  e92d4ffe          PUSH     {r1-r11,lr}
000004  4604              MOV      r4,r0
;;;168        WM_HWIN hItem;
;;;169    
;;;170        char buf[10];   
;;;171    
;;;172    
;;;173        
;;;174      
;;;175      // USER START (Optionally insert additional variables)
;;;176      // USER END
;;;177    
;;;178      switch (pMsg->MsgId) {
;;;179                
;;;180    		
;;;181    	case WM_PAINT:
;;;182    	GUI_SetColor(GUI_WHITE);// ®◊É€≠“ä“ï…´
000006  f06f477f          MVN      r7,#0xff000000
00000a  6820              LDR      r0,[r4,#0]            ;178
;;;183    	GUI_FillRect(0,25,480,26);//€≠“ªÕµ µ–ü
;;;184        GUI_SetColor(GUI_ORANGE);
;;;185    	GUI_SetFont(&GUI_Fontsymbol);
;;;186    	GUI_UC_SetEncodeUTF8();
;;;187    	GUI_SetTextMode(GUI_TM_TRANS);// ®◊ÉœÑ—æƒ£ ΩŒ™÷ó…´Õ∏ƒ∑
;;;188    	GUI_DispStringAt("Jinko", 5, 1);//SET
;;;189    	GUI_SetColor(GUI_WHITE);
;;;190    	GUI_SetFont(&GUI_FontHZ20S);
;;;191    	GUI_UC_SetEncodeUTF8();
;;;192    	GUI_SetTextMode(GUI_TM_TRANS);// ®◊ÉœÑ—æƒ£ ΩŒ™÷ó…´Õ∏ƒ∑
;;;193    	GUI_DispStringAt("Á≥ªÁªüËÆæÁΩÆ", 130, 3);//SET
;;;194    // 	GUI_SetColor(GUI_WHITE);// ®◊É«∞ﬁ∞…´Œ™—ó…´
;;;195    // 	GUI_SetFont(&GUI_Font24_1);//
;;;196    //    GUI_DispStringAt("V",220,125);
;;;197    //    GUI_DispStringAt("V",220,150);
;;;198    //    GUI_DispStringAt("A",451,50);
;;;199    //    GUI_DispStringAt("A",451,75);
;;;200    //    GUI_DispStringAt("m",195,175);
;;;201    //    GUI_DispStringAt("m",195,200);
;;;202    //    GUI_SetFont(&GUI_FontHZ16);
;;;203    //    GUI_DispStringAt("Œ©",211,182);
;;;204    //    GUI_DispStringAt("Œ©",211,207);
;;;205    //	GUI_SetColor(GUI_WHITE);// ®◊É«∞ﬁ∞…´Œ™—ó…´
;;;206    // 	GUI_SetFont(&GUI_Font16_1);//
;;;207    //	GUI_DispStringAt("H",173,122);
;;;208    //    GUI_DispStringAt("L",173,136);
;;;209    //    GUI_DispStringAt("H",173,150);
;;;210    //    GUI_DispStringAt("L",173,164);
;;;211    //	GUI_DispStringAt("H",404,47);
;;;212    //    GUI_DispStringAt("L",404,61);
;;;213    //    GUI_DispStringAt("H",404,75);
;;;214    //    GUI_DispStringAt("L",404,89);
;;;215        
;;;216        GUI_SetColor(GUI_GREEN);
00000c  f44f487f          MOV      r8,#0xff00
000010  280f              CMP      r0,#0xf               ;178
000012  d00b              BEQ      |L11.44|
;;;217        GUI_SetFont(&GUI_Fontunit);
;;;218        GUI_DispStringAt("¬∞",342, 2);
;;;219        GUI_SetFont(&GUI_Font24_1);
;;;220        GUI_DispStringAt("C",350, 2);
;;;221    	
;;;222    	GUI_SetColor(GUI_WHITE);
;;;223        GUI_SetFont(&GUI_Fontset_font);
;;;224    	GUI_DispStringAt("Ê≥¢ÁâπÁéá",30,50);
;;;225    	GUI_DispStringAt("ËúÇÈ∏£Âô®",30,75);
;;;226    	GUI_DispStringAt("ÊòæÁ§∫",30,100);
;;;227    	GUI_DispStringAt("ÁîµÂéã‰∏äÈôê",30,125);
;;;228    	GUI_DispStringAt("ÁîµÊµÅ‰∏äÈôê",30,150);
;;;229    //    DrawLock();
;;;230        
;;;231    	break;
;;;232    	case WM_TIMER://÷® ±ƒ£‡†©–ªœ¢
;;;233    	if(WM_GetTimerId(pMsg->Data.v) == ID_TimerTime5)
;;;234    	{
;;;235    //        lockstat2 = lockstat1;
;;;236    //        lockstat1 = lock; 
;;;237    //        if(lockstat1 != lockstat2)
;;;238    //        {
;;;239    //            WM_InvalidateWindow(hWinset);
;;;240    //        }
;;;241    		if(bit == 1)
;;;242    		{
;;;243    			DISP_SET();
;;;244    		}
;;;245            hItem = WM_GetDialogItem(pMsg->hWin, ID_TEXT_129);       
;;;246            sprintf(buf,"%.1f",temp);
000014  4eb9              LDR      r6,|L11.764|
000016  281d              CMP      r0,#0x1d              ;178
000018  d07d              BEQ      |L11.278|
00001a  f5a07080          SUB      r0,r0,#0x100          ;178
00001e  3813              SUBS     r0,r0,#0x13           ;178
000020  d064              BEQ      |L11.236|
;;;247            TEXT_SetText(hItem,buf);
;;;248            
;;;249    //		WM_InvalidateWindow(hWinset);//œû–ß€Ø‘∞‡†ö        
;;;250    		WM_RestartTimer(pMsg->Data.v,20);//ÿ¥Œª÷® ±«∑ÀΩ÷µ‘Ω’≥À¢—Ç ±›§‘Ω◊å
;;;251    	}
;;;252    	break;
;;;253        
;;;254    		
;;;255      case WM_INIT_DIALOG:
;;;256        //
;;;257        // Initialization of 'R'
;;;258    	
;;;259        //
;;;260            hItem = pMsg->hWin;
;;;261            WINDOW_SetBkColor(hItem, GUI_BLACK);
;;;262    		WM_CreateTimer(hItem,ID_TimerTime5,300,0);//‘¥›®—æ‘∞‡†ö÷® ±«∑
;;;263        //
;;;264    
;;;265        //    
;;;266    // 		hItem = WM_GetDialogItem(pMsg->hWin, ID_BUTTON_30);
;;;267    // 		BUTTON_SetTextColor(hItem,0,GUI_BLACK);// ®◊ÉÿñÕ•“ï…´Œ™€ö…´
;;;268    // 		BUTTON_SetFont      (hItem,    &GUI_FontHZ16);// ®÷®–¥≈•œÑ—æÿñÕ•
;;;269    // 		GUI_UC_SetEncodeUTF8();
;;;270    // 		BUTTON_SetText(hItem,"ÂÖÖÊîæÁîµ");
;;;271    	
;;;272    	
;;;273    
;;;274    //		
;;;275    //		hItem = WM_GetDialogItem(pMsg->hWin, ID_BUTTON_33);
;;;276    ////		BUTTON_SetTextColor(hItem,0,GUI_BLACK);// ®◊ÉÿñÕ•“ï…´Œ™€ö…´
;;;277    //		BUTTON_SetFont      (hItem,    &GUI_FontHZ16);// ®÷®–¥≈•œÑ—æÿñÕ•
;;;278    //		GUI_UC_SetEncodeUTF8();
;;;279    //		BUTTON_SetText(hItem,"Á®ãÊéßÁîµÊ∫ê");
;;;280    		
;;;281    		hItem = WM_GetDialogItem(hWinset, ID_TEXT_28);
;;;282    		TEXT_SetBkColor(hItem,0x00BFFFFF);//ÈÄâÈ°πËÉåÊôØËâ≤ËÆæ‰∏∫Á±≥Ëâ≤
;;;283    		TEXT_SetTextColor(hItem, GUI_BLACK);
;;;284    		TEXT_SetFont(hItem,&GUI_Font24_1);//ËÆæÂÆöÊñáÊú¨Â≠ó‰Ωì
;;;285            GUI_UC_SetEncodeUTF8();
;;;286    		TEXT_SetText(hItem,BAUDSET[set_baud]);
;;;287    		
;;;288    		hItem = WM_GetDialogItem(hWinset, ID_TEXT_29);
;;;289    		TEXT_SetBkColor(hItem,GUI_INVALID_COLOR);//ÈÄâÈ°πËÉåÊôØËâ≤ËÆæ‰∏∫Á±≥Ëâ≤
;;;290    		TEXT_SetTextColor(hItem, GUI_WHITE);
;;;291    		TEXT_SetFont(hItem,&GUI_Font24_1);//ËÆæÂÆöÊñáÊú¨Â≠ó‰Ωì
;;;292            GUI_UC_SetEncodeUTF8();
;;;293    		TEXT_SetText(hItem,BEEPSET[set_beep]);
;;;294    		
;;;295    		hItem = WM_GetDialogItem(hWinset, ID_TEXT_30);
;;;296    		TEXT_SetBkColor(hItem,GUI_INVALID_COLOR);//ÈÄâÈ°πËÉåÊôØËâ≤ËÆæ‰∏∫Á±≥Ëâ≤
;;;297    		TEXT_SetTextColor(hItem, GUI_WHITE);
;;;298    		TEXT_SetFont(hItem,&GUI_Fontset_font);//ËÆæÂÆöÊñáÊú¨Â≠ó‰Ωì
;;;299            GUI_UC_SetEncodeUTF8();
;;;300    		TEXT_SetText(hItem,DISPLAY[set_disp]);
;;;301    		
;;;302    		hItem = WM_GetDialogItem(pMsg->hWin, ID_TEXT_31);
;;;303    		TEXT_SetBkColor(hItem,GUI_INVALID_COLOR);//ÈÄâÈ°πËÉåÊôØËâ≤ËÆæ‰∏∫Á±≥Ëâ≤
;;;304    		TEXT_SetTextColor(hItem, GUI_WHITE);
;;;305    		TEXT_SetFont(hItem,&GUI_Font24_1);//ËÆæÂÆöÊñáÊú¨Â≠ó‰Ωì
;;;306            GUI_UC_SetEncodeUTF8();
;;;307    		sprintf(buf,"%.2f",(float)set_max_v/100);
;;;308    		TEXT_SetText(hItem,buf);
;;;309    	
;;;310    		hItem = WM_GetDialogItem(pMsg->hWin, ID_TEXT_32);
;;;311    		TEXT_SetBkColor(hItem,GUI_INVALID_COLOR);//ÈÄâÈ°πËÉåÊôØËâ≤ËÆæ‰∏∫Á±≥Ëâ≤
;;;312    		TEXT_SetTextColor(hItem, GUI_WHITE);
;;;313    		TEXT_SetFont(hItem,&GUI_Font24_1);//ËÆæÂÆöÊñáÊú¨Â≠ó‰Ωì
;;;314            sprintf(buf,"%.3f",(float)set_max_c/1000);
;;;315    		TEXT_SetText(hItem,buf);
;;;316    
;;;317    
;;;318    //		TEXT_SetText(hItem,"ON");
;;;319    		
;;;320    //		hItem = WM_GetDialogItem(pMsg->hWin, ID_BUTTON_34);
;;;321    ////		BUTTON_SetTextColor(hItem,0,GUI_BLACK);// ®◊ÉÿñÕ•“ï…´Œ™€ö…´
;;;322    //		BUTTON_SetFont      (hItem,    &GUI_FontHZ16);// ®÷®–¥≈•œÑ—æÿñÕ•
;;;323    //		GUI_UC_SetEncodeUTF8();
;;;324    //		BUTTON_SetText(hItem,"ÂÖÖÊîæÁîµ"); 
;;;325    //		
;;;326    //		hItem = WM_GetDialogItem(pMsg->hWin, ID_BUTTON_35);
;;;327    ////		BUTTON_SetTextColor(hItem,0,GUI_BLACK);// ®◊ÉÿñÕ•“ï…´Œ™€ö…´
;;;328    //		BUTTON_SetFont      (hItem,&GUI_FontHZ16);// ®÷®–¥≈•œÑ—æÿñÕ•
;;;329    //		GUI_UC_SetEncodeUTF8();
;;;330    //		BUTTON_SetText(hItem,"ËøîÂõû");
;;;331            
;;;332    //        hItem = WM_GetDialogItem(pMsg->hWin, ID_TEXT_21);
;;;333    //		TEXT_SetTextColor(hItem, GUI_BLACK);//ËÆæÁΩÆÂ≠ó‰ΩìÈ¢úËâ≤
;;;334    //        TEXT_SetFont(hItem,&GUI_Fontset_font);//ËÆæÂÆöÊñáÊú¨Â≠ó‰Ωì
;;;335    //        TEXT_SetBkColor(hItem,0x00BFFFFF);
;;;336    //		GUI_UC_SetEncodeUTF8();
;;;337    //		TEXT_SetText(hItem,"ÂàÜÈÄâÂºÄÂÖ≥");
;;;338    //		
;;;339    //		hItem = WM_GetDialogItem(pMsg->hWin, ID_TEXT_22);
;;;340    //		TEXT_SetTextColor(hItem, GUI_WHITE);//ËÆæÁΩÆÂ≠ó‰ΩìÈ¢úËâ≤
;;;341    //        TEXT_SetFont(hItem,&GUI_Fontset_font);//ËÆæÂÆöÊñáÊú¨Â≠ó‰Ωì
;;;342    //		GUI_UC_SetEncodeUTF8();
;;;343    //		TEXT_SetText(hItem,"ËøáÊµÅÊµãËØï");
;;;344    //        
;;;345    //        hItem = WM_GetDialogItem(pMsg->hWin, ID_TEXT_23);
;;;346    //		TEXT_SetTextColor(hItem, GUI_WHITE);//ËÆæÁΩÆÂ≠ó‰ΩìÈ¢úËâ≤
;;;347    //        TEXT_SetFont(hItem,&GUI_Fontset_font);//ËÆæÂÆöÊñáÊú¨Â≠ó‰Ωì
;;;348    //		GUI_UC_SetEncodeUTF8();
;;;349    //		TEXT_SetText(hItem,"Êä•Ë≠¶Â£∞Èü≥");
;;;350    //		
;;;351    //		hItem = WM_GetDialogItem(pMsg->hWin, ID_TEXT_24);
;;;352    //		TEXT_SetTextColor(hItem, GUI_WHITE);//ËÆæÁΩÆÂ≠ó‰ΩìÈ¢úËâ≤
;;;353    //        TEXT_SetFont(hItem,&GUI_Fontset_font);//ËÆæÂÆöÊñáÊú¨Â≠ó‰Ωì
;;;354    //		GUI_UC_SetEncodeUTF8();
;;;355    //		TEXT_SetText(hItem,"ÁîµÂéã‰∏ä‰∏ãÈôê");
;;;356    //        
;;;357    //        hItem = WM_GetDialogItem(pMsg->hWin, ID_TEXT_25);
;;;358    //		TEXT_SetTextColor(hItem, GUI_WHITE);//ËÆæÁΩÆÂ≠ó‰ΩìÈ¢úËâ≤
;;;359    //        TEXT_SetFont(hItem,&GUI_Fontset_font);//ËÆæÂÆöÊñáÊú¨Â≠ó‰Ωì
;;;360    //		GUI_UC_SetEncodeUTF8();
;;;361    //		TEXT_SetText(hItem,"Ë¥üËΩΩÁîµÂéã‰∏ä‰∏ãÈôê");
;;;362    //        
;;;363    //        hItem = WM_GetDialogItem(pMsg->hWin, ID_TEXT_26);
;;;364    //		TEXT_SetTextColor(hItem, GUI_WHITE);//ËÆæÁΩÆÂ≠ó‰ΩìÈ¢úËâ≤
;;;365    //        TEXT_SetFont(hItem,&GUI_Fontset_font);//ËÆæÂÆöÊñáÊú¨Â≠ó‰Ωì
;;;366    //		GUI_UC_SetEncodeUTF8();
;;;367    //		TEXT_SetText(hItem,"ÂÜÖÈòª‰∏äÈôê");
;;;368    //        
;;;369    //        hItem = WM_GetDialogItem(pMsg->hWin, ID_TEXT_27);
;;;370    //		TEXT_SetTextColor(hItem, GUI_WHITE);//ËÆæÁΩÆÂ≠ó‰ΩìÈ¢úËâ≤
;;;371    //        TEXT_SetFont(hItem,&GUI_Fontset_font);//ËÆæÂÆöÊñáÊú¨Â≠ó‰Ωì
;;;372    //		GUI_UC_SetEncodeUTF8();
;;;373    //		TEXT_SetText(hItem,"ÂÜÖÈòª‰∏ãÈôê");
;;;374            
;;;375    
;;;376                            
;;;377            
;;;378            
;;;379            
;;;380          
;;;381    
;;;382            
;;;383            hItem = WM_GetDialogItem(pMsg->hWin, ID_TEXT_129);
;;;384            TEXT_SetTextColor(hItem, GUI_GREEN);//…Ë÷√◊÷ÃÂ—’…´
;;;385            TEXT_SetFont(hItem,&GUI_Font24_1);//…Ë∂®Œƒ±æ◊÷ÃÂ       
;;;386            sprintf(buf,"%.1f",temp);
;;;387            TEXT_SetText(hItem,buf);
;;;388            
;;;389            
;;;390    
;;;391            
;;;392            
;;;393            
;;;394    
;;;395        // USER START (Optionally insert additional code for further widget initialization)
;;;396        // USER END
;;;397            break;
;;;398      // USER START (Optionally insert additional message handling)
;;;399      // USER END
;;;400        default:
;;;401            WM_DefaultProc(pMsg);
000022  4620              MOV      r0,r4
000024  f7fffffe          BL       WM_DefaultProc
                  |L11.40|
;;;402            break;
;;;403      }
;;;404    }
000028  e8bd8ffe          POP      {r1-r11,pc}
                  |L11.44|
00002c  4638              MOV      r0,r7                 ;182
00002e  f7fffffe          BL       GUI_SetColor
000032  231a              MOVS     r3,#0x1a              ;183
000034  f44f72f0          MOV      r2,#0x1e0             ;183
000038  2119              MOVS     r1,#0x19              ;183
00003a  2000              MOVS     r0,#0                 ;183
00003c  f7fffffe          BL       GUI_FillRect
000040  f24a50ff          MOV      r0,#0xa5ff            ;184
000044  f7fffffe          BL       GUI_SetColor
000048  48ad              LDR      r0,|L11.768|
00004a  f7fffffe          BL       GUI_SetFont
00004e  f7fffffe          BL       GUI_UC_SetEncodeUTF8
000052  2002              MOVS     r0,#2                 ;187
000054  f7fffffe          BL       GUI_SetTextMode
000058  2201              MOVS     r2,#1                 ;188
00005a  2105              MOVS     r1,#5                 ;188
00005c  a0a9              ADR      r0,|L11.772|
00005e  f7fffffe          BL       GUI_DispStringAt
000062  4638              MOV      r0,r7                 ;189
000064  f7fffffe          BL       GUI_SetColor
000068  48a8              LDR      r0,|L11.780|
00006a  f7fffffe          BL       GUI_SetFont
00006e  f7fffffe          BL       GUI_UC_SetEncodeUTF8
000072  2002              MOVS     r0,#2                 ;192
000074  f7fffffe          BL       GUI_SetTextMode
000078  2203              MOVS     r2,#3                 ;193
00007a  2182              MOVS     r1,#0x82              ;193
00007c  a0a4              ADR      r0,|L11.784|
00007e  f7fffffe          BL       GUI_DispStringAt
000082  4640              MOV      r0,r8                 ;216
000084  f7fffffe          BL       GUI_SetColor
000088  48a5              LDR      r0,|L11.800|
00008a  f7fffffe          BL       GUI_SetFont
00008e  2202              MOVS     r2,#2                 ;218
000090  f44f71ab          MOV      r1,#0x156             ;218
000094  a0a3              ADR      r0,|L11.804|
000096  f7fffffe          BL       GUI_DispStringAt
00009a  48a3              LDR      r0,|L11.808|
00009c  f7fffffe          BL       GUI_SetFont
0000a0  2202              MOVS     r2,#2                 ;220
0000a2  f44f71af          MOV      r1,#0x15e             ;220
0000a6  a0a1              ADR      r0,|L11.812|
0000a8  f7fffffe          BL       GUI_DispStringAt
0000ac  4638              MOV      r0,r7                 ;222
0000ae  f7fffffe          BL       GUI_SetColor
0000b2  489f              LDR      r0,|L11.816|
0000b4  f7fffffe          BL       GUI_SetFont
0000b8  2232              MOVS     r2,#0x32              ;224
0000ba  211e              MOVS     r1,#0x1e              ;224
0000bc  a09d              ADR      r0,|L11.820|
0000be  f7fffffe          BL       GUI_DispStringAt
0000c2  224b              MOVS     r2,#0x4b              ;225
0000c4  211e              MOVS     r1,#0x1e              ;225
0000c6  a09e              ADR      r0,|L11.832|
0000c8  f7fffffe          BL       GUI_DispStringAt
0000cc  2264              MOVS     r2,#0x64              ;226
0000ce  211e              MOVS     r1,#0x1e              ;226
0000d0  a09e              ADR      r0,|L11.844|
0000d2  f7fffffe          BL       GUI_DispStringAt
0000d6  227d              MOVS     r2,#0x7d              ;227
0000d8  211e              MOVS     r1,#0x1e              ;227
0000da  a09e              ADR      r0,|L11.852|
0000dc  f7fffffe          BL       GUI_DispStringAt
0000e0  2296              MOVS     r2,#0x96              ;228
0000e2  211e              MOVS     r1,#0x1e              ;228
0000e4  a09f              ADR      r0,|L11.868|
0000e6  f7fffffe          BL       GUI_DispStringAt
0000ea  e79d              B        |L11.40|
                  |L11.236|
0000ec  68e0              LDR      r0,[r4,#0xc]          ;233
0000ee  f7fffffe          BL       WM_GetTimerId
0000f2  2806              CMP      r0,#6                 ;233
0000f4  d198              BNE      |L11.40|
0000f6  489f              LDR      r0,|L11.884|
0000f8  7800              LDRB     r0,[r0,#0]            ;241  ; bit
0000fa  2801              CMP      r0,#1                 ;241
0000fc  d101              BNE      |L11.258|
0000fe  f7fffffe          BL       DISP_SET
                  |L11.258|
000102  f640110a          MOV      r1,#0x90a             ;245
000106  6860              LDR      r0,[r4,#4]            ;245
000108  f7fffffe          BL       WM_GetDialogItem
00010c  4605              MOV      r5,r0                 ;245
00010e  6830              LDR      r0,[r6,#0]            ;246  ; temp
000110  f7fffffe          BL       __aeabi_f2d
000114  e000              B        |L11.280|
                  |L11.278|
000116  e010              B        |L11.314|
                  |L11.280|
000118  ec410b10          VMOV     d0,r0,r1              ;246
00011c  a196              ADR      r1,|L11.888|
00011e  ec532b10          VMOV     r2,r3,d0              ;246
000122  4668              MOV      r0,sp                 ;246
000124  f7fffffe          BL       __2sprintf
000128  4669              MOV      r1,sp                 ;247
00012a  4628              MOV      r0,r5                 ;247
00012c  f7fffffe          BL       TEXT_SetText
000130  2114              MOVS     r1,#0x14              ;250
000132  68e0              LDR      r0,[r4,#0xc]          ;250
000134  f7fffffe          BL       WM_RestartTimer
000138  e776              B        |L11.40|
                  |L11.314|
00013a  6865              LDR      r5,[r4,#4]            ;260
00013c  2100              MOVS     r1,#0                 ;261
00013e  4628              MOV      r0,r5                 ;261
000140  f7fffffe          BL       WINDOW_SetBkColor
000144  2300              MOVS     r3,#0                 ;262
000146  f44f7296          MOV      r2,#0x12c             ;262
00014a  2106              MOVS     r1,#6                 ;262
00014c  4628              MOV      r0,r5                 ;262
00014e  f7fffffe          BL       WM_CreateTimer
000152  f8dfa22c          LDR      r10,|L11.896|
000156  f6400132          MOV      r1,#0x832             ;281
00015a  f8da0004          LDR      r0,[r10,#4]           ;281  ; hWinset
00015e  f7fffffe          BL       WM_GetDialogItem
000162  4681              MOV      r9,r0                 ;281
000164  4987              LDR      r1,|L11.900|
000166  4648              MOV      r0,r9                 ;282
000168  f7fffffe          BL       TEXT_SetBkColor
00016c  2100              MOVS     r1,#0                 ;283
00016e  4648              MOV      r0,r9                 ;283
000170  f7fffffe          BL       TEXT_SetTextColor
000174  496c              LDR      r1,|L11.808|
000176  4648              MOV      r0,r9                 ;284
000178  f7fffffe          BL       TEXT_SetFont
00017c  f7fffffe          BL       GUI_UC_SetEncodeUTF8
000180  4d81              LDR      r5,|L11.904|
000182  6c68              LDR      r0,[r5,#0x44]         ;286  ; Run_Control
000184  f10a010e          ADD      r1,r10,#0xe           ;286
000188  eb000040          ADD      r0,r0,r0,LSL #1       ;286
00018c  eb010140          ADD      r1,r1,r0,LSL #1       ;286
000190  4648              MOV      r0,r9                 ;286
000192  f7fffffe          BL       TEXT_SetText
000196  f6400133          MOV      r1,#0x833             ;288
00019a  f8da0004          LDR      r0,[r10,#4]           ;288  ; hWinset
00019e  f7fffffe          BL       WM_GetDialogItem
0001a2  4683              MOV      r11,r0                ;288
0001a4  f06f4970          MVN      r9,#0xf0000000        ;289
0001a8  4649              MOV      r1,r9                 ;289
0001aa  4658              MOV      r0,r11                ;289
0001ac  f7fffffe          BL       TEXT_SetBkColor
0001b0  4639              MOV      r1,r7                 ;290
0001b2  4658              MOV      r0,r11                ;290
0001b4  f7fffffe          BL       TEXT_SetTextColor
0001b8  495b              LDR      r1,|L11.808|
0001ba  4658              MOV      r0,r11                ;291
0001bc  f7fffffe          BL       TEXT_SetFont
0001c0  f7fffffe          BL       GUI_UC_SetEncodeUTF8
0001c4  6ca8              LDR      r0,[r5,#0x48]         ;293  ; Run_Control
0001c6  f10a0108          ADD      r1,r10,#8             ;293
0001ca  eb000040          ADD      r0,r0,r0,LSL #1       ;293
0001ce  4401              ADD      r1,r1,r0              ;293
0001d0  4658              MOV      r0,r11                ;293
0001d2  f7fffffe          BL       TEXT_SetText
0001d6  f6400134          MOV      r1,#0x834             ;295
0001da  f8da0004          LDR      r0,[r10,#4]           ;295  ; hWinset
0001de  f7fffffe          BL       WM_GetDialogItem
0001e2  4682              MOV      r10,r0                ;295
0001e4  4649              MOV      r1,r9                 ;296
0001e6  4650              MOV      r0,r10                ;296
0001e8  f7fffffe          BL       TEXT_SetBkColor
0001ec  4639              MOV      r1,r7                 ;297
0001ee  4650              MOV      r0,r10                ;297
0001f0  f7fffffe          BL       TEXT_SetTextColor
0001f4  494e              LDR      r1,|L11.816|
0001f6  4650              MOV      r0,r10                ;298
0001f8  f7fffffe          BL       TEXT_SetFont
0001fc  f7fffffe          BL       GUI_UC_SetEncodeUTF8
000200  6ce8              LDR      r0,[r5,#0x4c]         ;300  ; Run_Control
000202  495f              LDR      r1,|L11.896|
000204  313e              ADDS     r1,r1,#0x3e           ;300
000206  eb0101c0          ADD      r1,r1,r0,LSL #3       ;300
00020a  4650              MOV      r0,r10                ;300
00020c  f7fffffe          BL       TEXT_SetText
000210  f640013b          MOV      r1,#0x83b             ;302
000214  6860              LDR      r0,[r4,#4]            ;302
000216  f7fffffe          BL       WM_GetDialogItem
00021a  4682              MOV      r10,r0                ;302
00021c  4649              MOV      r1,r9                 ;303
00021e  4650              MOV      r0,r10                ;303
000220  f7fffffe          BL       TEXT_SetBkColor
000224  4639              MOV      r1,r7                 ;304
000226  4650              MOV      r0,r10                ;304
000228  f7fffffe          BL       TEXT_SetTextColor
00022c  493e              LDR      r1,|L11.808|
00022e  4650              MOV      r0,r10                ;305
000230  f7fffffe          BL       TEXT_SetFont
000234  f7fffffe          BL       GUI_UC_SetEncodeUTF8
000238  6828              LDR      r0,[r5,#0]            ;307  ; Run_Control
00023a  ee000a10          VMOV     s0,r0                 ;307
00023e  eef80a40          VCVT.F32.U32 s1,s0                 ;307
000242  ed9f1a52          VLDR     s2,|L11.908|
000246  ee800a81          VDIV.F32 s0,s1,s2              ;307
00024a  ee100a10          VMOV     r0,s0                 ;307
00024e  f7fffffe          BL       __aeabi_f2d
000252  ec410b10          VMOV     d0,r0,r1              ;307
000256  a14e              ADR      r1,|L11.912|
000258  ec532b10          VMOV     r2,r3,d0              ;307
00025c  4668              MOV      r0,sp                 ;307
00025e  f7fffffe          BL       __2sprintf
000262  4669              MOV      r1,sp                 ;308
000264  4650              MOV      r0,r10                ;308
000266  f7fffffe          BL       TEXT_SetText
00026a  f640013c          MOV      r1,#0x83c             ;310
00026e  6860              LDR      r0,[r4,#4]            ;310
000270  f7fffffe          BL       WM_GetDialogItem
000274  4682              MOV      r10,r0                ;310
000276  4649              MOV      r1,r9                 ;311
000278  4650              MOV      r0,r10                ;311
00027a  f7fffffe          BL       TEXT_SetBkColor
00027e  4639              MOV      r1,r7                 ;312
000280  4650              MOV      r0,r10                ;312
000282  f7fffffe          BL       TEXT_SetTextColor
000286  4928              LDR      r1,|L11.808|
000288  4650              MOV      r0,r10                ;313
00028a  f7fffffe          BL       TEXT_SetFont
00028e  6928              LDR      r0,[r5,#0x10]         ;314  ; Run_Control
000290  ee000a10          VMOV     s0,r0                 ;314
000294  eef80a40          VCVT.F32.U32 s1,s0                 ;314
000298  ed9f1a3f          VLDR     s2,|L11.920|
00029c  ee800a81          VDIV.F32 s0,s1,s2              ;314
0002a0  ee100a10          VMOV     r0,s0                 ;314
0002a4  f7fffffe          BL       __aeabi_f2d
0002a8  ec410b10          VMOV     d0,r0,r1              ;314
0002ac  a13b              ADR      r1,|L11.924|
0002ae  ec532b10          VMOV     r2,r3,d0              ;314
0002b2  4668              MOV      r0,sp                 ;314
0002b4  f7fffffe          BL       __2sprintf
0002b8  4669              MOV      r1,sp                 ;315
0002ba  4650              MOV      r0,r10                ;315
0002bc  f7fffffe          BL       TEXT_SetText
0002c0  f640110a          MOV      r1,#0x90a             ;383
0002c4  6860              LDR      r0,[r4,#4]            ;383
0002c6  f7fffffe          BL       WM_GetDialogItem
0002ca  4604              MOV      r4,r0                 ;383
0002cc  4641              MOV      r1,r8                 ;384
0002ce  4620              MOV      r0,r4                 ;384
0002d0  f7fffffe          BL       TEXT_SetTextColor
0002d4  4914              LDR      r1,|L11.808|
0002d6  4620              MOV      r0,r4                 ;385
0002d8  f7fffffe          BL       TEXT_SetFont
0002dc  6830              LDR      r0,[r6,#0]            ;386  ; temp
0002de  f7fffffe          BL       __aeabi_f2d
0002e2  ec410b10          VMOV     d0,r0,r1              ;386
0002e6  a124              ADR      r1,|L11.888|
0002e8  ec532b10          VMOV     r2,r3,d0              ;386
0002ec  4668              MOV      r0,sp                 ;386
0002ee  f7fffffe          BL       __2sprintf
0002f2  4669              MOV      r1,sp                 ;387
0002f4  4620              MOV      r0,r4                 ;387
0002f6  f7fffffe          BL       TEXT_SetText
0002fa  e695              B        |L11.40|
;;;405    
                          ENDP

                  |L11.764|
                          DCD      temp
                  |L11.768|
                          DCD      GUI_Fontsymbol
                  |L11.772|
000304  4a696e6b          DCB      "Jinko",0
000308  6f00    
00030a  00                DCB      0
00030b  00                DCB      0
                  |L11.780|
                          DCD      GUI_FontHZ20S
                  |L11.784|
000310  e7b3bbe7          DCB      231,179,187,231,187,159,232,174,190,231,189,174,0
000314  bb9fe8ae
000318  bee7bdae
00031c  00      
00031d  00                DCB      0
00031e  00                DCB      0
00031f  00                DCB      0
                  |L11.800|
                          DCD      GUI_Fontunit
                  |L11.804|
000324  c2b000            DCB      194,176,0
000327  00                DCB      0
                  |L11.808|
                          DCD      GUI_Font24_1
                  |L11.812|
00032c  4300              DCB      "C",0
00032e  00                DCB      0
00032f  00                DCB      0
                  |L11.816|
                          DCD      GUI_Fontset_font
                  |L11.820|
000334  e6b3a2e7          DCB      230,179,162,231,137,185,231,142,135,0
000338  89b9e78e
00033c  8700    
00033e  00                DCB      0
00033f  00                DCB      0
                  |L11.832|
000340  e89c82e9          DCB      232,156,130,233,184,163,229,153,168,0
000344  b8a3e599
000348  a800    
00034a  00                DCB      0
00034b  00                DCB      0
                  |L11.844|
00034c  e698bee7          DCB      230,152,190,231,164,186,0
000350  a4ba00  
000353  00                DCB      0
                  |L11.852|
000354  e794b5e5          DCB      231,148,181,229,142,139,228,184,138,233,153,144,0
000358  8e8be4b8
00035c  8ae99990
000360  00      
000361  00                DCB      0
000362  00                DCB      0
000363  00                DCB      0
                  |L11.868|
000364  e794b5e6          DCB      231,148,181,230,181,129,228,184,138,233,153,144,0
000368  b581e4b8
00036c  8ae99990
000370  00      
000371  00                DCB      0
000372  00                DCB      0
000373  00                DCB      0
                  |L11.884|
                          DCD      bit
                  |L11.888|
000378  252e3166          DCB      "%.1f",0
00037c  00      
00037d  00                DCB      0
00037e  00                DCB      0
00037f  00                DCB      0
                  |L11.896|
                          DCD      ||.data||
                  |L11.900|
                          DCD      0x00bfffff
                  |L11.904|
                          DCD      Run_Control+0x38
                  |L11.908|
00038c  42c80000          DCFS     0x42c80000 ; 100
                  |L11.912|
000390  252e3266          DCB      "%.2f",0
000394  00      
000395  00                DCB      0
000396  00                DCB      0
000397  00                DCB      0
                  |L11.920|
000398  447a0000          DCFS     0x447a0000 ; 1000
                  |L11.924|
00039c  252e3366          DCB      "%.3f",0
0003a0  00      
0003a1  00                DCB      0
0003a2  00                DCB      0
0003a3  00                DCB      0

                          AREA ||.bss||, DATA, NOINIT, ALIGN=2

                  InFlashSave
                          %        160

                          AREA ||.constdata||, DATA, READONLY, ALIGN=2

                  _aDialogCreate5
                          DCD      WINDOW_CreateIndirect
                          DCD      ||.conststring||
000008  082a0000          DCW      0x082a,0x0000
00000c  000001e0          DCW      0x0000,0x01e0
000010  01100000          DCW      0x0110,0x0000
                          DCD      0x00000000
                          DCD      0x00000000
                          DCD      TEXT_CreateIndirect
                          DCD      ||.conststring||+0x8
000024  08320076          DCW      0x0832,0x0076
000028  00320048          DCW      0x0032,0x0048
00002c  00140000          DCW      0x0014,0x0000
                          DCD      0x00000000
                          DCD      0x00000000
                          DCD      TEXT_CreateIndirect
                          DCD      ||.conststring||+0x8
000040  08330076          DCW      0x0833,0x0076
000044  004b0028          DCW      0x004b,0x0028
000048  00140000          DCW      0x0014,0x0000
                          DCD      0x00000000
                          DCD      0x00000000
                          DCD      TEXT_CreateIndirect
                          DCD      ||.conststring||+0x8
00005c  08340076          DCW      0x0834,0x0076
000060  00640028          DCW      0x0064,0x0028
000064  00140000          DCW      0x0014,0x0000
                          DCD      0x00000000
                          DCD      0x00000000
                          DCD      TEXT_CreateIndirect
                          DCD      ||.conststring||+0x8
000078  083b0076          DCW      0x083b,0x0076
00007c  007d0064          DCW      0x007d,0x0064
000080  00140000          DCW      0x0014,0x0000
                          DCD      0x00000000
                          DCD      0x00000000
                          DCD      TEXT_CreateIndirect
                          DCD      ||.conststring||+0x8
000094  083c0076          DCW      0x083c,0x0076
000098  00960064          DCW      0x0096,0x0064
00009c  00140000          DCW      0x0014,0x0000
                          DCD      0x00000000
                          DCD      0x00000000
                          DCD      TEXT_CreateIndirect
                          DCD      ||.conststring||+0x8
0000b0  090a012c          DCW      0x090a,0x012c
0000b4  00020050          DCW      0x0002,0x0050
0000b8  00140000          DCW      0x0014,0x0000
                          DCD      0x00000000
                          DCD      0x00000000

                          AREA ||.conststring||, DATA, READONLY, MERGE=1, STRINGS, ALIGN=2

000000  53595353          DCB      "SYSSET",0
000004  455400  
000007  00                DCB      0
000008  54657874          DCB      "Text",0
00000c  00      

                          AREA ||.data||, DATA, ALIGN=2

                  test_mode
000000  00000000          DCB      0x00,0x00,0x00,0x00
                  hWinset
                          DCD      0x00000000
                  BEEPSET
000008  4f4e004f          DCB      0x4f,0x4e,0x00,0x4f
00000c  4646              DCB      0x46,0x46
                  BAUDSET
00000e  3132              DCB      0x31,0x32
000010  30300000          DCB      0x30,0x30,0x00,0x00
000014  32343030          DCB      0x32,0x34,0x30,0x30
000018  00003438          DCB      0x00,0x00,0x34,0x38
00001c  30300000          DCB      0x30,0x30,0x00,0x00
000020  39363030          DCB      0x39,0x36,0x30,0x30
000024  00003139          DCB      0x00,0x00,0x31,0x39
000028  32303000          DCB      0x32,0x30,0x30,0x00
00002c  33383430          DCB      0x33,0x38,0x34,0x30
000030  30003537          DCB      0x30,0x00,0x35,0x37
000034  36303000          DCB      0x36,0x30,0x30,0x00
000038  31313532          DCB      0x31,0x31,0x35,0x32
00003c  3030              DCB      0x30,0x30
                  DISPLAY
00003e  e58a              DCB      0xe5,0x8a
000040  9fe78e87          DCB      0x9f,0xe7,0x8e,0x87
000044  0000e794          DCB      0x00,0x00,0xe7,0x94
000048  b5e998bb          DCB      0xb5,0xe9,0x98,0xbb
00004c  0000              DCB      0x00,0x00

;*** Start embedded assembler ***

#line 1 "..\\APP\\settings.c"
	AREA ||.rev16_text||, CODE
	THUMB
	EXPORT |__asm___10_settings_c_BAUDSET____REV16|
#line 129 "D:\\Keil_v5\\ARM\\CMSIS\\Include\\core_cmInstr.h"
|__asm___10_settings_c_BAUDSET____REV16| PROC
#line 130

 rev16 r0, r0
 bx lr
	ENDP
	AREA ||.revsh_text||, CODE
	THUMB
	EXPORT |__asm___10_settings_c_BAUDSET____REVSH|
#line 144
|__asm___10_settings_c_BAUDSET____REVSH| PROC
#line 145

 revsh r0, r0
 bx lr
	ENDP

;*** End   embedded assembler ***
